
lab6.elf:     file format elf32-littlearm

Sections:
Idx Name          Size      VMA       LMA       File off  Algn
  0 .text         00003410  0c100000  0c100000  00008000  2**2
                  CONTENTS, ALLOC, LOAD, READONLY, CODE
  1 .rodata       00000760  0c103410  0c103410  0000b410  2**2
                  CONTENTS, ALLOC, LOAD, READONLY, DATA
  2 .ARM.exidx    00000008  0c103b70  0c103b70  0000bb70  2**2
                  CONTENTS, ALLOC, LOAD, READONLY, DATA
  3 .bss          00000008  0c103b78  0c103b78  0000bb78  2**2
                  ALLOC
  4 .debug_abbrev 00000487  00000000  00000000  0000bb78  2**0
                  CONTENTS, READONLY, DEBUGGING
  5 .debug_info   00000e34  00000000  00000000  0000bfff  2**0
                  CONTENTS, READONLY, DEBUGGING
  6 .debug_line   0000085d  00000000  00000000  0000ce33  2**0
                  CONTENTS, READONLY, DEBUGGING
  7 .debug_macinfo 0001d33e  00000000  00000000  0000d690  2**0
                  CONTENTS, READONLY, DEBUGGING
  8 .debug_loc    00000ec8  00000000  00000000  0002a9ce  2**0
                  CONTENTS, READONLY, DEBUGGING
  9 .debug_pubnames 00000656  00000000  00000000  0002b896  2**0
                  CONTENTS, READONLY, DEBUGGING
 10 .debug_pubtypes 00000134  00000000  00000000  0002beec  2**0
                  CONTENTS, READONLY, DEBUGGING
 11 .debug_aranges 000000c0  00000000  00000000  0002c020  2**0
                  CONTENTS, READONLY, DEBUGGING
 12 .debug_str    00000624  00000000  00000000  0002c0e0  2**0
                  CONTENTS, READONLY, DEBUGGING
 13 .comment      0000002a  00000000  00000000  0002c704  2**0
                  CONTENTS, READONLY
 14 .ARM.attributes 00000032  00000000  00000000  0002c72e  2**0
                  CONTENTS, READONLY
 15 .debug_frame  00000dac  00000000  00000000  0002c760  2**2
                  CONTENTS, READONLY, DEBUGGING

Disassembly of section .text:

0c100000 <main>:

void isr_keypad( void ) __attribute__ ((interrupt ("IRQ")));
void isr_pb( void ) __attribute__ ((interrupt ("IRQ")));

void main( void )
{
 c100000:	e1a0c00d 	mov	ip, sp
 c100004:	e92dd800 	push	{fp, ip, lr, pc}
 c100008:	e24cb004 	sub	fp, ip, #4

    sys_init();
 c10000c:	eb0003bd 	bl	c100f08 <sys_init>
    uart0_init();
 c100010:	eb00090f 	bl	c102454 <uart0_init>
    keypad_init();
 c100014:	eb00016f 	bl	c1005d8 <keypad_init>
    pbs_init();
 c100018:	eb000248 	bl	c100940 <pbs_init>

    /************************************/

    uart0_puts( "\nDetección de presión:\n" );
 c10001c:	e59f009c 	ldr	r0, [pc, #156]	; c1000c0 <main+0xc0>
 c100020:	eb00094a 	bl	c102550 <uart0_puts>

    uart0_puts( "  - Pulse el boton izquierdo\n" );
 c100024:	e59f0098 	ldr	r0, [pc, #152]	; c1000c4 <main+0xc4>
 c100028:	eb000948 	bl	c102550 <uart0_puts>
    pb_wait_keydown( PB_LEFT );
 c10002c:	e3a00040 	mov	r0, #64	; 0x40
 c100030:	eb000281 	bl	c100a3c <pb_wait_keydown>

    uart0_puts( "  - Pulse el boton derecho\n" );
 c100034:	e59f008c 	ldr	r0, [pc, #140]	; c1000c8 <main+0xc8>
 c100038:	eb000944 	bl	c102550 <uart0_puts>
    pb_wait_keydown( PB_RIGHT );
 c10003c:	e3a00080 	mov	r0, #128	; 0x80
 c100040:	eb00027d 	bl	c100a3c <pb_wait_keydown>

    uart0_puts( "  - Pulse alguna tecla\n" );
 c100044:	e59f0080 	ldr	r0, [pc, #128]	; c1000cc <main+0xcc>
 c100048:	eb000940 	bl	c102550 <uart0_puts>
    keypad_wait_any_keydown( );
 c10004c:	eb0001a5 	bl	c1006e8 <keypad_wait_any_keydown>

    uart0_puts( "  - Pulse la tecla 7 \n" );
 c100050:	e59f0078 	ldr	r0, [pc, #120]	; c1000d0 <main+0xd0>
 c100054:	eb00093d 	bl	c102550 <uart0_puts>
    keypad_wait_keydown( KEYPAD_KEY7 );
 c100058:	e3a00007 	mov	r0, #7
 c10005c:	eb00016b 	bl	c100610 <keypad_wait_keydown>

    /************************************/

    uart0_puts( "\nDetección de depresión:\n" );
 c100060:	e59f006c 	ldr	r0, [pc, #108]	; c1000d4 <main+0xd4>
 c100064:	eb000939 	bl	c102550 <uart0_puts>

    uart0_puts( "  - Pulse el boton izquierdo\n" );
 c100068:	e59f0054 	ldr	r0, [pc, #84]	; c1000c4 <main+0xc4>
 c10006c:	eb000937 	bl	c102550 <uart0_puts>
    pb_wait_keyup( PB_LEFT );
 c100070:	e3a00040 	mov	r0, #64	; 0x40
 c100074:	eb00028a 	bl	c100aa4 <pb_wait_keyup>

    uart0_puts( "  - Pulse el boton derecho\n" );
 c100078:	e59f0048 	ldr	r0, [pc, #72]	; c1000c8 <main+0xc8>
 c10007c:	eb000933 	bl	c102550 <uart0_puts>
    pb_wait_keyup( PB_RIGHT );
 c100080:	e3a00080 	mov	r0, #128	; 0x80
 c100084:	eb000286 	bl	c100aa4 <pb_wait_keyup>

    uart0_puts( "  - Pulse alguna tecla\n" );
 c100088:	e59f003c 	ldr	r0, [pc, #60]	; c1000cc <main+0xcc>
 c10008c:	eb00092f 	bl	c102550 <uart0_puts>
    keypad_wait_any_keyup( );
 c100090:	eb00019f 	bl	c100714 <keypad_wait_any_keyup>

    uart0_puts( "  - Pulse la tecla 7 \n" );
 c100094:	e59f0034 	ldr	r0, [pc, #52]	; c1000d0 <main+0xd0>
 c100098:	eb00092c 	bl	c102550 <uart0_puts>
    keypad_wait_keyup( KEYPAD_KEY7 );
 c10009c:	e3a00007 	mov	r0, #7
 c1000a0:	eb00017b 	bl	c100694 <keypad_wait_keyup>

    /************************************/

    uart0_puts( "\nPulse botones y/o teclas del keypad:\n" );
 c1000a4:	e59f002c 	ldr	r0, [pc, #44]	; c1000d8 <main+0xd8>
 c1000a8:	eb000928 	bl	c102550 <uart0_puts>
    keypad_open( isr_keypad );
 c1000ac:	e59f0028 	ldr	r0, [pc, #40]	; c1000dc <main+0xdc>
 c1000b0:	eb000121 	bl	c10053c <keypad_open>
    pbs_open( isr_pb );
 c1000b4:	e59f0024 	ldr	r0, [pc, #36]	; c1000e0 <main+0xe0>
 c1000b8:	eb000367 	bl	c100e5c <pbs_open>

    /************************************/

    while( 1 );
 c1000bc:	eafffffe 	b	c1000bc <main+0xbc>
 c1000c0:	0c103410 	.word	0x0c103410
 c1000c4:	0c103428 	.word	0x0c103428
 c1000c8:	0c103448 	.word	0x0c103448
 c1000cc:	0c103464 	.word	0x0c103464
 c1000d0:	0c10347c 	.word	0x0c10347c
 c1000d4:	0c103494 	.word	0x0c103494
 c1000d8:	0c1034b0 	.word	0x0c1034b0
 c1000dc:	0c1000e4 	.word	0x0c1000e4
 c1000e0:	0c1001a0 	.word	0x0c1001a0

0c1000e4 <isr_keypad>:

}

void isr_keypad( void )
{
 c1000e4:	e52dc004 	push	{ip}		; (str ip, [sp, #-4]!)
 c1000e8:	e1a0c00d 	mov	ip, sp
 c1000ec:	e92dd80f 	push	{r0, r1, r2, r3, fp, ip, lr, pc}
 c1000f0:	e24cb004 	sub	fp, ip, #4
 c1000f4:	e24dd008 	sub	sp, sp, #8
    uint8 scancode;
    uint16 time;

    scancode = keypad_getchartime( &time );
 c1000f8:	e24b3020 	sub	r3, fp, #32
 c1000fc:	e1a00003 	mov	r0, r3
 c100100:	eb0001b7 	bl	c1007e4 <keypad_getchartime>
 c100104:	e1a03000 	mov	r3, r0
 c100108:	e54b301d 	strb	r3, [fp, #-29]	; 0xffffffe3
    switch( scancode )
 c10010c:	e55b301d 	ldrb	r3, [fp, #-29]	; 0xffffffe3
 c100110:	e35300fe 	cmp	r3, #254	; 0xfe
 c100114:	0a000002 	beq	c100124 <isr_keypad+0x40>
 c100118:	e35300ff 	cmp	r3, #255	; 0xff
 c10011c:	0a000003 	beq	c100130 <isr_keypad+0x4c>
 c100120:	ea000005 	b	c10013c <isr_keypad+0x58>
    {
        case KEYPAD_TIMEOUT:
            uart0_puts( "  - KEYPAD TIMEOUT\n" );
 c100124:	e59f005c 	ldr	r0, [pc, #92]	; c100188 <isr_keypad+0xa4>
 c100128:	eb000908 	bl	c102550 <uart0_puts>
            break;
 c10012c:	ea00000e 	b	c10016c <isr_keypad+0x88>
        case KEYPAD_FAILURE:
            uart0_puts( "  - KEYPAD FAILURE\n" );
 c100130:	e59f0054 	ldr	r0, [pc, #84]	; c10018c <isr_keypad+0xa8>
 c100134:	eb000905 	bl	c102550 <uart0_puts>
            break;            
 c100138:	ea00000b 	b	c10016c <isr_keypad+0x88>
        default:
            uart0_puts( "  - Tecla pulsada: 0x" );
 c10013c:	e59f004c 	ldr	r0, [pc, #76]	; c100190 <isr_keypad+0xac>
 c100140:	eb000902 	bl	c102550 <uart0_puts>
            uart0_puthex( scancode );
 c100144:	e55b301d 	ldrb	r3, [fp, #-29]	; 0xffffffe3
 c100148:	e1a00003 	mov	r0, r3
 c10014c:	eb000956 	bl	c1026ac <uart0_puthex>
            uart0_puts( " durante " );
 c100150:	e59f003c 	ldr	r0, [pc, #60]	; c100194 <isr_keypad+0xb0>
 c100154:	eb0008fd 	bl	c102550 <uart0_puts>
            uart0_putint( time );
 c100158:	e15b32b0 	ldrh	r3, [fp, #-32]	; 0xffffffe0
 c10015c:	e1a00003 	mov	r0, r3
 c100160:	eb00090e 	bl	c1025a0 <uart0_putint>
            uart0_puts( " ms \n" );
 c100164:	e59f002c 	ldr	r0, [pc, #44]	; c100198 <isr_keypad+0xb4>
 c100168:	eb0008f8 	bl	c102550 <uart0_puts>
    }
    I_ISPC = BIT_KEYPAD;
 c10016c:	e59f3028 	ldr	r3, [pc, #40]	; c10019c <isr_keypad+0xb8>
 c100170:	e3a02401 	mov	r2, #16777216	; 0x1000000
 c100174:	e5832000 	str	r2, [r3]
}
 c100178:	e24bd01c 	sub	sp, fp, #28
 c10017c:	e89d680f 	ldm	sp, {r0, r1, r2, r3, fp, sp, lr}
 c100180:	e49dc004 	pop	{ip}		; (ldr ip, [sp], #4)
 c100184:	e25ef004 	subs	pc, lr, #4
 c100188:	0c1034d8 	.word	0x0c1034d8
 c10018c:	0c1034ec 	.word	0x0c1034ec
 c100190:	0c103500 	.word	0x0c103500
 c100194:	0c103518 	.word	0x0c103518
 c100198:	0c103524 	.word	0x0c103524
 c10019c:	01e00024 	.word	0x01e00024

0c1001a0 <isr_pb>:

void isr_pb( void )
{
 c1001a0:	e52dc004 	push	{ip}		; (str ip, [sp, #-4]!)
 c1001a4:	e1a0c00d 	mov	ip, sp
 c1001a8:	e92dd80f 	push	{r0, r1, r2, r3, fp, ip, lr, pc}
 c1001ac:	e24cb004 	sub	fp, ip, #4
 c1001b0:	e24dd008 	sub	sp, sp, #8
    uint8 scancode;
    uint16 time;

    scancode = pb_getchartime( &time );
 c1001b4:	e24b3020 	sub	r3, fp, #32
 c1001b8:	e1a00003 	mov	r0, r3
 c1001bc:	eb0002ba 	bl	c100cac <pb_getchartime>
 c1001c0:	e1a03000 	mov	r3, r0
 c1001c4:	e54b301d 	strb	r3, [fp, #-29]	; 0xffffffe3
    switch( scancode )
 c1001c8:	e55b301d 	ldrb	r3, [fp, #-29]	; 0xffffffe3
 c1001cc:	e3530080 	cmp	r3, #128	; 0x80
 c1001d0:	0a00001a 	beq	c100240 <isr_pb+0xa0>
 c1001d4:	e3530080 	cmp	r3, #128	; 0x80
 c1001d8:	ca000002 	bgt	c1001e8 <isr_pb+0x48>
 c1001dc:	e3530040 	cmp	r3, #64	; 0x40
 c1001e0:	0a00000b 	beq	c100214 <isr_pb+0x74>
 c1001e4:	ea000020 	b	c10026c <isr_pb+0xcc>
 c1001e8:	e35300fe 	cmp	r3, #254	; 0xfe
 c1001ec:	0a000002 	beq	c1001fc <isr_pb+0x5c>
 c1001f0:	e35300ff 	cmp	r3, #255	; 0xff
 c1001f4:	0a000003 	beq	c100208 <isr_pb+0x68>
 c1001f8:	ea00001b 	b	c10026c <isr_pb+0xcc>
    {
        case PB_TIMEOUT:
            uart0_puts( "  - PB TIMEOUT\n" );
 c1001fc:	e59f0084 	ldr	r0, [pc, #132]	; c100288 <isr_pb+0xe8>
 c100200:	eb0008d2 	bl	c102550 <uart0_puts>
            break;
 c100204:	ea000018 	b	c10026c <isr_pb+0xcc>
        case PB_FAILURE:
            uart0_puts( "  - PB FAILURE\n" );
 c100208:	e59f007c 	ldr	r0, [pc, #124]	; c10028c <isr_pb+0xec>
 c10020c:	eb0008cf 	bl	c102550 <uart0_puts>
            break;
 c100210:	ea000015 	b	c10026c <isr_pb+0xcc>
        case PB_LEFT:
            uart0_puts( "  - Boton izquierdo pulsado durante " );
 c100214:	e59f0074 	ldr	r0, [pc, #116]	; c100290 <isr_pb+0xf0>
 c100218:	eb0008cc 	bl	c102550 <uart0_puts>
            uart0_putint( time );
 c10021c:	e15b32b0 	ldrh	r3, [fp, #-32]	; 0xffffffe0
 c100220:	e1a00003 	mov	r0, r3
 c100224:	eb0008dd 	bl	c1025a0 <uart0_putint>
            uart0_puts( " ms \n" );
 c100228:	e59f0064 	ldr	r0, [pc, #100]	; c100294 <isr_pb+0xf4>
 c10022c:	eb0008c7 	bl	c102550 <uart0_puts>
            EXTINTPND = BIT_LEFTPB;
 c100230:	e59f3060 	ldr	r3, [pc, #96]	; c100298 <isr_pb+0xf8>
 c100234:	e3a02004 	mov	r2, #4
 c100238:	e5832000 	str	r2, [r3]
            break;
 c10023c:	ea00000a 	b	c10026c <isr_pb+0xcc>
        case PB_RIGHT:
            uart0_puts( "  - Boton derecho pulsado durante " );
 c100240:	e59f0054 	ldr	r0, [pc, #84]	; c10029c <isr_pb+0xfc>
 c100244:	eb0008c1 	bl	c102550 <uart0_puts>
            uart0_putint( time );
 c100248:	e15b32b0 	ldrh	r3, [fp, #-32]	; 0xffffffe0
 c10024c:	e1a00003 	mov	r0, r3
 c100250:	eb0008d2 	bl	c1025a0 <uart0_putint>
            uart0_puts( " ms \n" );
 c100254:	e59f0038 	ldr	r0, [pc, #56]	; c100294 <isr_pb+0xf4>
 c100258:	eb0008bc 	bl	c102550 <uart0_puts>
            EXTINTPND = BIT_RIGHTPB;
 c10025c:	e59f3034 	ldr	r3, [pc, #52]	; c100298 <isr_pb+0xf8>
 c100260:	e3a02008 	mov	r2, #8
 c100264:	e5832000 	str	r2, [r3]
            break;
 c100268:	e1a00000 	nop			; (mov r0, r0)
    }
    I_ISPC = BIT_PB;
 c10026c:	e59f302c 	ldr	r3, [pc, #44]	; c1002a0 <isr_pb+0x100>
 c100270:	e3a02602 	mov	r2, #2097152	; 0x200000
 c100274:	e5832000 	str	r2, [r3]
}
 c100278:	e24bd01c 	sub	sp, fp, #28
 c10027c:	e89d680f 	ldm	sp, {r0, r1, r2, r3, fp, sp, lr}
 c100280:	e49dc004 	pop	{ip}		; (ldr ip, [sp], #4)
 c100284:	e25ef004 	subs	pc, lr, #4
 c100288:	0c10352c 	.word	0x0c10352c
 c10028c:	0c10353c 	.word	0x0c10353c
 c100290:	0c10354c 	.word	0x0c10354c
 c100294:	0c103524 	.word	0x0c103524
 c100298:	01d20054 	.word	0x01d20054
 c10029c:	0c103574 	.word	0x0c103574
 c1002a0:	01e00024 	.word	0x01e00024

0c1002a4 <keypad_scan>:
#include <keypad.h>

extern void isr_KEYPAD_dummy( void );

uint8 keypad_scan( void )
{
 c1002a4:	e1a0c00d 	mov	ip, sp
 c1002a8:	e92dd800 	push	{fp, ip, lr, pc}
 c1002ac:	e24cb004 	sub	fp, ip, #4
 c1002b0:	e24dd008 	sub	sp, sp, #8
    uint8 aux;

    aux = *( KEYPAD_ADDR + 0x1c );
 c1002b4:	e59f31fc 	ldr	r3, [pc, #508]	; c1004b8 <keypad_scan+0x214>
 c1002b8:	e5d33000 	ldrb	r3, [r3]
 c1002bc:	e54b300d 	strb	r3, [fp, #-13]
    if( (aux & 0x0f) != 0x0f )
 c1002c0:	e55b300d 	ldrb	r3, [fp, #-13]
 c1002c4:	e203300f 	and	r3, r3, #15
 c1002c8:	e353000f 	cmp	r3, #15
 c1002cc:	0a000017 	beq	c100330 <keypad_scan+0x8c>
    {
        if( (aux & 0x8) == 0 )
 c1002d0:	e55b300d 	ldrb	r3, [fp, #-13]
 c1002d4:	e2033008 	and	r3, r3, #8
 c1002d8:	e3530000 	cmp	r3, #0
 c1002dc:	1a000001 	bne	c1002e8 <keypad_scan+0x44>
            return KEYPAD_KEY0;
 c1002e0:	e3a03000 	mov	r3, #0
 c1002e4:	ea00006f 	b	c1004a8 <keypad_scan+0x204>
        else if( (aux & 0x4) == 0 )
 c1002e8:	e55b300d 	ldrb	r3, [fp, #-13]
 c1002ec:	e2033004 	and	r3, r3, #4
 c1002f0:	e3530000 	cmp	r3, #0
 c1002f4:	1a000001 	bne	c100300 <keypad_scan+0x5c>
            return KEYPAD_KEY1;
 c1002f8:	e3a03001 	mov	r3, #1
 c1002fc:	ea000069 	b	c1004a8 <keypad_scan+0x204>
        else if( (aux & 0x2) == 0 )
 c100300:	e55b300d 	ldrb	r3, [fp, #-13]
 c100304:	e2033002 	and	r3, r3, #2
 c100308:	e3530000 	cmp	r3, #0
 c10030c:	1a000001 	bne	c100318 <keypad_scan+0x74>
            return KEYPAD_KEY2;
 c100310:	e3a03002 	mov	r3, #2
 c100314:	ea000063 	b	c1004a8 <keypad_scan+0x204>
        else if( (aux & 0x1) == 0 )
 c100318:	e55b300d 	ldrb	r3, [fp, #-13]
 c10031c:	e2033001 	and	r3, r3, #1
 c100320:	e3530000 	cmp	r3, #0
 c100324:	1a000001 	bne	c100330 <keypad_scan+0x8c>
            return KEYPAD_KEY3;
 c100328:	e3a03003 	mov	r3, #3
 c10032c:	ea00005d 	b	c1004a8 <keypad_scan+0x204>
    }

    aux = *( KEYPAD_ADDR + 0x1a );
 c100330:	e59f3184 	ldr	r3, [pc, #388]	; c1004bc <keypad_scan+0x218>
 c100334:	e5d33000 	ldrb	r3, [r3]
 c100338:	e54b300d 	strb	r3, [fp, #-13]
    if( (aux & 0x0f) != 0x0f )
 c10033c:	e55b300d 	ldrb	r3, [fp, #-13]
 c100340:	e203300f 	and	r3, r3, #15
 c100344:	e353000f 	cmp	r3, #15
 c100348:	0a000017 	beq	c1003ac <keypad_scan+0x108>
    {
        if( (aux & 0x8) == 0 )
 c10034c:	e55b300d 	ldrb	r3, [fp, #-13]
 c100350:	e2033008 	and	r3, r3, #8
 c100354:	e3530000 	cmp	r3, #0
 c100358:	1a000001 	bne	c100364 <keypad_scan+0xc0>
            return KEYPAD_KEY4;
 c10035c:	e3a03004 	mov	r3, #4
 c100360:	ea000050 	b	c1004a8 <keypad_scan+0x204>
        else if( (aux & 0x4) == 0 )
 c100364:	e55b300d 	ldrb	r3, [fp, #-13]
 c100368:	e2033004 	and	r3, r3, #4
 c10036c:	e3530000 	cmp	r3, #0
 c100370:	1a000001 	bne	c10037c <keypad_scan+0xd8>
            return KEYPAD_KEY5;
 c100374:	e3a03005 	mov	r3, #5
 c100378:	ea00004a 	b	c1004a8 <keypad_scan+0x204>
        else if( (aux & 0x2) == 0 )
 c10037c:	e55b300d 	ldrb	r3, [fp, #-13]
 c100380:	e2033002 	and	r3, r3, #2
 c100384:	e3530000 	cmp	r3, #0
 c100388:	1a000001 	bne	c100394 <keypad_scan+0xf0>
            return KEYPAD_KEY6;
 c10038c:	e3a03006 	mov	r3, #6
 c100390:	ea000044 	b	c1004a8 <keypad_scan+0x204>
        else if( (aux & 0x1) == 0 )
 c100394:	e55b300d 	ldrb	r3, [fp, #-13]
 c100398:	e2033001 	and	r3, r3, #1
 c10039c:	e3530000 	cmp	r3, #0
 c1003a0:	1a000001 	bne	c1003ac <keypad_scan+0x108>
            return KEYPAD_KEY7;
 c1003a4:	e3a03007 	mov	r3, #7
 c1003a8:	ea00003e 	b	c1004a8 <keypad_scan+0x204>
    }

    aux = *( KEYPAD_ADDR + 0x16 );
 c1003ac:	e59f310c 	ldr	r3, [pc, #268]	; c1004c0 <keypad_scan+0x21c>
 c1003b0:	e5d33000 	ldrb	r3, [r3]
 c1003b4:	e54b300d 	strb	r3, [fp, #-13]
    if( (aux & 0x0f) != 0x0f )
 c1003b8:	e55b300d 	ldrb	r3, [fp, #-13]
 c1003bc:	e203300f 	and	r3, r3, #15
 c1003c0:	e353000f 	cmp	r3, #15
 c1003c4:	0a000017 	beq	c100428 <keypad_scan+0x184>
    {
        if( (aux & 0x8) == 0 )
 c1003c8:	e55b300d 	ldrb	r3, [fp, #-13]
 c1003cc:	e2033008 	and	r3, r3, #8
 c1003d0:	e3530000 	cmp	r3, #0
 c1003d4:	1a000001 	bne	c1003e0 <keypad_scan+0x13c>
            return KEYPAD_KEY8;
 c1003d8:	e3a03008 	mov	r3, #8
 c1003dc:	ea000031 	b	c1004a8 <keypad_scan+0x204>
        else if( (aux & 0x4) == 0 )
 c1003e0:	e55b300d 	ldrb	r3, [fp, #-13]
 c1003e4:	e2033004 	and	r3, r3, #4
 c1003e8:	e3530000 	cmp	r3, #0
 c1003ec:	1a000001 	bne	c1003f8 <keypad_scan+0x154>
            return KEYPAD_KEY9;
 c1003f0:	e3a03009 	mov	r3, #9
 c1003f4:	ea00002b 	b	c1004a8 <keypad_scan+0x204>
        else if( (aux & 0x2) == 0 )
 c1003f8:	e55b300d 	ldrb	r3, [fp, #-13]
 c1003fc:	e2033002 	and	r3, r3, #2
 c100400:	e3530000 	cmp	r3, #0
 c100404:	1a000001 	bne	c100410 <keypad_scan+0x16c>
            return KEYPAD_KEYA;
 c100408:	e3a0300a 	mov	r3, #10
 c10040c:	ea000025 	b	c1004a8 <keypad_scan+0x204>
        else if( (aux & 0x1) == 0 )
 c100410:	e55b300d 	ldrb	r3, [fp, #-13]
 c100414:	e2033001 	and	r3, r3, #1
 c100418:	e3530000 	cmp	r3, #0
 c10041c:	1a000001 	bne	c100428 <keypad_scan+0x184>
            return KEYPAD_KEYB;
 c100420:	e3a0300b 	mov	r3, #11
 c100424:	ea00001f 	b	c1004a8 <keypad_scan+0x204>
    }

    aux = *( KEYPAD_ADDR + 0xee );
 c100428:	e59f3094 	ldr	r3, [pc, #148]	; c1004c4 <keypad_scan+0x220>
 c10042c:	e5d33000 	ldrb	r3, [r3]
 c100430:	e54b300d 	strb	r3, [fp, #-13]
    if( (aux & 0x0f) != 0x0f )
 c100434:	e55b300d 	ldrb	r3, [fp, #-13]
 c100438:	e203300f 	and	r3, r3, #15
 c10043c:	e353000f 	cmp	r3, #15
 c100440:	0a000017 	beq	c1004a4 <keypad_scan+0x200>
    {
        if( (aux & 0x8) == 0 )
 c100444:	e55b300d 	ldrb	r3, [fp, #-13]
 c100448:	e2033008 	and	r3, r3, #8
 c10044c:	e3530000 	cmp	r3, #0
 c100450:	1a000001 	bne	c10045c <keypad_scan+0x1b8>
            return KEYPAD_KEYC;
 c100454:	e3a0300c 	mov	r3, #12
 c100458:	ea000012 	b	c1004a8 <keypad_scan+0x204>
        else if( (aux & 0x4) == 0 )
 c10045c:	e55b300d 	ldrb	r3, [fp, #-13]
 c100460:	e2033004 	and	r3, r3, #4
 c100464:	e3530000 	cmp	r3, #0
 c100468:	1a000001 	bne	c100474 <keypad_scan+0x1d0>
            return KEYPAD_KEYD;
 c10046c:	e3a0300d 	mov	r3, #13
 c100470:	ea00000c 	b	c1004a8 <keypad_scan+0x204>
        else if( (aux & 0x2) == 0 )
 c100474:	e55b300d 	ldrb	r3, [fp, #-13]
 c100478:	e2033002 	and	r3, r3, #2
 c10047c:	e3530000 	cmp	r3, #0
 c100480:	1a000001 	bne	c10048c <keypad_scan+0x1e8>
            return KEYPAD_KEYE;
 c100484:	e3a0300e 	mov	r3, #14
 c100488:	ea000006 	b	c1004a8 <keypad_scan+0x204>
        else if( (aux & 0x1) == 0 )
 c10048c:	e55b300d 	ldrb	r3, [fp, #-13]
 c100490:	e2033001 	and	r3, r3, #1
 c100494:	e3530000 	cmp	r3, #0
 c100498:	1a000001 	bne	c1004a4 <keypad_scan+0x200>
            return KEYPAD_KEYF;
 c10049c:	e3a0300f 	mov	r3, #15
 c1004a0:	ea000000 	b	c1004a8 <keypad_scan+0x204>
    }

    return KEYPAD_FAILURE;
 c1004a4:	e3a030ff 	mov	r3, #255	; 0xff
}
 c1004a8:	e1a00003 	mov	r0, r3
 c1004ac:	e24bd00c 	sub	sp, fp, #12
 c1004b0:	e89d6800 	ldm	sp, {fp, sp, lr}
 c1004b4:	e12fff1e 	bx	lr
 c1004b8:	0600001c 	.word	0x0600001c
 c1004bc:	0600001a 	.word	0x0600001a
 c1004c0:	06000016 	.word	0x06000016
 c1004c4:	060000ee 	.word	0x060000ee

0c1004c8 <keypad_status>:

uint8 keypad_status( uint8 scancode )
{
 c1004c8:	e1a0c00d 	mov	ip, sp
 c1004cc:	e92dd800 	push	{fp, ip, lr, pc}
 c1004d0:	e24cb004 	sub	fp, ip, #4
 c1004d4:	e24dd008 	sub	sp, sp, #8
 c1004d8:	e1a03000 	mov	r3, r0
 c1004dc:	e54b300d 	strb	r3, [fp, #-13]
	if(!(PDATG & (1<<1))){
 c1004e0:	e59f3050 	ldr	r3, [pc, #80]	; c100538 <keypad_status+0x70>
 c1004e4:	e5933000 	ldr	r3, [r3]
 c1004e8:	e2033002 	and	r3, r3, #2
 c1004ec:	e3530000 	cmp	r3, #0
 c1004f0:	1a000009 	bne	c10051c <keypad_status+0x54>
		if((scancode & keypad_scan())==0) return KEY_UP;
 c1004f4:	ebffff6a 	bl	c1002a4 <keypad_scan>
 c1004f8:	e1a03000 	mov	r3, r0
 c1004fc:	e1a02003 	mov	r2, r3
 c100500:	e55b300d 	ldrb	r3, [fp, #-13]
 c100504:	e0023003 	and	r3, r2, r3
 c100508:	e20330ff 	and	r3, r3, #255	; 0xff
 c10050c:	e3530000 	cmp	r3, #0
 c100510:	1a000003 	bne	c100524 <keypad_status+0x5c>
 c100514:	e3a03000 	mov	r3, #0
 c100518:	ea000002 	b	c100528 <keypad_status+0x60>
	}
	else return KEY_DOWN;
 c10051c:	e3a03001 	mov	r3, #1
 c100520:	ea000000 	b	c100528 <keypad_status+0x60>
 c100524:	eaffffff 	b	c100528 <keypad_status+0x60>
}
 c100528:	e1a00003 	mov	r0, r3
 c10052c:	e24bd00c 	sub	sp, fp, #12
 c100530:	e89d6800 	ldm	sp, {fp, sp, lr}
 c100534:	e12fff1e 	bx	lr
 c100538:	01d20044 	.word	0x01d20044

0c10053c <keypad_open>:

void keypad_open( void (*isr)(void) )
{
 c10053c:	e1a0c00d 	mov	ip, sp
 c100540:	e92dd800 	push	{fp, ip, lr, pc}
 c100544:	e24cb004 	sub	fp, ip, #4
 c100548:	e24dd008 	sub	sp, sp, #8
 c10054c:	e50b0010 	str	r0, [fp, #-16]
	pISR_KEYPAD = (uint32) isr;
 c100550:	e59f3030 	ldr	r3, [pc, #48]	; c100588 <keypad_open+0x4c>
 c100554:	e51b2010 	ldr	r2, [fp, #-16]
 c100558:	e5832000 	str	r2, [r3]
	I_ISPC = BIT_KEYPAD;
 c10055c:	e59f3028 	ldr	r3, [pc, #40]	; c10058c <keypad_open+0x50>
 c100560:	e3a02401 	mov	r2, #16777216	; 0x1000000
 c100564:	e5832000 	str	r2, [r3]
	INTMSK &= ~(BIT_GLOBAL | BIT_KEYPAD);
 c100568:	e59f3020 	ldr	r3, [pc, #32]	; c100590 <keypad_open+0x54>
 c10056c:	e59f201c 	ldr	r2, [pc, #28]	; c100590 <keypad_open+0x54>
 c100570:	e5922000 	ldr	r2, [r2]
 c100574:	e3c22405 	bic	r2, r2, #83886080	; 0x5000000
 c100578:	e5832000 	str	r2, [r3]
}
 c10057c:	e24bd00c 	sub	sp, fp, #12
 c100580:	e89d6800 	ldm	sp, {fp, sp, lr}
 c100584:	e12fff1e 	bx	lr
 c100588:	0c7fff80 	.word	0x0c7fff80
 c10058c:	01e00024 	.word	0x01e00024
 c100590:	01e0000c 	.word	0x01e0000c

0c100594 <keypad_close>:

void keypad_close( void )
{
 c100594:	e1a0c00d 	mov	ip, sp
 c100598:	e92dd800 	push	{fp, ip, lr, pc}
 c10059c:	e24cb004 	sub	fp, ip, #4
	pISR_KEYPAD= (uint32) isr_KEYPAD_dummy;
 c1005a0:	e59f3024 	ldr	r3, [pc, #36]	; c1005cc <keypad_close+0x38>
 c1005a4:	e59f2024 	ldr	r2, [pc, #36]	; c1005d0 <keypad_close+0x3c>
 c1005a8:	e5832000 	str	r2, [r3]
	INTMSK |= BIT_KEYPAD;
 c1005ac:	e59f3020 	ldr	r3, [pc, #32]	; c1005d4 <keypad_close+0x40>
 c1005b0:	e59f201c 	ldr	r2, [pc, #28]	; c1005d4 <keypad_close+0x40>
 c1005b4:	e5922000 	ldr	r2, [r2]
 c1005b8:	e3822401 	orr	r2, r2, #16777216	; 0x1000000
 c1005bc:	e5832000 	str	r2, [r3]
}
 c1005c0:	e24bd00c 	sub	sp, fp, #12
 c1005c4:	e89d6800 	ldm	sp, {fp, sp, lr}
 c1005c8:	e12fff1e 	bx	lr
 c1005cc:	0c7fff80 	.word	0x0c7fff80
 c1005d0:	0c10199c 	.word	0x0c10199c
 c1005d4:	01e0000c 	.word	0x01e0000c

0c1005d8 <keypad_init>:

#if KEYPAD_IO_METHOD == POOLING


void keypad_init( void )
{
 c1005d8:	e1a0c00d 	mov	ip, sp
 c1005dc:	e92dd800 	push	{fp, ip, lr, pc}
 c1005e0:	e24cb004 	sub	fp, ip, #4
	EXTINT = (EXTINT & ~(0XF<<4)) | (2<<4);
 c1005e4:	e59f3020 	ldr	r3, [pc, #32]	; c10060c <keypad_init+0x34>
 c1005e8:	e59f201c 	ldr	r2, [pc, #28]	; c10060c <keypad_init+0x34>
 c1005ec:	e5922000 	ldr	r2, [r2]
 c1005f0:	e3c220f0 	bic	r2, r2, #240	; 0xf0
 c1005f4:	e3822020 	orr	r2, r2, #32
 c1005f8:	e5832000 	str	r2, [r3]
	timers_init();
 c1005fc:	eb00050e 	bl	c101a3c <timers_init>
};
 c100600:	e24bd00c 	sub	sp, fp, #12
 c100604:	e89d6800 	ldm	sp, {fp, sp, lr}
 c100608:	e12fff1e 	bx	lr
 c10060c:	01d20050 	.word	0x01d20050

0c100610 <keypad_wait_keydown>:


void keypad_wait_keydown( uint8 scancode )
{
 c100610:	e1a0c00d 	mov	ip, sp
 c100614:	e92dd800 	push	{fp, ip, lr, pc}
 c100618:	e24cb004 	sub	fp, ip, #4
 c10061c:	e24dd008 	sub	sp, sp, #8
 c100620:	e1a03000 	mov	r3, r0
 c100624:	e54b300d 	strb	r3, [fp, #-13]
     while( 1 ) 
     {
    	while(PDATG & (1<<1));
 c100628:	e1a00000 	nop			; (mov r0, r0)
 c10062c:	e59f305c 	ldr	r3, [pc, #92]	; c100690 <keypad_wait_keydown+0x80>
 c100630:	e5933000 	ldr	r3, [r3]
 c100634:	e2033002 	and	r3, r3, #2
 c100638:	e3530000 	cmp	r3, #0
 c10063c:	1afffffa 	bne	c10062c <keypad_wait_keydown+0x1c>
        sw_delay_ms( KEYPAD_KEYDOWN_DELAY );
 c100640:	e3a0001e 	mov	r0, #30
 c100644:	eb0005a5 	bl	c101ce0 <sw_delay_ms>
        if ( scancode == keypad_scan() )
 c100648:	ebffff15 	bl	c1002a4 <keypad_scan>
 c10064c:	e1a03000 	mov	r3, r0
 c100650:	e55b200d 	ldrb	r2, [fp, #-13]
 c100654:	e1520003 	cmp	r2, r3
 c100658:	0a000009 	beq	c100684 <keypad_wait_keydown+0x74>
            return;
        while(!(PDATG & (1<<1)));
 c10065c:	e1a00000 	nop			; (mov r0, r0)
 c100660:	e59f3028 	ldr	r3, [pc, #40]	; c100690 <keypad_wait_keydown+0x80>
 c100664:	e5933000 	ldr	r3, [r3]
 c100668:	e2033002 	and	r3, r3, #2
 c10066c:	e3530000 	cmp	r3, #0
 c100670:	0afffffa 	beq	c100660 <keypad_wait_keydown+0x50>
        sw_delay_ms( KEYPAD_KEYUP_DELAY );
 c100674:	e3a00064 	mov	r0, #100	; 0x64
 c100678:	eb000598 	bl	c101ce0 <sw_delay_ms>
    }         
 c10067c:	e1a00000 	nop			; (mov r0, r0)

void keypad_wait_keydown( uint8 scancode )
{
     while( 1 ) 
     {
    	while(PDATG & (1<<1));
 c100680:	eaffffe9 	b	c10062c <keypad_wait_keydown+0x1c>
        if ( scancode == keypad_scan() )
            return;
        while(!(PDATG & (1<<1)));
        sw_delay_ms( KEYPAD_KEYUP_DELAY );
    }         
}
 c100684:	e24bd00c 	sub	sp, fp, #12
 c100688:	e89d6800 	ldm	sp, {fp, sp, lr}
 c10068c:	e12fff1e 	bx	lr
 c100690:	01d20044 	.word	0x01d20044

0c100694 <keypad_wait_keyup>:

void keypad_wait_keyup( uint8 scancode )
{
 c100694:	e1a0c00d 	mov	ip, sp
 c100698:	e92dd800 	push	{fp, ip, lr, pc}
 c10069c:	e24cb004 	sub	fp, ip, #4
 c1006a0:	e24dd008 	sub	sp, sp, #8
 c1006a4:	e1a03000 	mov	r3, r0
 c1006a8:	e54b300d 	strb	r3, [fp, #-13]
	keypad_wait_keydown(scancode);
 c1006ac:	e55b300d 	ldrb	r3, [fp, #-13]
 c1006b0:	e1a00003 	mov	r0, r3
 c1006b4:	ebffffd5 	bl	c100610 <keypad_wait_keydown>

	while (keypad_status(scancode) == KEY_DOWN) ;
 c1006b8:	e1a00000 	nop			; (mov r0, r0)
 c1006bc:	e55b300d 	ldrb	r3, [fp, #-13]
 c1006c0:	e1a00003 	mov	r0, r3
 c1006c4:	ebffff7f 	bl	c1004c8 <keypad_status>
 c1006c8:	e1a03000 	mov	r3, r0
 c1006cc:	e3530001 	cmp	r3, #1
 c1006d0:	0afffff9 	beq	c1006bc <keypad_wait_keyup+0x28>
	sw_delay_ms(KEYPAD_KEYUP_DELAY);
 c1006d4:	e3a00064 	mov	r0, #100	; 0x64
 c1006d8:	eb000580 	bl	c101ce0 <sw_delay_ms>
}
 c1006dc:	e24bd00c 	sub	sp, fp, #12
 c1006e0:	e89d6800 	ldm	sp, {fp, sp, lr}
 c1006e4:	e12fff1e 	bx	lr

0c1006e8 <keypad_wait_any_keydown>:

void keypad_wait_any_keydown( void )
{
 c1006e8:	e1a0c00d 	mov	ip, sp
 c1006ec:	e92dd800 	push	{fp, ip, lr, pc}
 c1006f0:	e24cb004 	sub	fp, ip, #4
	while (keypad_scan() == KEYPAD_FAILURE);
 c1006f4:	e1a00000 	nop			; (mov r0, r0)
 c1006f8:	ebfffee9 	bl	c1002a4 <keypad_scan>
 c1006fc:	e1a03000 	mov	r3, r0
 c100700:	e35300ff 	cmp	r3, #255	; 0xff
 c100704:	0afffffb 	beq	c1006f8 <keypad_wait_any_keydown+0x10>
}
 c100708:	e24bd00c 	sub	sp, fp, #12
 c10070c:	e89d6800 	ldm	sp, {fp, sp, lr}
 c100710:	e12fff1e 	bx	lr

0c100714 <keypad_wait_any_keyup>:

void keypad_wait_any_keyup( void )
{
 c100714:	e1a0c00d 	mov	ip, sp
 c100718:	e92dd800 	push	{fp, ip, lr, pc}
 c10071c:	e24cb004 	sub	fp, ip, #4
	while(PDATG & (1<<1)) ;
 c100720:	e1a00000 	nop			; (mov r0, r0)
 c100724:	e59f3040 	ldr	r3, [pc, #64]	; c10076c <keypad_wait_any_keyup+0x58>
 c100728:	e5933000 	ldr	r3, [r3]
 c10072c:	e2033002 	and	r3, r3, #2
 c100730:	e3530000 	cmp	r3, #0
 c100734:	1afffffa 	bne	c100724 <keypad_wait_any_keyup+0x10>
	sw_delay_ms(KEYPAD_KEYDOWN_DELAY);
 c100738:	e3a0001e 	mov	r0, #30
 c10073c:	eb000567 	bl	c101ce0 <sw_delay_ms>

	while(!(PDATG & (1<<1))) ;
 c100740:	e1a00000 	nop			; (mov r0, r0)
 c100744:	e59f3020 	ldr	r3, [pc, #32]	; c10076c <keypad_wait_any_keyup+0x58>
 c100748:	e5933000 	ldr	r3, [r3]
 c10074c:	e2033002 	and	r3, r3, #2
 c100750:	e3530000 	cmp	r3, #0
 c100754:	0afffffa 	beq	c100744 <keypad_wait_any_keyup+0x30>
	sw_delay_ms(KEYPAD_KEYUP_DELAY);
 c100758:	e3a00064 	mov	r0, #100	; 0x64
 c10075c:	eb00055f 	bl	c101ce0 <sw_delay_ms>

	return ;
}
 c100760:	e24bd00c 	sub	sp, fp, #12
 c100764:	e89d6800 	ldm	sp, {fp, sp, lr}
 c100768:	e12fff1e 	bx	lr
 c10076c:	01d20044 	.word	0x01d20044

0c100770 <keypad_getchar>:

uint8 keypad_getchar( void )
{
 c100770:	e1a0c00d 	mov	ip, sp
 c100774:	e92dd800 	push	{fp, ip, lr, pc}
 c100778:	e24cb004 	sub	fp, ip, #4
 c10077c:	e24dd008 	sub	sp, sp, #8
	uint8 scan;

	while(PDATG & (1<<1));
 c100780:	e1a00000 	nop			; (mov r0, r0)
 c100784:	e59f3054 	ldr	r3, [pc, #84]	; c1007e0 <keypad_getchar+0x70>
 c100788:	e5933000 	ldr	r3, [r3]
 c10078c:	e2033002 	and	r3, r3, #2
 c100790:	e3530000 	cmp	r3, #0
 c100794:	1afffffa 	bne	c100784 <keypad_getchar+0x14>
	sw_delay_ms(KEYPAD_KEYDOWN_DELAY);
 c100798:	e3a0001e 	mov	r0, #30
 c10079c:	eb00054f 	bl	c101ce0 <sw_delay_ms>

	scan = keypad_scan();
 c1007a0:	ebfffebf 	bl	c1002a4 <keypad_scan>
 c1007a4:	e1a03000 	mov	r3, r0
 c1007a8:	e54b300d 	strb	r3, [fp, #-13]
	while(!(PDATG & (1<<1)));
 c1007ac:	e1a00000 	nop			; (mov r0, r0)
 c1007b0:	e59f3028 	ldr	r3, [pc, #40]	; c1007e0 <keypad_getchar+0x70>
 c1007b4:	e5933000 	ldr	r3, [r3]
 c1007b8:	e2033002 	and	r3, r3, #2
 c1007bc:	e3530000 	cmp	r3, #0
 c1007c0:	0afffffa 	beq	c1007b0 <keypad_getchar+0x40>
	sw_delay_ms(KEYPAD_KEYUP_DELAY);
 c1007c4:	e3a00064 	mov	r0, #100	; 0x64
 c1007c8:	eb000544 	bl	c101ce0 <sw_delay_ms>

	return scan;
 c1007cc:	e55b300d 	ldrb	r3, [fp, #-13]
}
 c1007d0:	e1a00003 	mov	r0, r3
 c1007d4:	e24bd00c 	sub	sp, fp, #12
 c1007d8:	e89d6800 	ldm	sp, {fp, sp, lr}
 c1007dc:	e12fff1e 	bx	lr
 c1007e0:	01d20044 	.word	0x01d20044

0c1007e4 <keypad_getchartime>:

uint8 keypad_getchartime( uint16 *ms )
{
 c1007e4:	e1a0c00d 	mov	ip, sp
 c1007e8:	e92dd800 	push	{fp, ip, lr, pc}
 c1007ec:	e24cb004 	sub	fp, ip, #4
 c1007f0:	e24dd010 	sub	sp, sp, #16
 c1007f4:	e50b0018 	str	r0, [fp, #-24]	; 0xffffffe8
	uint8 scan;

	while(PDATG & (1<<1));
 c1007f8:	e1a00000 	nop			; (mov r0, r0)
 c1007fc:	e59f3080 	ldr	r3, [pc, #128]	; c100884 <keypad_getchartime+0xa0>
 c100800:	e5933000 	ldr	r3, [r3]
 c100804:	e2033002 	and	r3, r3, #2
 c100808:	e3530000 	cmp	r3, #0
 c10080c:	1afffffa 	bne	c1007fc <keypad_getchartime+0x18>
	timer3_start();
 c100810:	eb000599 	bl	c101e7c <timer3_start>
	sw_delay_ms(KEYPAD_KEYDOWN_DELAY);
 c100814:	e3a0001e 	mov	r0, #30
 c100818:	eb000530 	bl	c101ce0 <sw_delay_ms>

	scan = keypad_scan();
 c10081c:	ebfffea0 	bl	c1002a4 <keypad_scan>
 c100820:	e1a03000 	mov	r3, r0
 c100824:	e54b300d 	strb	r3, [fp, #-13]
	while(!(PDATG & (1<<1)));
 c100828:	e1a00000 	nop			; (mov r0, r0)
 c10082c:	e59f3050 	ldr	r3, [pc, #80]	; c100884 <keypad_getchartime+0xa0>
 c100830:	e5933000 	ldr	r3, [r3]
 c100834:	e2033002 	and	r3, r3, #2
 c100838:	e3530000 	cmp	r3, #0
 c10083c:	0afffffa 	beq	c10082c <keypad_getchartime+0x48>
	*ms = timer3_stop() / 10;
 c100840:	eb0005b9 	bl	c101f2c <timer3_stop>
 c100844:	e1a03000 	mov	r3, r0
 c100848:	e1a02003 	mov	r2, r3
 c10084c:	e59f3034 	ldr	r3, [pc, #52]	; c100888 <keypad_getchartime+0xa4>
 c100850:	e0831392 	umull	r1, r3, r2, r3
 c100854:	e1a031a3 	lsr	r3, r3, #3
 c100858:	e1a03803 	lsl	r3, r3, #16
 c10085c:	e1a02823 	lsr	r2, r3, #16
 c100860:	e51b3018 	ldr	r3, [fp, #-24]	; 0xffffffe8
 c100864:	e1c320b0 	strh	r2, [r3]
	sw_delay_ms(KEYPAD_KEYUP_DELAY);
 c100868:	e3a00064 	mov	r0, #100	; 0x64
 c10086c:	eb00051b 	bl	c101ce0 <sw_delay_ms>

	return scan;
 c100870:	e55b300d 	ldrb	r3, [fp, #-13]
}
 c100874:	e1a00003 	mov	r0, r3
 c100878:	e24bd00c 	sub	sp, fp, #12
 c10087c:	e89d6800 	ldm	sp, {fp, sp, lr}
 c100880:	e12fff1e 	bx	lr
 c100884:	01d20044 	.word	0x01d20044
 c100888:	cccccccd 	.word	0xcccccccd

0c10088c <keypad_timeout_getchar>:

uint8 keypad_timeout_getchar( uint16 ms )
{
 c10088c:	e1a0c00d 	mov	ip, sp
 c100890:	e92dd800 	push	{fp, ip, lr, pc}
 c100894:	e24cb004 	sub	fp, ip, #4
 c100898:	e24dd010 	sub	sp, sp, #16
 c10089c:	e1a03000 	mov	r3, r0
 c1008a0:	e14b31b6 	strh	r3, [fp, #-22]	; 0xffffffea
	uint8 scan;

	if(ms < 6554){
 c1008a4:	e15b21b6 	ldrh	r2, [fp, #-22]	; 0xffffffea
 c1008a8:	e59f3088 	ldr	r3, [pc, #136]	; c100938 <keypad_timeout_getchar+0xac>
 c1008ac:	e1520003 	cmp	r2, r3
 c1008b0:	8a00001b 	bhi	c100924 <keypad_timeout_getchar+0x98>

		timer3_start_timeout(ms);
 c1008b4:	e15b31b6 	ldrh	r3, [fp, #-22]	; 0xffffffea
 c1008b8:	e1a00003 	mov	r0, r3
 c1008bc:	eb0005af 	bl	c101f80 <timer3_start_timeout>
		while(timer3_timeout()!=0){
 c1008c0:	ea000013 	b	c100914 <keypad_timeout_getchar+0x88>

			if(PDATG & (1<<1)){
 c1008c4:	e59f3070 	ldr	r3, [pc, #112]	; c10093c <keypad_timeout_getchar+0xb0>
 c1008c8:	e5933000 	ldr	r3, [r3]
 c1008cc:	e2033002 	and	r3, r3, #2
 c1008d0:	e3530000 	cmp	r3, #0
 c1008d4:	0a00000e 	beq	c100914 <keypad_timeout_getchar+0x88>
				sw_delay_ms(KEYPAD_KEYDOWN_DELAY);
 c1008d8:	e3a0001e 	mov	r0, #30
 c1008dc:	eb0004ff 	bl	c101ce0 <sw_delay_ms>
				scan = keypad_scan();
 c1008e0:	ebfffe6f 	bl	c1002a4 <keypad_scan>
 c1008e4:	e1a03000 	mov	r3, r0
 c1008e8:	e54b300d 	strb	r3, [fp, #-13]
				while(!(PDATG & (1<<1)));
 c1008ec:	e1a00000 	nop			; (mov r0, r0)
 c1008f0:	e59f3044 	ldr	r3, [pc, #68]	; c10093c <keypad_timeout_getchar+0xb0>
 c1008f4:	e5933000 	ldr	r3, [r3]
 c1008f8:	e2033002 	and	r3, r3, #2
 c1008fc:	e3530000 	cmp	r3, #0
 c100900:	0afffffa 	beq	c1008f0 <keypad_timeout_getchar+0x64>
				sw_delay_ms(KEYPAD_KEYUP_DELAY);
 c100904:	e3a00064 	mov	r0, #100	; 0x64
 c100908:	eb0004f4 	bl	c101ce0 <sw_delay_ms>

				return scan;
 c10090c:	e55b300d 	ldrb	r3, [fp, #-13]
 c100910:	ea000004 	b	c100928 <keypad_timeout_getchar+0x9c>
	uint8 scan;

	if(ms < 6554){

		timer3_start_timeout(ms);
		while(timer3_timeout()!=0){
 c100914:	eb0005c7 	bl	c102038 <timer3_timeout>
 c100918:	e1a03000 	mov	r3, r0
 c10091c:	e3530000 	cmp	r3, #0
 c100920:	1affffe7 	bne	c1008c4 <keypad_timeout_getchar+0x38>

				return scan;
			}
		}
	}
	return KEYPAD_TIMEOUT;
 c100924:	e3a030fe 	mov	r3, #254	; 0xfe
}
 c100928:	e1a00003 	mov	r0, r3
 c10092c:	e24bd00c 	sub	sp, fp, #12
 c100930:	e89d6800 	ldm	sp, {fp, sp, lr}
 c100934:	e12fff1e 	bx	lr
 c100938:	00001999 	.word	0x00001999
 c10093c:	01d20044 	.word	0x01d20044

0c100940 <pbs_init>:
#include <timers.h>

extern void isr_PB_dummy( void );

void pbs_init( void )
{
 c100940:	e1a0c00d 	mov	ip, sp
 c100944:	e92dd800 	push	{fp, ip, lr, pc}
 c100948:	e24cb004 	sub	fp, ip, #4
    timers_init();
 c10094c:	eb00043a 	bl	c101a3c <timers_init>
}
 c100950:	e24bd00c 	sub	sp, fp, #12
 c100954:	e89d6800 	ldm	sp, {fp, sp, lr}
 c100958:	e12fff1e 	bx	lr

0c10095c <pb_scan>:

uint8 pb_scan( void )
{
 c10095c:	e1a0c00d 	mov	ip, sp
 c100960:	e92dd800 	push	{fp, ip, lr, pc}
 c100964:	e24cb004 	sub	fp, ip, #4
    if((PDATG & PB_LEFT) == 0)
 c100968:	e59f3044 	ldr	r3, [pc, #68]	; c1009b4 <pb_scan+0x58>
 c10096c:	e5933000 	ldr	r3, [r3]
 c100970:	e2033040 	and	r3, r3, #64	; 0x40
 c100974:	e3530000 	cmp	r3, #0
 c100978:	1a000001 	bne	c100984 <pb_scan+0x28>
        return PB_LEFT;
 c10097c:	e3a03040 	mov	r3, #64	; 0x40
 c100980:	ea000007 	b	c1009a4 <pb_scan+0x48>
    else if((PDATG & PB_RIGHT)  == 0)
 c100984:	e59f3028 	ldr	r3, [pc, #40]	; c1009b4 <pb_scan+0x58>
 c100988:	e5933000 	ldr	r3, [r3]
 c10098c:	e2033080 	and	r3, r3, #128	; 0x80
 c100990:	e3530000 	cmp	r3, #0
 c100994:	1a000001 	bne	c1009a0 <pb_scan+0x44>
        return PB_RIGHT;
 c100998:	e3a03080 	mov	r3, #128	; 0x80
 c10099c:	ea000000 	b	c1009a4 <pb_scan+0x48>
    else
        return PB_FAILURE;
 c1009a0:	e3a030ff 	mov	r3, #255	; 0xff
}
 c1009a4:	e1a00003 	mov	r0, r3
 c1009a8:	e24bd00c 	sub	sp, fp, #12
 c1009ac:	e89d6800 	ldm	sp, {fp, sp, lr}
 c1009b0:	e12fff1e 	bx	lr
 c1009b4:	01d20044 	.word	0x01d20044

0c1009b8 <pb_status>:

uint8 pb_status( uint8 scancode )
{
 c1009b8:	e1a0c00d 	mov	ip, sp
 c1009bc:	e92dd800 	push	{fp, ip, lr, pc}
 c1009c0:	e24cb004 	sub	fp, ip, #4
 c1009c4:	e24dd008 	sub	sp, sp, #8
 c1009c8:	e1a03000 	mov	r3, r0
 c1009cc:	e54b300d 	strb	r3, [fp, #-13]
	if (scancode == PB_LEFT) {
 c1009d0:	e55b300d 	ldrb	r3, [fp, #-13]
 c1009d4:	e3530040 	cmp	r3, #64	; 0x40
 c1009d8:	1a000007 	bne	c1009fc <pb_status+0x44>
		if ((pb_scan() == PB_LEFT))return PB_DOWN;
 c1009dc:	ebffffde 	bl	c10095c <pb_scan>
 c1009e0:	e1a03000 	mov	r3, r0
 c1009e4:	e3530040 	cmp	r3, #64	; 0x40
 c1009e8:	1a000001 	bne	c1009f4 <pb_status+0x3c>
 c1009ec:	e3a03001 	mov	r3, #1
 c1009f0:	ea00000d 	b	c100a2c <pb_status+0x74>
		else return PB_UP;
 c1009f4:	e3a03000 	mov	r3, #0
 c1009f8:	ea00000b 	b	c100a2c <pb_status+0x74>
	} else if (scancode == PB_RIGHT) {
 c1009fc:	e55b300d 	ldrb	r3, [fp, #-13]
 c100a00:	e3530080 	cmp	r3, #128	; 0x80
 c100a04:	1a000007 	bne	c100a28 <pb_status+0x70>
		if (pb_scan() == PB_RIGHT)return PB_DOWN;
 c100a08:	ebffffd3 	bl	c10095c <pb_scan>
 c100a0c:	e1a03000 	mov	r3, r0
 c100a10:	e3530080 	cmp	r3, #128	; 0x80
 c100a14:	1a000001 	bne	c100a20 <pb_status+0x68>
 c100a18:	e3a03001 	mov	r3, #1
 c100a1c:	ea000002 	b	c100a2c <pb_status+0x74>
		else return PB_UP;
 c100a20:	e3a03000 	mov	r3, #0
 c100a24:	ea000000 	b	c100a2c <pb_status+0x74>
	}
	else return PB_FAILURE;
 c100a28:	e3a030ff 	mov	r3, #255	; 0xff
}
 c100a2c:	e1a00003 	mov	r0, r3
 c100a30:	e24bd00c 	sub	sp, fp, #12
 c100a34:	e89d6800 	ldm	sp, {fp, sp, lr}
 c100a38:	e12fff1e 	bx	lr

0c100a3c <pb_wait_keydown>:

void pb_wait_keydown( uint8 scancode )
{
 c100a3c:	e1a0c00d 	mov	ip, sp
 c100a40:	e92dd800 	push	{fp, ip, lr, pc}
 c100a44:	e24cb004 	sub	fp, ip, #4
 c100a48:	e24dd008 	sub	sp, sp, #8
 c100a4c:	e1a03000 	mov	r3, r0
 c100a50:	e54b300d 	strb	r3, [fp, #-13]
	if (scancode == PB_LEFT) while (PDATG & PB_LEFT);
 c100a54:	e55b300d 	ldrb	r3, [fp, #-13]
 c100a58:	e3530040 	cmp	r3, #64	; 0x40
 c100a5c:	1a000006 	bne	c100a7c <pb_wait_keydown+0x40>
 c100a60:	e1a00000 	nop			; (mov r0, r0)
 c100a64:	e59f3034 	ldr	r3, [pc, #52]	; c100aa0 <pb_wait_keydown+0x64>
 c100a68:	e5933000 	ldr	r3, [r3]
 c100a6c:	e2033040 	and	r3, r3, #64	; 0x40
 c100a70:	e3530000 	cmp	r3, #0
 c100a74:	1afffffa 	bne	c100a64 <pb_wait_keydown+0x28>
 c100a78:	ea000005 	b	c100a94 <pb_wait_keydown+0x58>
	else while (PDATG & PB_RIGHT);
 c100a7c:	e1a00000 	nop			; (mov r0, r0)
 c100a80:	e59f3018 	ldr	r3, [pc, #24]	; c100aa0 <pb_wait_keydown+0x64>
 c100a84:	e5933000 	ldr	r3, [r3]
 c100a88:	e2033080 	and	r3, r3, #128	; 0x80
 c100a8c:	e3530000 	cmp	r3, #0
 c100a90:	1afffffa 	bne	c100a80 <pb_wait_keydown+0x44>

}
 c100a94:	e24bd00c 	sub	sp, fp, #12
 c100a98:	e89d6800 	ldm	sp, {fp, sp, lr}
 c100a9c:	e12fff1e 	bx	lr
 c100aa0:	01d20044 	.word	0x01d20044

0c100aa4 <pb_wait_keyup>:

void pb_wait_keyup( uint8 scancode )
{
 c100aa4:	e1a0c00d 	mov	ip, sp
 c100aa8:	e92dd800 	push	{fp, ip, lr, pc}
 c100aac:	e24cb004 	sub	fp, ip, #4
 c100ab0:	e24dd008 	sub	sp, sp, #8
 c100ab4:	e1a03000 	mov	r3, r0
 c100ab8:	e54b300d 	strb	r3, [fp, #-13]
	if (scancode == PB_LEFT) {
 c100abc:	e55b300d 	ldrb	r3, [fp, #-13]
 c100ac0:	e3530040 	cmp	r3, #64	; 0x40
 c100ac4:	1a00000e 	bne	c100b04 <pb_wait_keyup+0x60>
		while ((PDATG & PB_LEFT));
 c100ac8:	e1a00000 	nop			; (mov r0, r0)
 c100acc:	e59f3074 	ldr	r3, [pc, #116]	; c100b48 <pb_wait_keyup+0xa4>
 c100ad0:	e5933000 	ldr	r3, [r3]
 c100ad4:	e2033040 	and	r3, r3, #64	; 0x40
 c100ad8:	e3530000 	cmp	r3, #0
 c100adc:	1afffffa 	bne	c100acc <pb_wait_keyup+0x28>
		sw_delay_ms(PB_KEYDOWN_DELAY);
 c100ae0:	e3a0001e 	mov	r0, #30
 c100ae4:	eb00047d 	bl	c101ce0 <sw_delay_ms>
		while (!(PDATG & PB_LEFT));
 c100ae8:	e1a00000 	nop			; (mov r0, r0)
 c100aec:	e59f3054 	ldr	r3, [pc, #84]	; c100b48 <pb_wait_keyup+0xa4>
 c100af0:	e5933000 	ldr	r3, [r3]
 c100af4:	e2033040 	and	r3, r3, #64	; 0x40
 c100af8:	e3530000 	cmp	r3, #0
 c100afc:	0afffffa 	beq	c100aec <pb_wait_keyup+0x48>
 c100b00:	ea00000d 	b	c100b3c <pb_wait_keyup+0x98>
	} else {
		while ((PDATG & PB_RIGHT));
 c100b04:	e1a00000 	nop			; (mov r0, r0)
 c100b08:	e59f3038 	ldr	r3, [pc, #56]	; c100b48 <pb_wait_keyup+0xa4>
 c100b0c:	e5933000 	ldr	r3, [r3]
 c100b10:	e2033080 	and	r3, r3, #128	; 0x80
 c100b14:	e3530000 	cmp	r3, #0
 c100b18:	1afffffa 	bne	c100b08 <pb_wait_keyup+0x64>
		sw_delay_ms(PB_KEYDOWN_DELAY);
 c100b1c:	e3a0001e 	mov	r0, #30
 c100b20:	eb00046e 	bl	c101ce0 <sw_delay_ms>
		while (!(PDATG & PB_RIGHT));
 c100b24:	e1a00000 	nop			; (mov r0, r0)
 c100b28:	e59f3018 	ldr	r3, [pc, #24]	; c100b48 <pb_wait_keyup+0xa4>
 c100b2c:	e5933000 	ldr	r3, [r3]
 c100b30:	e2033080 	and	r3, r3, #128	; 0x80
 c100b34:	e3530000 	cmp	r3, #0
 c100b38:	0afffffa 	beq	c100b28 <pb_wait_keyup+0x84>
	}
}
 c100b3c:	e24bd00c 	sub	sp, fp, #12
 c100b40:	e89d6800 	ldm	sp, {fp, sp, lr}
 c100b44:	e12fff1e 	bx	lr
 c100b48:	01d20044 	.word	0x01d20044

0c100b4c <pb_wait_any_keydown>:

void pb_wait_any_keydown( void )
{
 c100b4c:	e1a0c00d 	mov	ip, sp
 c100b50:	e92dd800 	push	{fp, ip, lr, pc}
 c100b54:	e24cb004 	sub	fp, ip, #4
	while ((PDATG & PB_LEFT)|| (PDATG & PB_RIGHT));
 c100b58:	e1a00000 	nop			; (mov r0, r0)
 c100b5c:	e59f302c 	ldr	r3, [pc, #44]	; c100b90 <pb_wait_any_keydown+0x44>
 c100b60:	e5933000 	ldr	r3, [r3]
 c100b64:	e2033040 	and	r3, r3, #64	; 0x40
 c100b68:	e3530000 	cmp	r3, #0
 c100b6c:	1afffffa 	bne	c100b5c <pb_wait_any_keydown+0x10>
 c100b70:	e59f3018 	ldr	r3, [pc, #24]	; c100b90 <pb_wait_any_keydown+0x44>
 c100b74:	e5933000 	ldr	r3, [r3]
 c100b78:	e2033080 	and	r3, r3, #128	; 0x80
 c100b7c:	e3530000 	cmp	r3, #0
 c100b80:	1afffff5 	bne	c100b5c <pb_wait_any_keydown+0x10>
}
 c100b84:	e24bd00c 	sub	sp, fp, #12
 c100b88:	e89d6800 	ldm	sp, {fp, sp, lr}
 c100b8c:	e12fff1e 	bx	lr
 c100b90:	01d20044 	.word	0x01d20044

0c100b94 <pb_wait_any_keyup>:

void pb_wait_any_keyup( void )
{
 c100b94:	e1a0c00d 	mov	ip, sp
 c100b98:	e92dd800 	push	{fp, ip, lr, pc}
 c100b9c:	e24cb004 	sub	fp, ip, #4
	while ((PDATG & PB_LEFT)|| (PDATG & PB_RIGHT));
 c100ba0:	e1a00000 	nop			; (mov r0, r0)
 c100ba4:	e59f3060 	ldr	r3, [pc, #96]	; c100c0c <pb_wait_any_keyup+0x78>
 c100ba8:	e5933000 	ldr	r3, [r3]
 c100bac:	e2033040 	and	r3, r3, #64	; 0x40
 c100bb0:	e3530000 	cmp	r3, #0
 c100bb4:	1afffffa 	bne	c100ba4 <pb_wait_any_keyup+0x10>
 c100bb8:	e59f304c 	ldr	r3, [pc, #76]	; c100c0c <pb_wait_any_keyup+0x78>
 c100bbc:	e5933000 	ldr	r3, [r3]
 c100bc0:	e2033080 	and	r3, r3, #128	; 0x80
 c100bc4:	e3530000 	cmp	r3, #0
 c100bc8:	1afffff5 	bne	c100ba4 <pb_wait_any_keyup+0x10>
	sw_delay_ms(PB_KEYDOWN_DELAY);
 c100bcc:	e3a0001e 	mov	r0, #30
 c100bd0:	eb000442 	bl	c101ce0 <sw_delay_ms>

	while(!(PDATG & PB_LEFT) && !(PDATG & PB_RIGHT));
 c100bd4:	e1a00000 	nop			; (mov r0, r0)
 c100bd8:	e59f302c 	ldr	r3, [pc, #44]	; c100c0c <pb_wait_any_keyup+0x78>
 c100bdc:	e5933000 	ldr	r3, [r3]
 c100be0:	e2033040 	and	r3, r3, #64	; 0x40
 c100be4:	e3530000 	cmp	r3, #0
 c100be8:	1a000004 	bne	c100c00 <pb_wait_any_keyup+0x6c>
 c100bec:	e59f3018 	ldr	r3, [pc, #24]	; c100c0c <pb_wait_any_keyup+0x78>
 c100bf0:	e5933000 	ldr	r3, [r3]
 c100bf4:	e2033080 	and	r3, r3, #128	; 0x80
 c100bf8:	e3530000 	cmp	r3, #0
 c100bfc:	0afffff5 	beq	c100bd8 <pb_wait_any_keyup+0x44>
}
 c100c00:	e24bd00c 	sub	sp, fp, #12
 c100c04:	e89d6800 	ldm	sp, {fp, sp, lr}
 c100c08:	e12fff1e 	bx	lr
 c100c0c:	01d20044 	.word	0x01d20044

0c100c10 <pb_getchar>:

uint8 pb_getchar( void )
{
 c100c10:	e1a0c00d 	mov	ip, sp
 c100c14:	e92dd800 	push	{fp, ip, lr, pc}
 c100c18:	e24cb004 	sub	fp, ip, #4
 c100c1c:	e24dd008 	sub	sp, sp, #8
	uint8 scancode;

	while ((PDATG & PB_LEFT)|| (PDATG & PB_RIGHT));
 c100c20:	e1a00000 	nop			; (mov r0, r0)
 c100c24:	e59f307c 	ldr	r3, [pc, #124]	; c100ca8 <pb_getchar+0x98>
 c100c28:	e5933000 	ldr	r3, [r3]
 c100c2c:	e2033040 	and	r3, r3, #64	; 0x40
 c100c30:	e3530000 	cmp	r3, #0
 c100c34:	1afffffa 	bne	c100c24 <pb_getchar+0x14>
 c100c38:	e59f3068 	ldr	r3, [pc, #104]	; c100ca8 <pb_getchar+0x98>
 c100c3c:	e5933000 	ldr	r3, [r3]
 c100c40:	e2033080 	and	r3, r3, #128	; 0x80
 c100c44:	e3530000 	cmp	r3, #0
 c100c48:	1afffff5 	bne	c100c24 <pb_getchar+0x14>
	sw_delay_ms(PB_KEYDOWN_DELAY);
 c100c4c:	e3a0001e 	mov	r0, #30
 c100c50:	eb000422 	bl	c101ce0 <sw_delay_ms>

	scancode = pb_scan();
 c100c54:	ebffff40 	bl	c10095c <pb_scan>
 c100c58:	e1a03000 	mov	r3, r0
 c100c5c:	e54b300d 	strb	r3, [fp, #-13]
	while (!(PDATG & PB_LEFT)|| !(PDATG & PB_RIGHT));
 c100c60:	e1a00000 	nop			; (mov r0, r0)
 c100c64:	e59f303c 	ldr	r3, [pc, #60]	; c100ca8 <pb_getchar+0x98>
 c100c68:	e5933000 	ldr	r3, [r3]
 c100c6c:	e2033040 	and	r3, r3, #64	; 0x40
 c100c70:	e3530000 	cmp	r3, #0
 c100c74:	0afffffa 	beq	c100c64 <pb_getchar+0x54>
 c100c78:	e59f3028 	ldr	r3, [pc, #40]	; c100ca8 <pb_getchar+0x98>
 c100c7c:	e5933000 	ldr	r3, [r3]
 c100c80:	e2033080 	and	r3, r3, #128	; 0x80
 c100c84:	e3530000 	cmp	r3, #0
 c100c88:	0afffff5 	beq	c100c64 <pb_getchar+0x54>
	sw_delay_ms(PB_KEYUP_DELAY);
 c100c8c:	e3a00064 	mov	r0, #100	; 0x64
 c100c90:	eb000412 	bl	c101ce0 <sw_delay_ms>

	return scancode;
 c100c94:	e55b300d 	ldrb	r3, [fp, #-13]
}
 c100c98:	e1a00003 	mov	r0, r3
 c100c9c:	e24bd00c 	sub	sp, fp, #12
 c100ca0:	e89d6800 	ldm	sp, {fp, sp, lr}
 c100ca4:	e12fff1e 	bx	lr
 c100ca8:	01d20044 	.word	0x01d20044

0c100cac <pb_getchartime>:

uint8 pb_getchartime( uint16 *ms )
{
 c100cac:	e1a0c00d 	mov	ip, sp
 c100cb0:	e92dd800 	push	{fp, ip, lr, pc}
 c100cb4:	e24cb004 	sub	fp, ip, #4
 c100cb8:	e24dd010 	sub	sp, sp, #16
 c100cbc:	e50b0018 	str	r0, [fp, #-24]	; 0xffffffe8
    uint8 scancode;
    
    while ( (PDATG & 0xc0) == 0xc0 );
 c100cc0:	e1a00000 	nop			; (mov r0, r0)
 c100cc4:	e59f3094 	ldr	r3, [pc, #148]	; c100d60 <pb_getchartime+0xb4>
 c100cc8:	e5933000 	ldr	r3, [r3]
 c100ccc:	e20330c0 	and	r3, r3, #192	; 0xc0
 c100cd0:	e35300c0 	cmp	r3, #192	; 0xc0
 c100cd4:	0afffffa 	beq	c100cc4 <pb_getchartime+0x18>
    timer3_start();
 c100cd8:	eb000467 	bl	c101e7c <timer3_start>
    sw_delay_ms( PB_KEYDOWN_DELAY );
 c100cdc:	e3a0001e 	mov	r0, #30
 c100ce0:	eb0003fe 	bl	c101ce0 <sw_delay_ms>
    
    scancode = pb_scan();
 c100ce4:	ebffff1c 	bl	c10095c <pb_scan>
 c100ce8:	e1a03000 	mov	r3, r0
 c100cec:	e54b300d 	strb	r3, [fp, #-13]
    
    while (!(PDATG & PB_LEFT) || !(PDATG & PB_RIGHT));
 c100cf0:	e1a00000 	nop			; (mov r0, r0)
 c100cf4:	e59f3064 	ldr	r3, [pc, #100]	; c100d60 <pb_getchartime+0xb4>
 c100cf8:	e5933000 	ldr	r3, [r3]
 c100cfc:	e2033040 	and	r3, r3, #64	; 0x40
 c100d00:	e3530000 	cmp	r3, #0
 c100d04:	0afffffa 	beq	c100cf4 <pb_getchartime+0x48>
 c100d08:	e59f3050 	ldr	r3, [pc, #80]	; c100d60 <pb_getchartime+0xb4>
 c100d0c:	e5933000 	ldr	r3, [r3]
 c100d10:	e2033080 	and	r3, r3, #128	; 0x80
 c100d14:	e3530000 	cmp	r3, #0
 c100d18:	0afffff5 	beq	c100cf4 <pb_getchartime+0x48>
    *ms = timer3_stop() / 10;
 c100d1c:	eb000482 	bl	c101f2c <timer3_stop>
 c100d20:	e1a03000 	mov	r3, r0
 c100d24:	e1a02003 	mov	r2, r3
 c100d28:	e59f3034 	ldr	r3, [pc, #52]	; c100d64 <pb_getchartime+0xb8>
 c100d2c:	e0831392 	umull	r1, r3, r2, r3
 c100d30:	e1a031a3 	lsr	r3, r3, #3
 c100d34:	e1a03803 	lsl	r3, r3, #16
 c100d38:	e1a02823 	lsr	r2, r3, #16
 c100d3c:	e51b3018 	ldr	r3, [fp, #-24]	; 0xffffffe8
 c100d40:	e1c320b0 	strh	r2, [r3]
    sw_delay_ms( PB_KEYUP_DELAY );
 c100d44:	e3a00064 	mov	r0, #100	; 0x64
 c100d48:	eb0003e4 	bl	c101ce0 <sw_delay_ms>

    return scancode;
 c100d4c:	e55b300d 	ldrb	r3, [fp, #-13]
}
 c100d50:	e1a00003 	mov	r0, r3
 c100d54:	e24bd00c 	sub	sp, fp, #12
 c100d58:	e89d6800 	ldm	sp, {fp, sp, lr}
 c100d5c:	e12fff1e 	bx	lr
 c100d60:	01d20044 	.word	0x01d20044
 c100d64:	cccccccd 	.word	0xcccccccd

0c100d68 <pb_timeout_getchar>:

uint8 pb_timeout_getchar( uint16 ms )
{
 c100d68:	e1a0c00d 	mov	ip, sp
 c100d6c:	e92dd800 	push	{fp, ip, lr, pc}
 c100d70:	e24cb004 	sub	fp, ip, #4
 c100d74:	e24dd010 	sub	sp, sp, #16
 c100d78:	e1a03000 	mov	r3, r0
 c100d7c:	e14b31b6 	strh	r3, [fp, #-22]	; 0xffffffea
	uint8 scancode;

	if(ms < 6554){
 c100d80:	e15b21b6 	ldrh	r2, [fp, #-22]	; 0xffffffea
 c100d84:	e59f30c8 	ldr	r3, [pc, #200]	; c100e54 <pb_timeout_getchar+0xec>
 c100d88:	e1520003 	cmp	r2, r3
 c100d8c:	8a00002b 	bhi	c100e40 <pb_timeout_getchar+0xd8>

		timer3_start_timeout(ms);
 c100d90:	e15b31b6 	ldrh	r3, [fp, #-22]	; 0xffffffea
 c100d94:	e1a00003 	mov	r0, r3
 c100d98:	eb000478 	bl	c101f80 <timer3_start_timeout>
		while((PDATG & PB_LEFT)|| (PDATG & PB_RIGHT) || (timer3_timeout()!= 0));
 c100d9c:	e1a00000 	nop			; (mov r0, r0)
 c100da0:	e59f30b0 	ldr	r3, [pc, #176]	; c100e58 <pb_timeout_getchar+0xf0>
 c100da4:	e5933000 	ldr	r3, [r3]
 c100da8:	e2033040 	and	r3, r3, #64	; 0x40
 c100dac:	e3530000 	cmp	r3, #0
 c100db0:	1afffffa 	bne	c100da0 <pb_timeout_getchar+0x38>
 c100db4:	e59f309c 	ldr	r3, [pc, #156]	; c100e58 <pb_timeout_getchar+0xf0>
 c100db8:	e5933000 	ldr	r3, [r3]
 c100dbc:	e2033080 	and	r3, r3, #128	; 0x80
 c100dc0:	e3530000 	cmp	r3, #0
 c100dc4:	1afffff5 	bne	c100da0 <pb_timeout_getchar+0x38>
 c100dc8:	eb00049a 	bl	c102038 <timer3_timeout>
 c100dcc:	e1a03000 	mov	r3, r0
 c100dd0:	e3530000 	cmp	r3, #0
 c100dd4:	1afffff1 	bne	c100da0 <pb_timeout_getchar+0x38>

		if (timer3_timeout()!= 0)return PB_FAILURE;
 c100dd8:	eb000496 	bl	c102038 <timer3_timeout>
 c100ddc:	e1a03000 	mov	r3, r0
 c100de0:	e3530000 	cmp	r3, #0
 c100de4:	0a000001 	beq	c100df0 <pb_timeout_getchar+0x88>
 c100de8:	e3a030ff 	mov	r3, #255	; 0xff
 c100dec:	ea000014 	b	c100e44 <pb_timeout_getchar+0xdc>
		else{
			sw_delay_ms(PB_KEYDOWN_DELAY);
 c100df0:	e3a0001e 	mov	r0, #30
 c100df4:	eb0003b9 	bl	c101ce0 <sw_delay_ms>
			scancode = pb_scan();
 c100df8:	ebfffed7 	bl	c10095c <pb_scan>
 c100dfc:	e1a03000 	mov	r3, r0
 c100e00:	e54b300d 	strb	r3, [fp, #-13]

			while (!(PDATG & PB_LEFT) || !(PDATG & PB_RIGHT));
 c100e04:	e1a00000 	nop			; (mov r0, r0)
 c100e08:	e59f3048 	ldr	r3, [pc, #72]	; c100e58 <pb_timeout_getchar+0xf0>
 c100e0c:	e5933000 	ldr	r3, [r3]
 c100e10:	e2033040 	and	r3, r3, #64	; 0x40
 c100e14:	e3530000 	cmp	r3, #0
 c100e18:	0afffffa 	beq	c100e08 <pb_timeout_getchar+0xa0>
 c100e1c:	e59f3034 	ldr	r3, [pc, #52]	; c100e58 <pb_timeout_getchar+0xf0>
 c100e20:	e5933000 	ldr	r3, [r3]
 c100e24:	e2033080 	and	r3, r3, #128	; 0x80
 c100e28:	e3530000 	cmp	r3, #0
 c100e2c:	0afffff5 	beq	c100e08 <pb_timeout_getchar+0xa0>
			sw_delay_ms(PB_KEYUP_DELAY);
 c100e30:	e3a00064 	mov	r0, #100	; 0x64
 c100e34:	eb0003a9 	bl	c101ce0 <sw_delay_ms>

			return scancode;
 c100e38:	e55b300d 	ldrb	r3, [fp, #-13]
 c100e3c:	ea000000 	b	c100e44 <pb_timeout_getchar+0xdc>
		}
	}

	return PB_FAILURE;
 c100e40:	e3a030ff 	mov	r3, #255	; 0xff
}
 c100e44:	e1a00003 	mov	r0, r3
 c100e48:	e24bd00c 	sub	sp, fp, #12
 c100e4c:	e89d6800 	ldm	sp, {fp, sp, lr}
 c100e50:	e12fff1e 	bx	lr
 c100e54:	00001999 	.word	0x00001999
 c100e58:	01d20044 	.word	0x01d20044

0c100e5c <pbs_open>:

void pbs_open( void (*isr)(void) )
{
 c100e5c:	e1a0c00d 	mov	ip, sp
 c100e60:	e92dd800 	push	{fp, ip, lr, pc}
 c100e64:	e24cb004 	sub	fp, ip, #4
 c100e68:	e24dd008 	sub	sp, sp, #8
 c100e6c:	e50b0010 	str	r0, [fp, #-16]
	pISR_PB = (uint32) isr;
 c100e70:	e59f303c 	ldr	r3, [pc, #60]	; c100eb4 <pbs_open+0x58>
 c100e74:	e51b2010 	ldr	r2, [fp, #-16]
 c100e78:	e5832000 	str	r2, [r3]
	EXTINTPND = (BIT_EINT6 | BIT_EINT7);
 c100e7c:	e59f3034 	ldr	r3, [pc, #52]	; c100eb8 <pbs_open+0x5c>
 c100e80:	e3a0200c 	mov	r2, #12
 c100e84:	e5832000 	str	r2, [r3]
	I_ISPC = BIT_EINT4567;
 c100e88:	e59f302c 	ldr	r3, [pc, #44]	; c100ebc <pbs_open+0x60>
 c100e8c:	e3a02602 	mov	r2, #2097152	; 0x200000
 c100e90:	e5832000 	str	r2, [r3]
	INTMSK &= ~(BIT_GLOBAL | (1 << 21));
 c100e94:	e59f3024 	ldr	r3, [pc, #36]	; c100ec0 <pbs_open+0x64>
 c100e98:	e59f2020 	ldr	r2, [pc, #32]	; c100ec0 <pbs_open+0x64>
 c100e9c:	e5922000 	ldr	r2, [r2]
 c100ea0:	e3c22642 	bic	r2, r2, #69206016	; 0x4200000
 c100ea4:	e5832000 	str	r2, [r3]
}
 c100ea8:	e24bd00c 	sub	sp, fp, #12
 c100eac:	e89d6800 	ldm	sp, {fp, sp, lr}
 c100eb0:	e12fff1e 	bx	lr
 c100eb4:	0c7fff74 	.word	0x0c7fff74
 c100eb8:	01d20054 	.word	0x01d20054
 c100ebc:	01e00024 	.word	0x01e00024
 c100ec0:	01e0000c 	.word	0x01e0000c

0c100ec4 <pbs_close>:

void pbs_close( void )
{
 c100ec4:	e1a0c00d 	mov	ip, sp
 c100ec8:	e92dd800 	push	{fp, ip, lr, pc}
 c100ecc:	e24cb004 	sub	fp, ip, #4
	INTMSK |= (1 << 21);
 c100ed0:	e59f3024 	ldr	r3, [pc, #36]	; c100efc <pbs_close+0x38>
 c100ed4:	e59f2020 	ldr	r2, [pc, #32]	; c100efc <pbs_close+0x38>
 c100ed8:	e5922000 	ldr	r2, [r2]
 c100edc:	e3822602 	orr	r2, r2, #2097152	; 0x200000
 c100ee0:	e5832000 	str	r2, [r3]
	pISR_PB = (uint32) isr_PB_dummy;
 c100ee4:	e59f3014 	ldr	r3, [pc, #20]	; c100f00 <pbs_close+0x3c>
 c100ee8:	e59f2014 	ldr	r2, [pc, #20]	; c100f04 <pbs_close+0x40>
 c100eec:	e5832000 	str	r2, [r3]
}
 c100ef0:	e24bd00c 	sub	sp, fp, #12
 c100ef4:	e89d6800 	ldm	sp, {fp, sp, lr}
 c100ef8:	e12fff1e 	bx	lr
 c100efc:	01e0000c 	.word	0x01e0000c
 c100f00:	0c7fff74 	.word	0x0c7fff74
 c100f04:	0c101918 	.word	0x0c101918

0c100f08 <sys_init>:
void isr_TS_dummy( void )        __attribute__ ((interrupt ("IRQ")));
void isr_KEYPAD_dummy( void )    __attribute__ ((interrupt ("IRQ")));
void isr_USB_dummy( void )       __attribute__ ((interrupt ("IRQ")));

void sys_init( void )
{
 c100f08:	e1a0c00d 	mov	ip, sp
 c100f0c:	e92dd800 	push	{fp, ip, lr, pc}
 c100f10:	e24cb004 	sub	fp, ip, #4
    WTCON  = 0;    
 c100f14:	e59f30ec 	ldr	r3, [pc, #236]	; c101008 <sys_init+0x100>
 c100f18:	e3a02000 	mov	r2, #0
 c100f1c:	e5832000 	str	r2, [r3]
    INTMSK = ~0;
 c100f20:	e59f30e4 	ldr	r3, [pc, #228]	; c10100c <sys_init+0x104>
 c100f24:	e3e02000 	mvn	r2, #0
 c100f28:	e5832000 	str	r2, [r3]

    LOCKTIME = 0xFFF;
 c100f2c:	e59f30dc 	ldr	r3, [pc, #220]	; c101010 <sys_init+0x108>
 c100f30:	e59f20dc 	ldr	r2, [pc, #220]	; c101014 <sys_init+0x10c>
 c100f34:	e5832000 	str	r2, [r3]
    PLLCON   = 0x38021;
 c100f38:	e3a03776 	mov	r3, #30932992	; 0x1d80000
 c100f3c:	e59f20d4 	ldr	r2, [pc, #212]	; c101018 <sys_init+0x110>
 c100f40:	e5832000 	str	r2, [r3]
    CLKSLOW  = 0x8;
 c100f44:	e59f30d0 	ldr	r3, [pc, #208]	; c10101c <sys_init+0x114>
 c100f48:	e3a02008 	mov	r2, #8
 c100f4c:	e5832000 	str	r2, [r3]
    CLKCON   = 0x7FF8;
 c100f50:	e59f30c8 	ldr	r3, [pc, #200]	; c101020 <sys_init+0x118>
 c100f54:	e59f20c8 	ldr	r2, [pc, #200]	; c101024 <sys_init+0x11c>
 c100f58:	e5832000 	str	r2, [r3]
    
    SBUSCON = 0x8000001B;
 c100f5c:	e3a03771 	mov	r3, #29622272	; 0x1c40000
 c100f60:	e3a0216e 	mov	r2, #-2147483621	; 0x8000001b
 c100f64:	e5832000 	str	r2, [r3]
    
    SYSCFG = 0xE;
 c100f68:	e3a03507 	mov	r3, #29360128	; 0x1c00000
 c100f6c:	e3a0200e 	mov	r2, #14
 c100f70:	e5832000 	str	r2, [r3]
    
    I_PMST = 0x1F1B;
 c100f74:	e59f30ac 	ldr	r3, [pc, #172]	; c101028 <sys_init+0x120>
 c100f78:	e59f20ac 	ldr	r2, [pc, #172]	; c10102c <sys_init+0x124>
 c100f7c:	e5832000 	str	r2, [r3]
    I_PSLV = 0x1B1B1B1B;
 c100f80:	e59f30a8 	ldr	r3, [pc, #168]	; c101030 <sys_init+0x128>
 c100f84:	e59f20a8 	ldr	r2, [pc, #168]	; c101034 <sys_init+0x12c>
 c100f88:	e5832000 	str	r2, [r3]
    INTMOD = 0x0;
 c100f8c:	e59f30a4 	ldr	r3, [pc, #164]	; c101038 <sys_init+0x130>
 c100f90:	e3a02000 	mov	r2, #0
 c100f94:	e5832000 	str	r2, [r3]
    install_dummy_isr();
 c100f98:	eb00008c 	bl	c1011d0 <install_dummy_isr>
    EXTINTPND = 0;
 c100f9c:	e59f3098 	ldr	r3, [pc, #152]	; c10103c <sys_init+0x134>
 c100fa0:	e3a02000 	mov	r2, #0
 c100fa4:	e5832000 	str	r2, [r3]
    I_ISPC = 0;
 c100fa8:	e59f3090 	ldr	r3, [pc, #144]	; c101040 <sys_init+0x138>
 c100fac:	e3a02000 	mov	r2, #0
 c100fb0:	e5832000 	str	r2, [r3]
    INTCON = 0x1;
 c100fb4:	e3a0361e 	mov	r3, #31457280	; 0x1e00000
 c100fb8:	e3a02001 	mov	r2, #1
 c100fbc:	e5832000 	str	r2, [r3]

    SET_OPMODE( SVCMODE );
 c100fc0:	e10f0000 	mrs	r0, CPSR
 c100fc4:	e3c0001f 	bic	r0, r0, #31
 c100fc8:	e3800013 	orr	r0, r0, #19
 c100fcc:	e121f000 	msr	CPSR_c, r0
    SET_IRQFLAG( 0 );
 c100fd0:	e10f0000 	mrs	r0, CPSR
 c100fd4:	e3c00080 	bic	r0, r0, #128	; 0x80
 c100fd8:	e3800000 	orr	r0, r0, #0
 c100fdc:	e121f000 	msr	CPSR_c, r0
    SET_FIQFLAG( 1 );
 c100fe0:	e10f0000 	mrs	r0, CPSR
 c100fe4:	e3c00040 	bic	r0, r0, #64	; 0x40
 c100fe8:	e3800040 	orr	r0, r0, #64	; 0x40
 c100fec:	e121f000 	msr	CPSR_c, r0

    port_init();
 c100ff0:	eb000013 	bl	c101044 <port_init>
    uart0_init();
 c100ff4:	eb000516 	bl	c102454 <uart0_init>

    show_sys_info();
 c100ff8:	eb00027d 	bl	c1019f4 <show_sys_info>
}
 c100ffc:	e24bd00c 	sub	sp, fp, #12
 c101000:	e89d6800 	ldm	sp, {fp, sp, lr}
 c101004:	e12fff1e 	bx	lr
 c101008:	01d30000 	.word	0x01d30000
 c10100c:	01e0000c 	.word	0x01e0000c
 c101010:	01d8000c 	.word	0x01d8000c
 c101014:	00000fff 	.word	0x00000fff
 c101018:	00038021 	.word	0x00038021
 c10101c:	01d80008 	.word	0x01d80008
 c101020:	01d80004 	.word	0x01d80004
 c101024:	00007ff8 	.word	0x00007ff8
 c101028:	01e00014 	.word	0x01e00014
 c10102c:	00001f1b 	.word	0x00001f1b
 c101030:	01e00010 	.word	0x01e00010
 c101034:	1b1b1b1b 	.word	0x1b1b1b1b
 c101038:	01e00008 	.word	0x01e00008
 c10103c:	01d20054 	.word	0x01d20054
 c101040:	01e00024 	.word	0x01e00024

0c101044 <port_init>:

static void port_init( void )
{
 c101044:	e1a0c00d 	mov	ip, sp
 c101048:	e92dd800 	push	{fp, ip, lr, pc}
 c10104c:	e24cb004 	sub	fp, ip, #4
    PDATA = ~0;
 c101050:	e59f3100 	ldr	r3, [pc, #256]	; c101158 <port_init+0x114>
 c101054:	e3e02000 	mvn	r2, #0
 c101058:	e5832000 	str	r2, [r3]
    PCONA = 0xFE;
 c10105c:	e59f30f8 	ldr	r3, [pc, #248]	; c10115c <port_init+0x118>
 c101060:	e3a020fe 	mov	r2, #254	; 0xfe
 c101064:	e5832000 	str	r2, [r3]

    PDATB = ~0;
 c101068:	e59f30f0 	ldr	r3, [pc, #240]	; c101160 <port_init+0x11c>
 c10106c:	e3e02000 	mvn	r2, #0
 c101070:	e5832000 	str	r2, [r3]
	PCONB = 0x14F;
 c101074:	e59f30e8 	ldr	r3, [pc, #232]	; c101164 <port_init+0x120>
 c101078:	e59f20e8 	ldr	r2, [pc, #232]	; c101168 <port_init+0x124>
 c10107c:	e5832000 	str	r2, [r3]

    PDATC = ~0;
 c101080:	e59f30e4 	ldr	r3, [pc, #228]	; c10116c <port_init+0x128>
 c101084:	e3e02000 	mvn	r2, #0
 c101088:	e5832000 	str	r2, [r3]
    PCONC = 0x5FF555FF;
 c10108c:	e59f30dc 	ldr	r3, [pc, #220]	; c101170 <port_init+0x12c>
 c101090:	e59f20dc 	ldr	r2, [pc, #220]	; c101174 <port_init+0x130>
 c101094:	e5832000 	str	r2, [r3]
    PUPC  = 0x94FB;
 c101098:	e59f30d8 	ldr	r3, [pc, #216]	; c101178 <port_init+0x134>
 c10109c:	e59f20d8 	ldr	r2, [pc, #216]	; c10117c <port_init+0x138>
 c1010a0:	e5832000 	str	r2, [r3]

    PDATD = ~0;
 c1010a4:	e59f30d4 	ldr	r3, [pc, #212]	; c101180 <port_init+0x13c>
 c1010a8:	e3e02000 	mvn	r2, #0
 c1010ac:	e5832000 	str	r2, [r3]
    PCOND = 0xAAAA;
 c1010b0:	e59f30cc 	ldr	r3, [pc, #204]	; c101184 <port_init+0x140>
 c1010b4:	e59f20cc 	ldr	r2, [pc, #204]	; c101188 <port_init+0x144>
 c1010b8:	e5832000 	str	r2, [r3]
    PUPD  = 0xFF;
 c1010bc:	e59f30c8 	ldr	r3, [pc, #200]	; c10118c <port_init+0x148>
 c1010c0:	e3a020ff 	mov	r2, #255	; 0xff
 c1010c4:	e5832000 	str	r2, [r3]

    PDATE = ~0;
 c1010c8:	e59f30c0 	ldr	r3, [pc, #192]	; c101190 <port_init+0x14c>
 c1010cc:	e3e02000 	mvn	r2, #0
 c1010d0:	e5832000 	str	r2, [r3]
    PCONE = 0x255A9;
 c1010d4:	e59f30b8 	ldr	r3, [pc, #184]	; c101194 <port_init+0x150>
 c1010d8:	e59f20b8 	ldr	r2, [pc, #184]	; c101198 <port_init+0x154>
 c1010dc:	e5832000 	str	r2, [r3]
    PUPE  = 0x1FB;
 c1010e0:	e59f30b4 	ldr	r3, [pc, #180]	; c10119c <port_init+0x158>
 c1010e4:	e59f20b4 	ldr	r2, [pc, #180]	; c1011a0 <port_init+0x15c>
 c1010e8:	e5832000 	str	r2, [r3]

    PDATF = ~0;
 c1010ec:	e59f30b0 	ldr	r3, [pc, #176]	; c1011a4 <port_init+0x160>
 c1010f0:	e3e02000 	mvn	r2, #0
 c1010f4:	e5832000 	str	r2, [r3]
    PCONF = 0x251A;
 c1010f8:	e59f30a8 	ldr	r3, [pc, #168]	; c1011a8 <port_init+0x164>
 c1010fc:	e59f20a8 	ldr	r2, [pc, #168]	; c1011ac <port_init+0x168>
 c101100:	e5832000 	str	r2, [r3]
    PUPF  = 0x74;
 c101104:	e59f30a4 	ldr	r3, [pc, #164]	; c1011b0 <port_init+0x16c>
 c101108:	e3a02074 	mov	r2, #116	; 0x74
 c10110c:	e5832000 	str	r2, [r3]

    PDATG = ~0;
 c101110:	e59f309c 	ldr	r3, [pc, #156]	; c1011b4 <port_init+0x170>
 c101114:	e3e02000 	mvn	r2, #0
 c101118:	e5832000 	str	r2, [r3]
    PCONG = 0xF5FF;
 c10111c:	e59f3094 	ldr	r3, [pc, #148]	; c1011b8 <port_init+0x174>
 c101120:	e59f2094 	ldr	r2, [pc, #148]	; c1011bc <port_init+0x178>
 c101124:	e5832000 	str	r2, [r3]
    PUPG  = 0x30;
 c101128:	e59f3090 	ldr	r3, [pc, #144]	; c1011c0 <port_init+0x17c>
 c10112c:	e3a02030 	mov	r2, #48	; 0x30
 c101130:	e5832000 	str	r2, [r3]

    SPUCR = 0x7;
 c101134:	e59f3088 	ldr	r3, [pc, #136]	; c1011c4 <port_init+0x180>
 c101138:	e3a02007 	mov	r2, #7
 c10113c:	e5832000 	str	r2, [r3]

    EXTINT = 0x22000220;
 c101140:	e59f3080 	ldr	r3, [pc, #128]	; c1011c8 <port_init+0x184>
 c101144:	e59f2080 	ldr	r2, [pc, #128]	; c1011cc <port_init+0x188>
 c101148:	e5832000 	str	r2, [r3]
}
 c10114c:	e24bd00c 	sub	sp, fp, #12
 c101150:	e89d6800 	ldm	sp, {fp, sp, lr}
 c101154:	e12fff1e 	bx	lr
 c101158:	01d20004 	.word	0x01d20004
 c10115c:	01d20000 	.word	0x01d20000
 c101160:	01d2000c 	.word	0x01d2000c
 c101164:	01d20008 	.word	0x01d20008
 c101168:	0000014f 	.word	0x0000014f
 c10116c:	01d20014 	.word	0x01d20014
 c101170:	01d20010 	.word	0x01d20010
 c101174:	5ff555ff 	.word	0x5ff555ff
 c101178:	01d20018 	.word	0x01d20018
 c10117c:	000094fb 	.word	0x000094fb
 c101180:	01d20020 	.word	0x01d20020
 c101184:	01d2001c 	.word	0x01d2001c
 c101188:	0000aaaa 	.word	0x0000aaaa
 c10118c:	01d20024 	.word	0x01d20024
 c101190:	01d2002c 	.word	0x01d2002c
 c101194:	01d20028 	.word	0x01d20028
 c101198:	000255a9 	.word	0x000255a9
 c10119c:	01d20030 	.word	0x01d20030
 c1011a0:	000001fb 	.word	0x000001fb
 c1011a4:	01d20038 	.word	0x01d20038
 c1011a8:	01d20034 	.word	0x01d20034
 c1011ac:	0000251a 	.word	0x0000251a
 c1011b0:	01d2003c 	.word	0x01d2003c
 c1011b4:	01d20044 	.word	0x01d20044
 c1011b8:	01d20040 	.word	0x01d20040
 c1011bc:	0000f5ff 	.word	0x0000f5ff
 c1011c0:	01d20048 	.word	0x01d20048
 c1011c4:	01d2004c 	.word	0x01d2004c
 c1011c8:	01d20050 	.word	0x01d20050
 c1011cc:	22000220 	.word	0x22000220

0c1011d0 <install_dummy_isr>:

static void install_dummy_isr( void )
{ 
 c1011d0:	e1a0c00d 	mov	ip, sp
 c1011d4:	e92dd800 	push	{fp, ip, lr, pc}
 c1011d8:	e24cb004 	sub	fp, ip, #4
	 pISR_SWI = 	(uint32)  isr_SWI_dummy;
 c1011dc:	e59f3190 	ldr	r3, [pc, #400]	; c101374 <install_dummy_isr+0x1a4>
 c1011e0:	e59f2190 	ldr	r2, [pc, #400]	; c101378 <install_dummy_isr+0x1a8>
 c1011e4:	e5832000 	str	r2, [r3]
	 pISR_UNDEF = 	(uint32) isr_UNDEF_dummy;
 c1011e8:	e59f318c 	ldr	r3, [pc, #396]	; c10137c <install_dummy_isr+0x1ac>
 c1011ec:	e59f218c 	ldr	r2, [pc, #396]	; c101380 <install_dummy_isr+0x1b0>
 c1011f0:	e5832000 	str	r2, [r3]
	 pISR_IRQ  = 	(uint32) isr_IRQ_dummy ;
 c1011f4:	e59f3188 	ldr	r3, [pc, #392]	; c101384 <install_dummy_isr+0x1b4>
 c1011f8:	e59f2188 	ldr	r2, [pc, #392]	; c101388 <install_dummy_isr+0x1b8>
 c1011fc:	e5832000 	str	r2, [r3]
	 pISR_FIQ = 	(uint32) isr_FIQ_dummy ;
 c101200:	e59f3184 	ldr	r3, [pc, #388]	; c10138c <install_dummy_isr+0x1bc>
 c101204:	e59f2184 	ldr	r2, [pc, #388]	; c101390 <install_dummy_isr+0x1c0>
 c101208:	e5832000 	str	r2, [r3]
	 pISR_PABORT = 	(uint32) isr_PABORT_dummy ;
 c10120c:	e59f3180 	ldr	r3, [pc, #384]	; c101394 <install_dummy_isr+0x1c4>
 c101210:	e59f2180 	ldr	r2, [pc, #384]	; c101398 <install_dummy_isr+0x1c8>
 c101214:	e5832000 	str	r2, [r3]
	 pISR_DABORT  = (uint32) isr_DABORT_dummy ;
 c101218:	e59f317c 	ldr	r3, [pc, #380]	; c10139c <install_dummy_isr+0x1cc>
 c10121c:	e59f217c 	ldr	r2, [pc, #380]	; c1013a0 <install_dummy_isr+0x1d0>
 c101220:	e5832000 	str	r2, [r3]
	 pISR_ADC = 	(uint32) isr_ADC_dummy ;
 c101224:	e59f3178 	ldr	r3, [pc, #376]	; c1013a4 <install_dummy_isr+0x1d4>
 c101228:	e59f2178 	ldr	r2, [pc, #376]	; c1013a8 <install_dummy_isr+0x1d8>
 c10122c:	e5832000 	str	r2, [r3]
	 pISR_RTC = 	(uint32) isr_RTC_dummy ;
 c101230:	e59f3174 	ldr	r3, [pc, #372]	; c1013ac <install_dummy_isr+0x1dc>
 c101234:	e59f2174 	ldr	r2, [pc, #372]	; c1013b0 <install_dummy_isr+0x1e0>
 c101238:	e5832000 	str	r2, [r3]
	 pISR_TICK = 	(uint32) isr_TICK_dummy ;
 c10123c:	e59f3170 	ldr	r3, [pc, #368]	; c1013b4 <install_dummy_isr+0x1e4>
 c101240:	e59f2170 	ldr	r2, [pc, #368]	; c1013b8 <install_dummy_isr+0x1e8>
 c101244:	e5832000 	str	r2, [r3]
	 pISR_USB = 	(uint32) isr_USB_dummy ;
 c101248:	e59f316c 	ldr	r3, [pc, #364]	; c1013bc <install_dummy_isr+0x1ec>
 c10124c:	e59f216c 	ldr	r2, [pc, #364]	; c1013c0 <install_dummy_isr+0x1f0>
 c101250:	e5832000 	str	r2, [r3]
	 pISR_UTXD1 = 	(uint32) isr_UTXD1_dummy ;
 c101254:	e59f3168 	ldr	r3, [pc, #360]	; c1013c4 <install_dummy_isr+0x1f4>
 c101258:	e59f2168 	ldr	r2, [pc, #360]	; c1013c8 <install_dummy_isr+0x1f8>
 c10125c:	e5832000 	str	r2, [r3]
	 pISR_UTXD0 = 	(uint32) isr_UTXD0_dummy ;
 c101260:	e59f3164 	ldr	r3, [pc, #356]	; c1013cc <install_dummy_isr+0x1fc>
 c101264:	e59f2164 	ldr	r2, [pc, #356]	; c1013d0 <install_dummy_isr+0x200>
 c101268:	e5832000 	str	r2, [r3]
	 pISR_SIO = 	(uint32) isr_SIO_dummy ;
 c10126c:	e59f3160 	ldr	r3, [pc, #352]	; c1013d4 <install_dummy_isr+0x204>
 c101270:	e59f2160 	ldr	r2, [pc, #352]	; c1013d8 <install_dummy_isr+0x208>
 c101274:	e5832000 	str	r2, [r3]
	 pISR_IIC = 	(uint32) isr_IIC_dummy ;
 c101278:	e59f315c 	ldr	r3, [pc, #348]	; c1013dc <install_dummy_isr+0x20c>
 c10127c:	e59f215c 	ldr	r2, [pc, #348]	; c1013e0 <install_dummy_isr+0x210>
 c101280:	e5832000 	str	r2, [r3]
	 pISR_URXD1 = 	(uint32) isr_URXD1_dummy ;
 c101284:	e59f3158 	ldr	r3, [pc, #344]	; c1013e4 <install_dummy_isr+0x214>
 c101288:	e59f2158 	ldr	r2, [pc, #344]	; c1013e8 <install_dummy_isr+0x218>
 c10128c:	e5832000 	str	r2, [r3]
	 pISR_URXD0 = 	(uint32) isr_URXD0_dummy ;
 c101290:	e59f3154 	ldr	r3, [pc, #340]	; c1013ec <install_dummy_isr+0x21c>
 c101294:	e59f2154 	ldr	r2, [pc, #340]	; c1013f0 <install_dummy_isr+0x220>
 c101298:	e5832000 	str	r2, [r3]
	 pISR_TIMER5 = 	(uint32) isr_TIMER5_dummy ;
 c10129c:	e59f3150 	ldr	r3, [pc, #336]	; c1013f4 <install_dummy_isr+0x224>
 c1012a0:	e59f2150 	ldr	r2, [pc, #336]	; c1013f8 <install_dummy_isr+0x228>
 c1012a4:	e5832000 	str	r2, [r3]
	 pISR_TIMER4 = 	(uint32) isr_TIMER4_dummy ;
 c1012a8:	e59f314c 	ldr	r3, [pc, #332]	; c1013fc <install_dummy_isr+0x22c>
 c1012ac:	e59f214c 	ldr	r2, [pc, #332]	; c101400 <install_dummy_isr+0x230>
 c1012b0:	e5832000 	str	r2, [r3]
	 pISR_TIMER3 = 	(uint32) isr_TIMER3_dummy ;
 c1012b4:	e59f3148 	ldr	r3, [pc, #328]	; c101404 <install_dummy_isr+0x234>
 c1012b8:	e59f2148 	ldr	r2, [pc, #328]	; c101408 <install_dummy_isr+0x238>
 c1012bc:	e5832000 	str	r2, [r3]
	 pISR_TIMER2 = 	(uint32) isr_TIMER2_dummy ;
 c1012c0:	e59f3144 	ldr	r3, [pc, #324]	; c10140c <install_dummy_isr+0x23c>
 c1012c4:	e59f2144 	ldr	r2, [pc, #324]	; c101410 <install_dummy_isr+0x240>
 c1012c8:	e5832000 	str	r2, [r3]
	 pISR_TIMER1 = 	(uint32) isr_TIMER1_dummy ;
 c1012cc:	e59f3140 	ldr	r3, [pc, #320]	; c101414 <install_dummy_isr+0x244>
 c1012d0:	e59f2140 	ldr	r2, [pc, #320]	; c101418 <install_dummy_isr+0x248>
 c1012d4:	e5832000 	str	r2, [r3]
	 pISR_TIMER0 = 	(uint32) isr_TIMER0_dummy ;
 c1012d8:	e59f313c 	ldr	r3, [pc, #316]	; c10141c <install_dummy_isr+0x24c>
 c1012dc:	e59f213c 	ldr	r2, [pc, #316]	; c101420 <install_dummy_isr+0x250>
 c1012e0:	e5832000 	str	r2, [r3]
	 pISR_UERR01 = 	(uint32) isr_UERR01_dummy ;
 c1012e4:	e59f3138 	ldr	r3, [pc, #312]	; c101424 <install_dummy_isr+0x254>
 c1012e8:	e59f2138 	ldr	r2, [pc, #312]	; c101428 <install_dummy_isr+0x258>
 c1012ec:	e5832000 	str	r2, [r3]
	 pISR_WDT = 	(uint32) isr_WDT_dummy ;
 c1012f0:	e59f3134 	ldr	r3, [pc, #308]	; c10142c <install_dummy_isr+0x25c>
 c1012f4:	e59f2134 	ldr	r2, [pc, #308]	; c101430 <install_dummy_isr+0x260>
 c1012f8:	e5832000 	str	r2, [r3]
	 pISR_BDMA1 = 	(uint32) isr_BDMA1_dummy ;
 c1012fc:	e59f3130 	ldr	r3, [pc, #304]	; c101434 <install_dummy_isr+0x264>
 c101300:	e59f2130 	ldr	r2, [pc, #304]	; c101438 <install_dummy_isr+0x268>
 c101304:	e5832000 	str	r2, [r3]
	 pISR_BDMA0 = 	(uint32) isr_BDMA0_dummy ;
 c101308:	e59f312c 	ldr	r3, [pc, #300]	; c10143c <install_dummy_isr+0x26c>
 c10130c:	e59f212c 	ldr	r2, [pc, #300]	; c101440 <install_dummy_isr+0x270>
 c101310:	e5832000 	str	r2, [r3]
	 pISR_ZDMA1 = 	(uint32) isr_ZDMA1_dummy ;
 c101314:	e59f3128 	ldr	r3, [pc, #296]	; c101444 <install_dummy_isr+0x274>
 c101318:	e59f2128 	ldr	r2, [pc, #296]	; c101448 <install_dummy_isr+0x278>
 c10131c:	e5832000 	str	r2, [r3]
	 pISR_ZDMA0 = 	(uint32) isr_ZDMA0_dummy ;
 c101320:	e59f3124 	ldr	r3, [pc, #292]	; c10144c <install_dummy_isr+0x27c>
 c101324:	e59f2124 	ldr	r2, [pc, #292]	; c101450 <install_dummy_isr+0x280>
 c101328:	e5832000 	str	r2, [r3]
	 pISR_PB = 		(uint32) isr_PB_dummy ;
 c10132c:	e59f3120 	ldr	r3, [pc, #288]	; c101454 <install_dummy_isr+0x284>
 c101330:	e59f2120 	ldr	r2, [pc, #288]	; c101458 <install_dummy_isr+0x288>
 c101334:	e5832000 	str	r2, [r3]
	 pISR_ETHERNET =(uint32) isr_ETHERNET_dummy ;
 c101338:	e59f311c 	ldr	r3, [pc, #284]	; c10145c <install_dummy_isr+0x28c>
 c10133c:	e59f211c 	ldr	r2, [pc, #284]	; c101460 <install_dummy_isr+0x290>
 c101340:	e5832000 	str	r2, [r3]
	 pISR_TS = 		(uint32) isr_TS_dummy ;
 c101344:	e59f3118 	ldr	r3, [pc, #280]	; c101464 <install_dummy_isr+0x294>
 c101348:	e59f2118 	ldr	r2, [pc, #280]	; c101468 <install_dummy_isr+0x298>
 c10134c:	e5832000 	str	r2, [r3]
	 pISR_KEYPAD = 	(uint32) isr_KEYPAD_dummy ;
 c101350:	e59f3114 	ldr	r3, [pc, #276]	; c10146c <install_dummy_isr+0x29c>
 c101354:	e59f2114 	ldr	r2, [pc, #276]	; c101470 <install_dummy_isr+0x2a0>
 c101358:	e5832000 	str	r2, [r3]
	 pISR_USB = 	(uint32) isr_USB_dummy ;
 c10135c:	e59f3058 	ldr	r3, [pc, #88]	; c1013bc <install_dummy_isr+0x1ec>
 c101360:	e59f2058 	ldr	r2, [pc, #88]	; c1013c0 <install_dummy_isr+0x1f0>
 c101364:	e5832000 	str	r2, [r3]
}        
 c101368:	e24bd00c 	sub	sp, fp, #12
 c10136c:	e89d6800 	ldm	sp, {fp, sp, lr}
 c101370:	e12fff1e 	bx	lr
 c101374:	0c7fff08 	.word	0x0c7fff08
 c101378:	0c101474 	.word	0x0c101474
 c10137c:	0c7fff04 	.word	0x0c7fff04
 c101380:	0c1014a0 	.word	0x0c1014a0
 c101384:	0c7fff18 	.word	0x0c7fff18
 c101388:	0c1014cc 	.word	0x0c1014cc
 c10138c:	0c7fff1c 	.word	0x0c7fff1c
 c101390:	0c1014f8 	.word	0x0c1014f8
 c101394:	0c7fff0c 	.word	0x0c7fff0c
 c101398:	0c101524 	.word	0x0c101524
 c10139c:	0c7fff10 	.word	0x0c7fff10
 c1013a0:	0c101550 	.word	0x0c101550
 c1013a4:	0c7fff20 	.word	0x0c7fff20
 c1013a8:	0c10157c 	.word	0x0c10157c
 c1013ac:	0c7fff24 	.word	0x0c7fff24
 c1013b0:	0c1015a8 	.word	0x0c1015a8
 c1013b4:	0c7fff70 	.word	0x0c7fff70
 c1013b8:	0c1018ec 	.word	0x0c1018ec
 c1013bc:	0c7fff84 	.word	0x0c7fff84
 c1013c0:	0c1019c8 	.word	0x0c1019c8
 c1013c4:	0c7fff28 	.word	0x0c7fff28
 c1013c8:	0c1015d4 	.word	0x0c1015d4
 c1013cc:	0c7fff2c 	.word	0x0c7fff2c
 c1013d0:	0c101600 	.word	0x0c101600
 c1013d4:	0c7fff30 	.word	0x0c7fff30
 c1013d8:	0c10162c 	.word	0x0c10162c
 c1013dc:	0c7fff34 	.word	0x0c7fff34
 c1013e0:	0c101658 	.word	0x0c101658
 c1013e4:	0c7fff38 	.word	0x0c7fff38
 c1013e8:	0c101684 	.word	0x0c101684
 c1013ec:	0c7fff3c 	.word	0x0c7fff3c
 c1013f0:	0c1016b0 	.word	0x0c1016b0
 c1013f4:	0c7fff40 	.word	0x0c7fff40
 c1013f8:	0c1016dc 	.word	0x0c1016dc
 c1013fc:	0c7fff44 	.word	0x0c7fff44
 c101400:	0c101708 	.word	0x0c101708
 c101404:	0c7fff48 	.word	0x0c7fff48
 c101408:	0c101734 	.word	0x0c101734
 c10140c:	0c7fff4c 	.word	0x0c7fff4c
 c101410:	0c101760 	.word	0x0c101760
 c101414:	0c7fff50 	.word	0x0c7fff50
 c101418:	0c10178c 	.word	0x0c10178c
 c10141c:	0c7fff54 	.word	0x0c7fff54
 c101420:	0c1017b8 	.word	0x0c1017b8
 c101424:	0c7fff58 	.word	0x0c7fff58
 c101428:	0c1017e4 	.word	0x0c1017e4
 c10142c:	0c7fff5c 	.word	0x0c7fff5c
 c101430:	0c101810 	.word	0x0c101810
 c101434:	0c7fff60 	.word	0x0c7fff60
 c101438:	0c10183c 	.word	0x0c10183c
 c10143c:	0c7fff64 	.word	0x0c7fff64
 c101440:	0c101868 	.word	0x0c101868
 c101444:	0c7fff68 	.word	0x0c7fff68
 c101448:	0c101894 	.word	0x0c101894
 c10144c:	0c7fff6c 	.word	0x0c7fff6c
 c101450:	0c1018c0 	.word	0x0c1018c0
 c101454:	0c7fff74 	.word	0x0c7fff74
 c101458:	0c101918 	.word	0x0c101918
 c10145c:	0c7fff78 	.word	0x0c7fff78
 c101460:	0c101944 	.word	0x0c101944
 c101464:	0c7fff7c 	.word	0x0c7fff7c
 c101468:	0c101970 	.word	0x0c101970
 c10146c:	0c7fff80 	.word	0x0c7fff80
 c101470:	0c10199c 	.word	0x0c10199c

0c101474 <isr_SWI_dummy>:

void isr_SWI_dummy( void )
{
 c101474:	e52dc004 	push	{ip}		; (str ip, [sp, #-4]!)
 c101478:	e1a0c00d 	mov	ip, sp
 c10147c:	e92dd80f 	push	{r0, r1, r2, r3, fp, ip, lr, pc}
 c101480:	e24cb004 	sub	fp, ip, #4
    uart0_puts( "\n\n*** ERROR FATAL: ejecutando isr_SWI_dummy" );
 c101484:	e59f0010 	ldr	r0, [pc, #16]	; c10149c <isr_SWI_dummy+0x28>
 c101488:	eb000430 	bl	c102550 <uart0_puts>
    SEGS = 0x75;
 c10148c:	e3a03785 	mov	r3, #34865152	; 0x2140000
 c101490:	e3a02075 	mov	r2, #117	; 0x75
 c101494:	e5c32000 	strb	r2, [r3]
    while( 1 );
 c101498:	eafffffe 	b	c101498 <isr_SWI_dummy+0x24>
 c10149c:	0c103598 	.word	0x0c103598

0c1014a0 <isr_UNDEF_dummy>:
}

void isr_UNDEF_dummy( void )
{
 c1014a0:	e52dc004 	push	{ip}		; (str ip, [sp, #-4]!)
 c1014a4:	e1a0c00d 	mov	ip, sp
 c1014a8:	e92dd80f 	push	{r0, r1, r2, r3, fp, ip, lr, pc}
 c1014ac:	e24cb004 	sub	fp, ip, #4
    uart0_puts( "\n\n*** ERROR FATAL: ejecutando isr_UNDEF_dummy" );
 c1014b0:	e59f0010 	ldr	r0, [pc, #16]	; c1014c8 <isr_UNDEF_dummy+0x28>
 c1014b4:	eb000425 	bl	c102550 <uart0_puts>
    SEGS = 0x75;
 c1014b8:	e3a03785 	mov	r3, #34865152	; 0x2140000
 c1014bc:	e3a02075 	mov	r2, #117	; 0x75
 c1014c0:	e5c32000 	strb	r2, [r3]
    while( 1 );
 c1014c4:	eafffffe 	b	c1014c4 <isr_UNDEF_dummy+0x24>
 c1014c8:	0c1035c4 	.word	0x0c1035c4

0c1014cc <isr_IRQ_dummy>:
}

void isr_IRQ_dummy( void )
{
 c1014cc:	e52dc004 	push	{ip}		; (str ip, [sp, #-4]!)
 c1014d0:	e1a0c00d 	mov	ip, sp
 c1014d4:	e92dd80f 	push	{r0, r1, r2, r3, fp, ip, lr, pc}
 c1014d8:	e24cb004 	sub	fp, ip, #4
    uart0_puts( "\n\n*** ERROR FATAL: ejecutando isr_IRQ_dummy" );
 c1014dc:	e59f0010 	ldr	r0, [pc, #16]	; c1014f4 <isr_IRQ_dummy+0x28>
 c1014e0:	eb00041a 	bl	c102550 <uart0_puts>
    SEGS = 0x75;
 c1014e4:	e3a03785 	mov	r3, #34865152	; 0x2140000
 c1014e8:	e3a02075 	mov	r2, #117	; 0x75
 c1014ec:	e5c32000 	strb	r2, [r3]
    while( 1 );
 c1014f0:	eafffffe 	b	c1014f0 <isr_IRQ_dummy+0x24>
 c1014f4:	0c1035f4 	.word	0x0c1035f4

0c1014f8 <isr_FIQ_dummy>:
}

void isr_FIQ_dummy( void )
{
 c1014f8:	e52dc004 	push	{ip}		; (str ip, [sp, #-4]!)
 c1014fc:	e1a0c00d 	mov	ip, sp
 c101500:	e92dd80f 	push	{r0, r1, r2, r3, fp, ip, lr, pc}
 c101504:	e24cb004 	sub	fp, ip, #4
    uart0_puts( "\n\n*** ERROR FATAL: ejecutando isr_FIQ_dummy" );
 c101508:	e59f0010 	ldr	r0, [pc, #16]	; c101520 <isr_FIQ_dummy+0x28>
 c10150c:	eb00040f 	bl	c102550 <uart0_puts>
    SEGS = 0x75;
 c101510:	e3a03785 	mov	r3, #34865152	; 0x2140000
 c101514:	e3a02075 	mov	r2, #117	; 0x75
 c101518:	e5c32000 	strb	r2, [r3]
    while( 1 );
 c10151c:	eafffffe 	b	c10151c <isr_FIQ_dummy+0x24>
 c101520:	0c103620 	.word	0x0c103620

0c101524 <isr_PABORT_dummy>:
}

void isr_PABORT_dummy( void )
{
 c101524:	e52dc004 	push	{ip}		; (str ip, [sp, #-4]!)
 c101528:	e1a0c00d 	mov	ip, sp
 c10152c:	e92dd80f 	push	{r0, r1, r2, r3, fp, ip, lr, pc}
 c101530:	e24cb004 	sub	fp, ip, #4
    uart0_puts( "\n\n*** ERROR FATAL: ejecutando isr_PABORT_dummy" );
 c101534:	e59f0010 	ldr	r0, [pc, #16]	; c10154c <isr_PABORT_dummy+0x28>
 c101538:	eb000404 	bl	c102550 <uart0_puts>
    SEGS = 0x75;
 c10153c:	e3a03785 	mov	r3, #34865152	; 0x2140000
 c101540:	e3a02075 	mov	r2, #117	; 0x75
 c101544:	e5c32000 	strb	r2, [r3]
    while( 1 );
 c101548:	eafffffe 	b	c101548 <isr_PABORT_dummy+0x24>
 c10154c:	0c10364c 	.word	0x0c10364c

0c101550 <isr_DABORT_dummy>:
}

void isr_DABORT_dummy( void )
{
 c101550:	e52dc004 	push	{ip}		; (str ip, [sp, #-4]!)
 c101554:	e1a0c00d 	mov	ip, sp
 c101558:	e92dd80f 	push	{r0, r1, r2, r3, fp, ip, lr, pc}
 c10155c:	e24cb004 	sub	fp, ip, #4
    uart0_puts( "\n\n*** ERROR FATAL: ejecutando isr_DABORT_dummy" );
 c101560:	e59f0010 	ldr	r0, [pc, #16]	; c101578 <isr_DABORT_dummy+0x28>
 c101564:	eb0003f9 	bl	c102550 <uart0_puts>
    SEGS = 0x75;
 c101568:	e3a03785 	mov	r3, #34865152	; 0x2140000
 c10156c:	e3a02075 	mov	r2, #117	; 0x75
 c101570:	e5c32000 	strb	r2, [r3]
    while( 1 );
 c101574:	eafffffe 	b	c101574 <isr_DABORT_dummy+0x24>
 c101578:	0c10367c 	.word	0x0c10367c

0c10157c <isr_ADC_dummy>:
}

void isr_ADC_dummy( void )
{
 c10157c:	e52dc004 	push	{ip}		; (str ip, [sp, #-4]!)
 c101580:	e1a0c00d 	mov	ip, sp
 c101584:	e92dd80f 	push	{r0, r1, r2, r3, fp, ip, lr, pc}
 c101588:	e24cb004 	sub	fp, ip, #4
    uart0_puts( "\n\n*** ERROR FATAL: ejecutando isr_ADC_dummy" );
 c10158c:	e59f0010 	ldr	r0, [pc, #16]	; c1015a4 <isr_ADC_dummy+0x28>
 c101590:	eb0003ee 	bl	c102550 <uart0_puts>
    SEGS = 0x75;
 c101594:	e3a03785 	mov	r3, #34865152	; 0x2140000
 c101598:	e3a02075 	mov	r2, #117	; 0x75
 c10159c:	e5c32000 	strb	r2, [r3]
    while( 1 );
 c1015a0:	eafffffe 	b	c1015a0 <isr_ADC_dummy+0x24>
 c1015a4:	0c1036ac 	.word	0x0c1036ac

0c1015a8 <isr_RTC_dummy>:
}

void isr_RTC_dummy( void )
{
 c1015a8:	e52dc004 	push	{ip}		; (str ip, [sp, #-4]!)
 c1015ac:	e1a0c00d 	mov	ip, sp
 c1015b0:	e92dd80f 	push	{r0, r1, r2, r3, fp, ip, lr, pc}
 c1015b4:	e24cb004 	sub	fp, ip, #4
    uart0_puts( "\n\n*** ERROR FATAL: ejecutando isr_RTC_dummy" );
 c1015b8:	e59f0010 	ldr	r0, [pc, #16]	; c1015d0 <isr_RTC_dummy+0x28>
 c1015bc:	eb0003e3 	bl	c102550 <uart0_puts>
    SEGS = 0x75;
 c1015c0:	e3a03785 	mov	r3, #34865152	; 0x2140000
 c1015c4:	e3a02075 	mov	r2, #117	; 0x75
 c1015c8:	e5c32000 	strb	r2, [r3]
    while( 1 );
 c1015cc:	eafffffe 	b	c1015cc <isr_RTC_dummy+0x24>
 c1015d0:	0c1036d8 	.word	0x0c1036d8

0c1015d4 <isr_UTXD1_dummy>:
}

void isr_UTXD1_dummy( void )
{
 c1015d4:	e52dc004 	push	{ip}		; (str ip, [sp, #-4]!)
 c1015d8:	e1a0c00d 	mov	ip, sp
 c1015dc:	e92dd80f 	push	{r0, r1, r2, r3, fp, ip, lr, pc}
 c1015e0:	e24cb004 	sub	fp, ip, #4
    uart0_puts( "\n\n*** ERROR FATAL: ejecutando isr_UTXD1_dummy" );
 c1015e4:	e59f0010 	ldr	r0, [pc, #16]	; c1015fc <isr_UTXD1_dummy+0x28>
 c1015e8:	eb0003d8 	bl	c102550 <uart0_puts>
    SEGS = 0x75;
 c1015ec:	e3a03785 	mov	r3, #34865152	; 0x2140000
 c1015f0:	e3a02075 	mov	r2, #117	; 0x75
 c1015f4:	e5c32000 	strb	r2, [r3]
    while( 1 );
 c1015f8:	eafffffe 	b	c1015f8 <isr_UTXD1_dummy+0x24>
 c1015fc:	0c103704 	.word	0x0c103704

0c101600 <isr_UTXD0_dummy>:
}

void isr_UTXD0_dummy( void )
{
 c101600:	e52dc004 	push	{ip}		; (str ip, [sp, #-4]!)
 c101604:	e1a0c00d 	mov	ip, sp
 c101608:	e92dd80f 	push	{r0, r1, r2, r3, fp, ip, lr, pc}
 c10160c:	e24cb004 	sub	fp, ip, #4
    uart0_puts( "\n\n*** ERROR FATAL: ejecutando isr_UTXD0_dummy" );
 c101610:	e59f0010 	ldr	r0, [pc, #16]	; c101628 <isr_UTXD0_dummy+0x28>
 c101614:	eb0003cd 	bl	c102550 <uart0_puts>
    SEGS = 0x75;
 c101618:	e3a03785 	mov	r3, #34865152	; 0x2140000
 c10161c:	e3a02075 	mov	r2, #117	; 0x75
 c101620:	e5c32000 	strb	r2, [r3]
    while( 1 );
 c101624:	eafffffe 	b	c101624 <isr_UTXD0_dummy+0x24>
 c101628:	0c103734 	.word	0x0c103734

0c10162c <isr_SIO_dummy>:
}

void isr_SIO_dummy( void )
{
 c10162c:	e52dc004 	push	{ip}		; (str ip, [sp, #-4]!)
 c101630:	e1a0c00d 	mov	ip, sp
 c101634:	e92dd80f 	push	{r0, r1, r2, r3, fp, ip, lr, pc}
 c101638:	e24cb004 	sub	fp, ip, #4
    uart0_puts( "\n\n*** ERROR FATAL: ejecutando isr_SIO_dummy" );
 c10163c:	e59f0010 	ldr	r0, [pc, #16]	; c101654 <isr_SIO_dummy+0x28>
 c101640:	eb0003c2 	bl	c102550 <uart0_puts>
    SEGS = 0x75;
 c101644:	e3a03785 	mov	r3, #34865152	; 0x2140000
 c101648:	e3a02075 	mov	r2, #117	; 0x75
 c10164c:	e5c32000 	strb	r2, [r3]
    while( 1 );
 c101650:	eafffffe 	b	c101650 <isr_SIO_dummy+0x24>
 c101654:	0c103764 	.word	0x0c103764

0c101658 <isr_IIC_dummy>:
}

void isr_IIC_dummy( void )
{
 c101658:	e52dc004 	push	{ip}		; (str ip, [sp, #-4]!)
 c10165c:	e1a0c00d 	mov	ip, sp
 c101660:	e92dd80f 	push	{r0, r1, r2, r3, fp, ip, lr, pc}
 c101664:	e24cb004 	sub	fp, ip, #4
    uart0_puts( "\n\n*** ERROR FATAL: ejecutando isr_IIC_dummy" );
 c101668:	e59f0010 	ldr	r0, [pc, #16]	; c101680 <isr_IIC_dummy+0x28>
 c10166c:	eb0003b7 	bl	c102550 <uart0_puts>
    SEGS = 0x75;
 c101670:	e3a03785 	mov	r3, #34865152	; 0x2140000
 c101674:	e3a02075 	mov	r2, #117	; 0x75
 c101678:	e5c32000 	strb	r2, [r3]
    while( 1 );
 c10167c:	eafffffe 	b	c10167c <isr_IIC_dummy+0x24>
 c101680:	0c103790 	.word	0x0c103790

0c101684 <isr_URXD1_dummy>:
}

void isr_URXD1_dummy( void )
{
 c101684:	e52dc004 	push	{ip}		; (str ip, [sp, #-4]!)
 c101688:	e1a0c00d 	mov	ip, sp
 c10168c:	e92dd80f 	push	{r0, r1, r2, r3, fp, ip, lr, pc}
 c101690:	e24cb004 	sub	fp, ip, #4
    uart0_puts( "\n\n*** ERROR FATAL: ejecutando isr_URCD1_dummy" );
 c101694:	e59f0010 	ldr	r0, [pc, #16]	; c1016ac <isr_URXD1_dummy+0x28>
 c101698:	eb0003ac 	bl	c102550 <uart0_puts>
    SEGS = 0x75;
 c10169c:	e3a03785 	mov	r3, #34865152	; 0x2140000
 c1016a0:	e3a02075 	mov	r2, #117	; 0x75
 c1016a4:	e5c32000 	strb	r2, [r3]
    while( 1 );
 c1016a8:	eafffffe 	b	c1016a8 <isr_URXD1_dummy+0x24>
 c1016ac:	0c1037bc 	.word	0x0c1037bc

0c1016b0 <isr_URXD0_dummy>:
}

void isr_URXD0_dummy( void )
{
 c1016b0:	e52dc004 	push	{ip}		; (str ip, [sp, #-4]!)
 c1016b4:	e1a0c00d 	mov	ip, sp
 c1016b8:	e92dd80f 	push	{r0, r1, r2, r3, fp, ip, lr, pc}
 c1016bc:	e24cb004 	sub	fp, ip, #4
    uart0_puts( "\n\n*** ERROR FATAL: ejecutando isr_URCD0_dummy" );
 c1016c0:	e59f0010 	ldr	r0, [pc, #16]	; c1016d8 <isr_URXD0_dummy+0x28>
 c1016c4:	eb0003a1 	bl	c102550 <uart0_puts>
    SEGS = 0x75;
 c1016c8:	e3a03785 	mov	r3, #34865152	; 0x2140000
 c1016cc:	e3a02075 	mov	r2, #117	; 0x75
 c1016d0:	e5c32000 	strb	r2, [r3]
    while( 1 );
 c1016d4:	eafffffe 	b	c1016d4 <isr_URXD0_dummy+0x24>
 c1016d8:	0c1037ec 	.word	0x0c1037ec

0c1016dc <isr_TIMER5_dummy>:
}

void isr_TIMER5_dummy( void )
{
 c1016dc:	e52dc004 	push	{ip}		; (str ip, [sp, #-4]!)
 c1016e0:	e1a0c00d 	mov	ip, sp
 c1016e4:	e92dd80f 	push	{r0, r1, r2, r3, fp, ip, lr, pc}
 c1016e8:	e24cb004 	sub	fp, ip, #4
    uart0_puts( "\n\n*** ERROR FATAL: ejecutando isr_TIMER5_dummy" );
 c1016ec:	e59f0010 	ldr	r0, [pc, #16]	; c101704 <isr_TIMER5_dummy+0x28>
 c1016f0:	eb000396 	bl	c102550 <uart0_puts>
    SEGS = 0x75;
 c1016f4:	e3a03785 	mov	r3, #34865152	; 0x2140000
 c1016f8:	e3a02075 	mov	r2, #117	; 0x75
 c1016fc:	e5c32000 	strb	r2, [r3]
    while( 1 );
 c101700:	eafffffe 	b	c101700 <isr_TIMER5_dummy+0x24>
 c101704:	0c10381c 	.word	0x0c10381c

0c101708 <isr_TIMER4_dummy>:
}

void isr_TIMER4_dummy( void )
{
 c101708:	e52dc004 	push	{ip}		; (str ip, [sp, #-4]!)
 c10170c:	e1a0c00d 	mov	ip, sp
 c101710:	e92dd80f 	push	{r0, r1, r2, r3, fp, ip, lr, pc}
 c101714:	e24cb004 	sub	fp, ip, #4
    uart0_puts( "\n\n*** ERROR FATAL: ejecutando isr_TIMER4_dummy" );
 c101718:	e59f0010 	ldr	r0, [pc, #16]	; c101730 <isr_TIMER4_dummy+0x28>
 c10171c:	eb00038b 	bl	c102550 <uart0_puts>
    SEGS = 0x75;
 c101720:	e3a03785 	mov	r3, #34865152	; 0x2140000
 c101724:	e3a02075 	mov	r2, #117	; 0x75
 c101728:	e5c32000 	strb	r2, [r3]
    while( 1 );
 c10172c:	eafffffe 	b	c10172c <isr_TIMER4_dummy+0x24>
 c101730:	0c10384c 	.word	0x0c10384c

0c101734 <isr_TIMER3_dummy>:
}

void isr_TIMER3_dummy( void )
{
 c101734:	e52dc004 	push	{ip}		; (str ip, [sp, #-4]!)
 c101738:	e1a0c00d 	mov	ip, sp
 c10173c:	e92dd80f 	push	{r0, r1, r2, r3, fp, ip, lr, pc}
 c101740:	e24cb004 	sub	fp, ip, #4
    uart0_puts( "\n\n*** ERROR FATAL: ejecutando isr_TIMER3_dummy" );
 c101744:	e59f0010 	ldr	r0, [pc, #16]	; c10175c <isr_TIMER3_dummy+0x28>
 c101748:	eb000380 	bl	c102550 <uart0_puts>
    SEGS = 0x75;
 c10174c:	e3a03785 	mov	r3, #34865152	; 0x2140000
 c101750:	e3a02075 	mov	r2, #117	; 0x75
 c101754:	e5c32000 	strb	r2, [r3]
    while( 1 );
 c101758:	eafffffe 	b	c101758 <isr_TIMER3_dummy+0x24>
 c10175c:	0c10387c 	.word	0x0c10387c

0c101760 <isr_TIMER2_dummy>:
}

void isr_TIMER2_dummy( void )
{
 c101760:	e52dc004 	push	{ip}		; (str ip, [sp, #-4]!)
 c101764:	e1a0c00d 	mov	ip, sp
 c101768:	e92dd80f 	push	{r0, r1, r2, r3, fp, ip, lr, pc}
 c10176c:	e24cb004 	sub	fp, ip, #4
    uart0_puts( "\n\n*** ERROR FATAL: ejecutando isr_TIMER2_dummy" );
 c101770:	e59f0010 	ldr	r0, [pc, #16]	; c101788 <isr_TIMER2_dummy+0x28>
 c101774:	eb000375 	bl	c102550 <uart0_puts>
    SEGS = 0x75;
 c101778:	e3a03785 	mov	r3, #34865152	; 0x2140000
 c10177c:	e3a02075 	mov	r2, #117	; 0x75
 c101780:	e5c32000 	strb	r2, [r3]
    while( 1 );
 c101784:	eafffffe 	b	c101784 <isr_TIMER2_dummy+0x24>
 c101788:	0c1038ac 	.word	0x0c1038ac

0c10178c <isr_TIMER1_dummy>:
}

void isr_TIMER1_dummy( void )
{
 c10178c:	e52dc004 	push	{ip}		; (str ip, [sp, #-4]!)
 c101790:	e1a0c00d 	mov	ip, sp
 c101794:	e92dd80f 	push	{r0, r1, r2, r3, fp, ip, lr, pc}
 c101798:	e24cb004 	sub	fp, ip, #4
    uart0_puts( "\n\n*** ERROR FATAL: ejecutando isr_TIMER1_dummy" );
 c10179c:	e59f0010 	ldr	r0, [pc, #16]	; c1017b4 <isr_TIMER1_dummy+0x28>
 c1017a0:	eb00036a 	bl	c102550 <uart0_puts>
    SEGS = 0x75;
 c1017a4:	e3a03785 	mov	r3, #34865152	; 0x2140000
 c1017a8:	e3a02075 	mov	r2, #117	; 0x75
 c1017ac:	e5c32000 	strb	r2, [r3]
    while( 1 );
 c1017b0:	eafffffe 	b	c1017b0 <isr_TIMER1_dummy+0x24>
 c1017b4:	0c1038dc 	.word	0x0c1038dc

0c1017b8 <isr_TIMER0_dummy>:
}

void isr_TIMER0_dummy( void )
{
 c1017b8:	e52dc004 	push	{ip}		; (str ip, [sp, #-4]!)
 c1017bc:	e1a0c00d 	mov	ip, sp
 c1017c0:	e92dd80f 	push	{r0, r1, r2, r3, fp, ip, lr, pc}
 c1017c4:	e24cb004 	sub	fp, ip, #4
    uart0_puts( "\n\n*** ERROR FATAL: ejecutando isr_TIMER0_dummy" );
 c1017c8:	e59f0010 	ldr	r0, [pc, #16]	; c1017e0 <isr_TIMER0_dummy+0x28>
 c1017cc:	eb00035f 	bl	c102550 <uart0_puts>
    SEGS = 0x75;
 c1017d0:	e3a03785 	mov	r3, #34865152	; 0x2140000
 c1017d4:	e3a02075 	mov	r2, #117	; 0x75
 c1017d8:	e5c32000 	strb	r2, [r3]
    while( 1 );
 c1017dc:	eafffffe 	b	c1017dc <isr_TIMER0_dummy+0x24>
 c1017e0:	0c10390c 	.word	0x0c10390c

0c1017e4 <isr_UERR01_dummy>:
}

void isr_UERR01_dummy( void )
{
 c1017e4:	e52dc004 	push	{ip}		; (str ip, [sp, #-4]!)
 c1017e8:	e1a0c00d 	mov	ip, sp
 c1017ec:	e92dd80f 	push	{r0, r1, r2, r3, fp, ip, lr, pc}
 c1017f0:	e24cb004 	sub	fp, ip, #4
    uart0_puts( "\n\n*** ERROR FATAL: ejecutando isr_UERR01_dummy" );
 c1017f4:	e59f0010 	ldr	r0, [pc, #16]	; c10180c <isr_UERR01_dummy+0x28>
 c1017f8:	eb000354 	bl	c102550 <uart0_puts>
    SEGS = 0x75;
 c1017fc:	e3a03785 	mov	r3, #34865152	; 0x2140000
 c101800:	e3a02075 	mov	r2, #117	; 0x75
 c101804:	e5c32000 	strb	r2, [r3]
    while( 1 );
 c101808:	eafffffe 	b	c101808 <isr_UERR01_dummy+0x24>
 c10180c:	0c10393c 	.word	0x0c10393c

0c101810 <isr_WDT_dummy>:
}

void isr_WDT_dummy( void )
{
 c101810:	e52dc004 	push	{ip}		; (str ip, [sp, #-4]!)
 c101814:	e1a0c00d 	mov	ip, sp
 c101818:	e92dd80f 	push	{r0, r1, r2, r3, fp, ip, lr, pc}
 c10181c:	e24cb004 	sub	fp, ip, #4
    uart0_puts( "\n\n*** ERROR FATAL: ejecutando isr_WDT_dummy" );
 c101820:	e59f0010 	ldr	r0, [pc, #16]	; c101838 <isr_WDT_dummy+0x28>
 c101824:	eb000349 	bl	c102550 <uart0_puts>
    SEGS = 0x75;
 c101828:	e3a03785 	mov	r3, #34865152	; 0x2140000
 c10182c:	e3a02075 	mov	r2, #117	; 0x75
 c101830:	e5c32000 	strb	r2, [r3]
    while( 1 );
 c101834:	eafffffe 	b	c101834 <isr_WDT_dummy+0x24>
 c101838:	0c10396c 	.word	0x0c10396c

0c10183c <isr_BDMA1_dummy>:
}

void isr_BDMA1_dummy( void )
{
 c10183c:	e52dc004 	push	{ip}		; (str ip, [sp, #-4]!)
 c101840:	e1a0c00d 	mov	ip, sp
 c101844:	e92dd80f 	push	{r0, r1, r2, r3, fp, ip, lr, pc}
 c101848:	e24cb004 	sub	fp, ip, #4
    uart0_puts( "\n\n*** ERROR FATAL: ejecutando isr_BDMA1_dummy" );
 c10184c:	e59f0010 	ldr	r0, [pc, #16]	; c101864 <isr_BDMA1_dummy+0x28>
 c101850:	eb00033e 	bl	c102550 <uart0_puts>
    SEGS = 0x75;
 c101854:	e3a03785 	mov	r3, #34865152	; 0x2140000
 c101858:	e3a02075 	mov	r2, #117	; 0x75
 c10185c:	e5c32000 	strb	r2, [r3]
    while( 1 );
 c101860:	eafffffe 	b	c101860 <isr_BDMA1_dummy+0x24>
 c101864:	0c103998 	.word	0x0c103998

0c101868 <isr_BDMA0_dummy>:
}

void isr_BDMA0_dummy( void )
{
 c101868:	e52dc004 	push	{ip}		; (str ip, [sp, #-4]!)
 c10186c:	e1a0c00d 	mov	ip, sp
 c101870:	e92dd80f 	push	{r0, r1, r2, r3, fp, ip, lr, pc}
 c101874:	e24cb004 	sub	fp, ip, #4
    uart0_puts( "\n\n*** ERROR FATAL: ejecutando isr_BDMA0_dummy" );
 c101878:	e59f0010 	ldr	r0, [pc, #16]	; c101890 <isr_BDMA0_dummy+0x28>
 c10187c:	eb000333 	bl	c102550 <uart0_puts>
    SEGS = 0x75;
 c101880:	e3a03785 	mov	r3, #34865152	; 0x2140000
 c101884:	e3a02075 	mov	r2, #117	; 0x75
 c101888:	e5c32000 	strb	r2, [r3]
    while( 1 );
 c10188c:	eafffffe 	b	c10188c <isr_BDMA0_dummy+0x24>
 c101890:	0c1039c8 	.word	0x0c1039c8

0c101894 <isr_ZDMA1_dummy>:
}

void isr_ZDMA1_dummy( void )
{
 c101894:	e52dc004 	push	{ip}		; (str ip, [sp, #-4]!)
 c101898:	e1a0c00d 	mov	ip, sp
 c10189c:	e92dd80f 	push	{r0, r1, r2, r3, fp, ip, lr, pc}
 c1018a0:	e24cb004 	sub	fp, ip, #4
    uart0_puts( "\n\n*** ERROR FATAL: ejecutando isr_ZDMA1_dummy" );
 c1018a4:	e59f0010 	ldr	r0, [pc, #16]	; c1018bc <isr_ZDMA1_dummy+0x28>
 c1018a8:	eb000328 	bl	c102550 <uart0_puts>
    SEGS = 0x75;
 c1018ac:	e3a03785 	mov	r3, #34865152	; 0x2140000
 c1018b0:	e3a02075 	mov	r2, #117	; 0x75
 c1018b4:	e5c32000 	strb	r2, [r3]
    while( 1 );
 c1018b8:	eafffffe 	b	c1018b8 <isr_ZDMA1_dummy+0x24>
 c1018bc:	0c1039f8 	.word	0x0c1039f8

0c1018c0 <isr_ZDMA0_dummy>:
}

void isr_ZDMA0_dummy( void )
{
 c1018c0:	e52dc004 	push	{ip}		; (str ip, [sp, #-4]!)
 c1018c4:	e1a0c00d 	mov	ip, sp
 c1018c8:	e92dd80f 	push	{r0, r1, r2, r3, fp, ip, lr, pc}
 c1018cc:	e24cb004 	sub	fp, ip, #4
    uart0_puts( "\n\n*** ERROR FATAL: ejecutando isr_ZDMA0_dummy" );
 c1018d0:	e59f0010 	ldr	r0, [pc, #16]	; c1018e8 <isr_ZDMA0_dummy+0x28>
 c1018d4:	eb00031d 	bl	c102550 <uart0_puts>
    SEGS = 0x75;
 c1018d8:	e3a03785 	mov	r3, #34865152	; 0x2140000
 c1018dc:	e3a02075 	mov	r2, #117	; 0x75
 c1018e0:	e5c32000 	strb	r2, [r3]
    while( 1 );
 c1018e4:	eafffffe 	b	c1018e4 <isr_ZDMA0_dummy+0x24>
 c1018e8:	0c103a28 	.word	0x0c103a28

0c1018ec <isr_TICK_dummy>:
}

void isr_TICK_dummy( void )
{
 c1018ec:	e52dc004 	push	{ip}		; (str ip, [sp, #-4]!)
 c1018f0:	e1a0c00d 	mov	ip, sp
 c1018f4:	e92dd80f 	push	{r0, r1, r2, r3, fp, ip, lr, pc}
 c1018f8:	e24cb004 	sub	fp, ip, #4
    uart0_puts( "\n\n*** ERROR FATAL: ejecutando isr_TICK_dummy" );
 c1018fc:	e59f0010 	ldr	r0, [pc, #16]	; c101914 <isr_TICK_dummy+0x28>
 c101900:	eb000312 	bl	c102550 <uart0_puts>
    SEGS = 0x75;
 c101904:	e3a03785 	mov	r3, #34865152	; 0x2140000
 c101908:	e3a02075 	mov	r2, #117	; 0x75
 c10190c:	e5c32000 	strb	r2, [r3]
    while( 1 );
 c101910:	eafffffe 	b	c101910 <isr_TICK_dummy+0x24>
 c101914:	0c103a58 	.word	0x0c103a58

0c101918 <isr_PB_dummy>:
}

void isr_PB_dummy( void )
{
 c101918:	e52dc004 	push	{ip}		; (str ip, [sp, #-4]!)
 c10191c:	e1a0c00d 	mov	ip, sp
 c101920:	e92dd80f 	push	{r0, r1, r2, r3, fp, ip, lr, pc}
 c101924:	e24cb004 	sub	fp, ip, #4
    uart0_puts( "\n\n*** ERROR FATAL: ejecutando isr_PB_dummy" );
 c101928:	e59f0010 	ldr	r0, [pc, #16]	; c101940 <isr_PB_dummy+0x28>
 c10192c:	eb000307 	bl	c102550 <uart0_puts>
    SEGS = 0x75;
 c101930:	e3a03785 	mov	r3, #34865152	; 0x2140000
 c101934:	e3a02075 	mov	r2, #117	; 0x75
 c101938:	e5c32000 	strb	r2, [r3]
    while( 1 );
 c10193c:	eafffffe 	b	c10193c <isr_PB_dummy+0x24>
 c101940:	0c103a88 	.word	0x0c103a88

0c101944 <isr_ETHERNET_dummy>:
}

void isr_ETHERNET_dummy( void )
{
 c101944:	e52dc004 	push	{ip}		; (str ip, [sp, #-4]!)
 c101948:	e1a0c00d 	mov	ip, sp
 c10194c:	e92dd80f 	push	{r0, r1, r2, r3, fp, ip, lr, pc}
 c101950:	e24cb004 	sub	fp, ip, #4
    uart0_puts( "\n\n*** ERROR FATAL: ejecutando isr_ETHERNET_dummy" );
 c101954:	e59f0010 	ldr	r0, [pc, #16]	; c10196c <isr_ETHERNET_dummy+0x28>
 c101958:	eb0002fc 	bl	c102550 <uart0_puts>
    SEGS = 0x75;
 c10195c:	e3a03785 	mov	r3, #34865152	; 0x2140000
 c101960:	e3a02075 	mov	r2, #117	; 0x75
 c101964:	e5c32000 	strb	r2, [r3]
    while( 1 );
 c101968:	eafffffe 	b	c101968 <isr_ETHERNET_dummy+0x24>
 c10196c:	0c103ab4 	.word	0x0c103ab4

0c101970 <isr_TS_dummy>:
}

void isr_TS_dummy( void )
{
 c101970:	e52dc004 	push	{ip}		; (str ip, [sp, #-4]!)
 c101974:	e1a0c00d 	mov	ip, sp
 c101978:	e92dd80f 	push	{r0, r1, r2, r3, fp, ip, lr, pc}
 c10197c:	e24cb004 	sub	fp, ip, #4
    uart0_puts( "\n\n*** ERROR FATAL: ejecutando isr_TS_dummy" );
 c101980:	e59f0010 	ldr	r0, [pc, #16]	; c101998 <isr_TS_dummy+0x28>
 c101984:	eb0002f1 	bl	c102550 <uart0_puts>
    SEGS = 0x75;
 c101988:	e3a03785 	mov	r3, #34865152	; 0x2140000
 c10198c:	e3a02075 	mov	r2, #117	; 0x75
 c101990:	e5c32000 	strb	r2, [r3]
    while( 1 );
 c101994:	eafffffe 	b	c101994 <isr_TS_dummy+0x24>
 c101998:	0c103ae8 	.word	0x0c103ae8

0c10199c <isr_KEYPAD_dummy>:
}

void isr_KEYPAD_dummy( void )
{
 c10199c:	e52dc004 	push	{ip}		; (str ip, [sp, #-4]!)
 c1019a0:	e1a0c00d 	mov	ip, sp
 c1019a4:	e92dd80f 	push	{r0, r1, r2, r3, fp, ip, lr, pc}
 c1019a8:	e24cb004 	sub	fp, ip, #4
    uart0_puts( "\n\n*** ERROR FATAL: ejecutando isr_KEYPAD_dummy" );
 c1019ac:	e59f0010 	ldr	r0, [pc, #16]	; c1019c4 <isr_KEYPAD_dummy+0x28>
 c1019b0:	eb0002e6 	bl	c102550 <uart0_puts>
    SEGS = 0x75;
 c1019b4:	e3a03785 	mov	r3, #34865152	; 0x2140000
 c1019b8:	e3a02075 	mov	r2, #117	; 0x75
 c1019bc:	e5c32000 	strb	r2, [r3]
    while( 1 );
 c1019c0:	eafffffe 	b	c1019c0 <isr_KEYPAD_dummy+0x24>
 c1019c4:	0c103b14 	.word	0x0c103b14

0c1019c8 <isr_USB_dummy>:
}

void isr_USB_dummy( void )
{
 c1019c8:	e52dc004 	push	{ip}		; (str ip, [sp, #-4]!)
 c1019cc:	e1a0c00d 	mov	ip, sp
 c1019d0:	e92dd80f 	push	{r0, r1, r2, r3, fp, ip, lr, pc}
 c1019d4:	e24cb004 	sub	fp, ip, #4
    uart0_puts( "\n\n*** ERROR FATAL: ejecutando isr_USB_dummy" );
 c1019d8:	e59f0010 	ldr	r0, [pc, #16]	; c1019f0 <isr_USB_dummy+0x28>
 c1019dc:	eb0002db 	bl	c102550 <uart0_puts>
    SEGS = 0x75;
 c1019e0:	e3a03785 	mov	r3, #34865152	; 0x2140000
 c1019e4:	e3a02075 	mov	r2, #117	; 0x75
 c1019e8:	e5c32000 	strb	r2, [r3]
    while( 1 );
 c1019ec:	eafffffe 	b	c1019ec <isr_USB_dummy+0x24>
 c1019f0:	0c103b44 	.word	0x0c103b44

0c1019f4 <show_sys_info>:
}

static void show_sys_info( void )
{
 c1019f4:	e1a0c00d 	mov	ip, sp
 c1019f8:	e92dd800 	push	{fp, ip, lr, pc}
 c1019fc:	e24cb004 	sub	fp, ip, #4
    //
}
 c101a00:	e24bd00c 	sub	sp, fp, #12
 c101a04:	e89d6800 	ldm	sp, {fp, sp, lr}
 c101a08:	e12fff1e 	bx	lr

0c101a0c <sleep>:

inline void sleep( void )
{
 c101a0c:	e1a0c00d 	mov	ip, sp
 c101a10:	e92dd800 	push	{fp, ip, lr, pc}
 c101a14:	e24cb004 	sub	fp, ip, #4
    CLKCON |= (1 << 2);    // Pone a la CPU en estado IDLE
 c101a18:	e59f3018 	ldr	r3, [pc, #24]	; c101a38 <sleep+0x2c>
 c101a1c:	e59f2014 	ldr	r2, [pc, #20]	; c101a38 <sleep+0x2c>
 c101a20:	e5922000 	ldr	r2, [r2]
 c101a24:	e3822004 	orr	r2, r2, #4
 c101a28:	e5832000 	str	r2, [r3]
}
 c101a2c:	e24bd00c 	sub	sp, fp, #12
 c101a30:	e89d6800 	ldm	sp, {fp, sp, lr}
 c101a34:	e12fff1e 	bx	lr
 c101a38:	01d80004 	.word	0x01d80004

0c101a3c <timers_init>:
static uint32 loop_s = 0;

static void sw_delay_init( void );

void timers_init( void )
{
 c101a3c:	e1a0c00d 	mov	ip, sp
 c101a40:	e92dd800 	push	{fp, ip, lr, pc}
 c101a44:	e24cb004 	sub	fp, ip, #4
    TCFG0 = 0;
 c101a48:	e59f30bc 	ldr	r3, [pc, #188]	; c101b0c <timers_init+0xd0>
 c101a4c:	e3a02000 	mov	r2, #0
 c101a50:	e5832000 	str	r2, [r3]
    TCFG1 = 0;
 c101a54:	e59f30b4 	ldr	r3, [pc, #180]	; c101b10 <timers_init+0xd4>
 c101a58:	e3a02000 	mov	r2, #0
 c101a5c:	e5832000 	str	r2, [r3]

    TCNTB0 = 0;
 c101a60:	e59f30ac 	ldr	r3, [pc, #172]	; c101b14 <timers_init+0xd8>
 c101a64:	e3a02000 	mov	r2, #0
 c101a68:	e5832000 	str	r2, [r3]
    TCMPB0 = 0;
 c101a6c:	e59f30a4 	ldr	r3, [pc, #164]	; c101b18 <timers_init+0xdc>
 c101a70:	e3a02000 	mov	r2, #0
 c101a74:	e5832000 	str	r2, [r3]
    TCNTB1 = 0;
 c101a78:	e59f309c 	ldr	r3, [pc, #156]	; c101b1c <timers_init+0xe0>
 c101a7c:	e3a02000 	mov	r2, #0
 c101a80:	e5832000 	str	r2, [r3]
    TCMPB1 = 0;
 c101a84:	e59f3094 	ldr	r3, [pc, #148]	; c101b20 <timers_init+0xe4>
 c101a88:	e3a02000 	mov	r2, #0
 c101a8c:	e5832000 	str	r2, [r3]
    TCNTB2 = 0;
 c101a90:	e59f308c 	ldr	r3, [pc, #140]	; c101b24 <timers_init+0xe8>
 c101a94:	e3a02000 	mov	r2, #0
 c101a98:	e5832000 	str	r2, [r3]
    TCMPB2 = 0;
 c101a9c:	e59f3084 	ldr	r3, [pc, #132]	; c101b28 <timers_init+0xec>
 c101aa0:	e3a02000 	mov	r2, #0
 c101aa4:	e5832000 	str	r2, [r3]
    TCNTB3 = 0;
 c101aa8:	e59f307c 	ldr	r3, [pc, #124]	; c101b2c <timers_init+0xf0>
 c101aac:	e3a02000 	mov	r2, #0
 c101ab0:	e5832000 	str	r2, [r3]
    TCMPB3 = 0;
 c101ab4:	e59f3074 	ldr	r3, [pc, #116]	; c101b30 <timers_init+0xf4>
 c101ab8:	e3a02000 	mov	r2, #0
 c101abc:	e5832000 	str	r2, [r3]
    TCNTB4 = 0;
 c101ac0:	e59f306c 	ldr	r3, [pc, #108]	; c101b34 <timers_init+0xf8>
 c101ac4:	e3a02000 	mov	r2, #0
 c101ac8:	e5832000 	str	r2, [r3]
    TCMPB4 = 0;
 c101acc:	e59f3064 	ldr	r3, [pc, #100]	; c101b38 <timers_init+0xfc>
 c101ad0:	e3a02000 	mov	r2, #0
 c101ad4:	e5832000 	str	r2, [r3]
    TCNTB5 = 0;
 c101ad8:	e59f305c 	ldr	r3, [pc, #92]	; c101b3c <timers_init+0x100>
 c101adc:	e3a02000 	mov	r2, #0
 c101ae0:	e5832000 	str	r2, [r3]

    TCON = 0x222222;
 c101ae4:	e59f3054 	ldr	r3, [pc, #84]	; c101b40 <timers_init+0x104>
 c101ae8:	e59f2054 	ldr	r2, [pc, #84]	; c101b44 <timers_init+0x108>
 c101aec:	e5832000 	str	r2, [r3]
    TCON = TIMER_ONE_SHOT;
 c101af0:	e59f3048 	ldr	r3, [pc, #72]	; c101b40 <timers_init+0x104>
 c101af4:	e3a02000 	mov	r2, #0
 c101af8:	e5832000 	str	r2, [r3]

    sw_delay_init();
 c101afc:	eb000011 	bl	c101b48 <sw_delay_init>
}
 c101b00:	e24bd00c 	sub	sp, fp, #12
 c101b04:	e89d6800 	ldm	sp, {fp, sp, lr}
 c101b08:	e12fff1e 	bx	lr
 c101b0c:	01d50000 	.word	0x01d50000
 c101b10:	01d50004 	.word	0x01d50004
 c101b14:	01d5000c 	.word	0x01d5000c
 c101b18:	01d50010 	.word	0x01d50010
 c101b1c:	01d50018 	.word	0x01d50018
 c101b20:	01d5001c 	.word	0x01d5001c
 c101b24:	01d50024 	.word	0x01d50024
 c101b28:	01d50028 	.word	0x01d50028
 c101b2c:	01d50030 	.word	0x01d50030
 c101b30:	01d50034 	.word	0x01d50034
 c101b34:	01d5003c 	.word	0x01d5003c
 c101b38:	01d50040 	.word	0x01d50040
 c101b3c:	01d50048 	.word	0x01d50048
 c101b40:	01d50008 	.word	0x01d50008
 c101b44:	00222222 	.word	0x00222222

0c101b48 <sw_delay_init>:

static void sw_delay_init( void )
{
 c101b48:	e1a0c00d 	mov	ip, sp
 c101b4c:	e92dd810 	push	{r4, fp, ip, lr, pc}
 c101b50:	e24cb004 	sub	fp, ip, #4
 c101b54:	e24dd00c 	sub	sp, sp, #12
    uint32 i;
    
    timer3_start();
 c101b58:	eb0000c7 	bl	c101e7c <timer3_start>
    for( i=1000000; i; i--);
 c101b5c:	e59f3088 	ldr	r3, [pc, #136]	; c101bec <sw_delay_init+0xa4>
 c101b60:	e50b3018 	str	r3, [fp, #-24]	; 0xffffffe8
 c101b64:	ea000002 	b	c101b74 <sw_delay_init+0x2c>
 c101b68:	e51b3018 	ldr	r3, [fp, #-24]	; 0xffffffe8
 c101b6c:	e2433001 	sub	r3, r3, #1
 c101b70:	e50b3018 	str	r3, [fp, #-24]	; 0xffffffe8
 c101b74:	e51b3018 	ldr	r3, [fp, #-24]	; 0xffffffe8
 c101b78:	e3530000 	cmp	r3, #0
 c101b7c:	1afffff9 	bne	c101b68 <sw_delay_init+0x20>
    loop_s = ((uint64)1000000*10000)/timer3_stop();
 c101b80:	eb0000e9 	bl	c101f2c <timer3_stop>
 c101b84:	e1a03000 	mov	r3, r0
 c101b88:	e1a02003 	mov	r2, r3
 c101b8c:	e1a03002 	mov	r3, r2
 c101b90:	e3a04000 	mov	r4, #0
 c101b94:	e3a00315 	mov	r0, #1409286144	; 0x54000000
 c101b98:	e2800abe 	add	r0, r0, #778240	; 0xbe000
 c101b9c:	e2800b01 	add	r0, r0, #1024	; 0x400
 c101ba0:	e3a01002 	mov	r1, #2
 c101ba4:	e1a02003 	mov	r2, r3
 c101ba8:	e1a03004 	mov	r3, r4
 c101bac:	eb00039f 	bl	c102a30 <__aeabi_uldivmod>
 c101bb0:	e1a03000 	mov	r3, r0
 c101bb4:	e1a04001 	mov	r4, r1
 c101bb8:	e1a02003 	mov	r2, r3
 c101bbc:	e59f302c 	ldr	r3, [pc, #44]	; c101bf0 <sw_delay_init+0xa8>
 c101bc0:	e5832000 	str	r2, [r3]
    loop_ms = loop_s / 1000;
 c101bc4:	e59f3024 	ldr	r3, [pc, #36]	; c101bf0 <sw_delay_init+0xa8>
 c101bc8:	e5932000 	ldr	r2, [r3]
 c101bcc:	e59f3020 	ldr	r3, [pc, #32]	; c101bf4 <sw_delay_init+0xac>
 c101bd0:	e0831392 	umull	r1, r3, r2, r3
 c101bd4:	e1a02323 	lsr	r2, r3, #6
 c101bd8:	e59f3018 	ldr	r3, [pc, #24]	; c101bf8 <sw_delay_init+0xb0>
 c101bdc:	e5832000 	str	r2, [r3]
};
 c101be0:	e24bd010 	sub	sp, fp, #16
 c101be4:	e89d6810 	ldm	sp, {r4, fp, sp, lr}
 c101be8:	e12fff1e 	bx	lr
 c101bec:	000f4240 	.word	0x000f4240
 c101bf0:	0c103b7c 	.word	0x0c103b7c
 c101bf4:	10624dd3 	.word	0x10624dd3
 c101bf8:	0c103b78 	.word	0x0c103b78

0c101bfc <timer3_delay_ms>:

void timer3_delay_ms( uint16 n )
{
 c101bfc:	e1a0c00d 	mov	ip, sp
 c101c00:	e92dd800 	push	{fp, ip, lr, pc}
 c101c04:	e24cb004 	sub	fp, ip, #4
 c101c08:	e24dd008 	sub	sp, sp, #8
 c101c0c:	e1a03000 	mov	r3, r0
 c101c10:	e14b30be 	strh	r3, [fp, #-14]
    for( ; n; n-- )
 c101c14:	ea000026 	b	c101cb4 <timer3_delay_ms+0xb8>
    {
		TCFG0 = (TCFG0 & ~(0XFF << 8)) | (31 << 8);
 c101c18:	e59f30ac 	ldr	r3, [pc, #172]	; c101ccc <timer3_delay_ms+0xd0>
 c101c1c:	e59f20a8 	ldr	r2, [pc, #168]	; c101ccc <timer3_delay_ms+0xd0>
 c101c20:	e5922000 	ldr	r2, [r2]
 c101c24:	e3c22cff 	bic	r2, r2, #65280	; 0xff00
 c101c28:	e3822c1f 	orr	r2, r2, #7936	; 0x1f00
 c101c2c:	e5832000 	str	r2, [r3]
		TCFG1 = (TCFG1 & ~(0XF << 12)) | (0 << 12);
 c101c30:	e59f3098 	ldr	r3, [pc, #152]	; c101cd0 <timer3_delay_ms+0xd4>
 c101c34:	e59f2094 	ldr	r2, [pc, #148]	; c101cd0 <timer3_delay_ms+0xd4>
 c101c38:	e5922000 	ldr	r2, [r2]
 c101c3c:	e3c22a0f 	bic	r2, r2, #61440	; 0xf000
 c101c40:	e5832000 	str	r2, [r3]
		TCNTB3 = 1000;
 c101c44:	e59f3088 	ldr	r3, [pc, #136]	; c101cd4 <timer3_delay_ms+0xd8>
 c101c48:	e3a02ffa 	mov	r2, #1000	; 0x3e8
 c101c4c:	e5832000 	str	r2, [r3]
		TCON = (TCON & ~(0XF << 16)) | (1 << 17);
 c101c50:	e59f3080 	ldr	r3, [pc, #128]	; c101cd8 <timer3_delay_ms+0xdc>
 c101c54:	e59f207c 	ldr	r2, [pc, #124]	; c101cd8 <timer3_delay_ms+0xdc>
 c101c58:	e5922000 	ldr	r2, [r2]
 c101c5c:	e3c2280f 	bic	r2, r2, #983040	; 0xf0000
 c101c60:	e3822802 	orr	r2, r2, #131072	; 0x20000
 c101c64:	e5832000 	str	r2, [r3]
		TCON = (TCON & ~(0XF << 16)) | (1 << 16);
 c101c68:	e59f3068 	ldr	r3, [pc, #104]	; c101cd8 <timer3_delay_ms+0xdc>
 c101c6c:	e59f2064 	ldr	r2, [pc, #100]	; c101cd8 <timer3_delay_ms+0xdc>
 c101c70:	e5922000 	ldr	r2, [r2]
 c101c74:	e3c2280f 	bic	r2, r2, #983040	; 0xf0000
 c101c78:	e3822801 	orr	r2, r2, #65536	; 0x10000
 c101c7c:	e5832000 	str	r2, [r3]
		while(!TCNTO3);
 c101c80:	e1a00000 	nop			; (mov r0, r0)
 c101c84:	e59f3050 	ldr	r3, [pc, #80]	; c101cdc <timer3_delay_ms+0xe0>
 c101c88:	e5933000 	ldr	r3, [r3]
 c101c8c:	e3530000 	cmp	r3, #0
 c101c90:	0afffffb 	beq	c101c84 <timer3_delay_ms+0x88>
		while(TCNTO3);
 c101c94:	e1a00000 	nop			; (mov r0, r0)
 c101c98:	e59f303c 	ldr	r3, [pc, #60]	; c101cdc <timer3_delay_ms+0xe0>
 c101c9c:	e5933000 	ldr	r3, [r3]
 c101ca0:	e3530000 	cmp	r3, #0
 c101ca4:	1afffffb 	bne	c101c98 <timer3_delay_ms+0x9c>
    loop_ms = loop_s / 1000;
};

void timer3_delay_ms( uint16 n )
{
    for( ; n; n-- )
 c101ca8:	e15b30be 	ldrh	r3, [fp, #-14]
 c101cac:	e2433001 	sub	r3, r3, #1
 c101cb0:	e14b30be 	strh	r3, [fp, #-14]
 c101cb4:	e15b30be 	ldrh	r3, [fp, #-14]
 c101cb8:	e3530000 	cmp	r3, #0
 c101cbc:	1affffd5 	bne	c101c18 <timer3_delay_ms+0x1c>
		TCON = (TCON & ~(0XF << 16)) | (1 << 17);
		TCON = (TCON & ~(0XF << 16)) | (1 << 16);
		while(!TCNTO3);
		while(TCNTO3);
    }
}
 c101cc0:	e24bd00c 	sub	sp, fp, #12
 c101cc4:	e89d6800 	ldm	sp, {fp, sp, lr}
 c101cc8:	e12fff1e 	bx	lr
 c101ccc:	01d50000 	.word	0x01d50000
 c101cd0:	01d50004 	.word	0x01d50004
 c101cd4:	01d50030 	.word	0x01d50030
 c101cd8:	01d50008 	.word	0x01d50008
 c101cdc:	01d50038 	.word	0x01d50038

0c101ce0 <sw_delay_ms>:

void sw_delay_ms( uint16 n )
{
 c101ce0:	e1a0c00d 	mov	ip, sp
 c101ce4:	e92dd800 	push	{fp, ip, lr, pc}
 c101ce8:	e24cb004 	sub	fp, ip, #4
 c101cec:	e24dd010 	sub	sp, sp, #16
 c101cf0:	e1a03000 	mov	r3, r0
 c101cf4:	e14b31b6 	strh	r3, [fp, #-22]	; 0xffffffea
    uint32 i;
    
    for( i=loop_ms*n; i; i-- );
 c101cf8:	e15b31b6 	ldrh	r3, [fp, #-22]	; 0xffffffea
 c101cfc:	e59f2030 	ldr	r2, [pc, #48]	; c101d34 <sw_delay_ms+0x54>
 c101d00:	e5922000 	ldr	r2, [r2]
 c101d04:	e0030392 	mul	r3, r2, r3
 c101d08:	e50b3010 	str	r3, [fp, #-16]
 c101d0c:	ea000002 	b	c101d1c <sw_delay_ms+0x3c>
 c101d10:	e51b3010 	ldr	r3, [fp, #-16]
 c101d14:	e2433001 	sub	r3, r3, #1
 c101d18:	e50b3010 	str	r3, [fp, #-16]
 c101d1c:	e51b3010 	ldr	r3, [fp, #-16]
 c101d20:	e3530000 	cmp	r3, #0
 c101d24:	1afffff9 	bne	c101d10 <sw_delay_ms+0x30>
}
 c101d28:	e24bd00c 	sub	sp, fp, #12
 c101d2c:	e89d6800 	ldm	sp, {fp, sp, lr}
 c101d30:	e12fff1e 	bx	lr
 c101d34:	0c103b78 	.word	0x0c103b78

0c101d38 <timer3_delay_s>:

void timer3_delay_s( uint16 n )
{
 c101d38:	e1a0c00d 	mov	ip, sp
 c101d3c:	e92dd800 	push	{fp, ip, lr, pc}
 c101d40:	e24cb004 	sub	fp, ip, #4
 c101d44:	e24dd008 	sub	sp, sp, #8
 c101d48:	e1a03000 	mov	r3, r0
 c101d4c:	e14b30be 	strh	r3, [fp, #-14]
	for(;n;n--){
 c101d50:	ea000027 	b	c101df4 <timer3_delay_s+0xbc>
		TCFG0 = (TCFG0 & ~(0XFF << 8)) | (63 << 8);
 c101d54:	e59f30b0 	ldr	r3, [pc, #176]	; c101e0c <timer3_delay_s+0xd4>
 c101d58:	e59f20ac 	ldr	r2, [pc, #172]	; c101e0c <timer3_delay_s+0xd4>
 c101d5c:	e5922000 	ldr	r2, [r2]
 c101d60:	e3c22cff 	bic	r2, r2, #65280	; 0xff00
 c101d64:	e3822c3f 	orr	r2, r2, #16128	; 0x3f00
 c101d68:	e5832000 	str	r2, [r3]
		TCFG1 = (TCFG1 & ~(0XF << 12)) | (4 << 12);
 c101d6c:	e59f309c 	ldr	r3, [pc, #156]	; c101e10 <timer3_delay_s+0xd8>
 c101d70:	e59f2098 	ldr	r2, [pc, #152]	; c101e10 <timer3_delay_s+0xd8>
 c101d74:	e5922000 	ldr	r2, [r2]
 c101d78:	e3c22a0f 	bic	r2, r2, #61440	; 0xf000
 c101d7c:	e3822901 	orr	r2, r2, #16384	; 0x4000
 c101d80:	e5832000 	str	r2, [r3]
		TCNTB3 = 31250;
 c101d84:	e59f3088 	ldr	r3, [pc, #136]	; c101e14 <timer3_delay_s+0xdc>
 c101d88:	e59f2088 	ldr	r2, [pc, #136]	; c101e18 <timer3_delay_s+0xe0>
 c101d8c:	e5832000 	str	r2, [r3]
		TCON = (TCON & ~(0XF << 16)) | (1 << 17);
 c101d90:	e59f3084 	ldr	r3, [pc, #132]	; c101e1c <timer3_delay_s+0xe4>
 c101d94:	e59f2080 	ldr	r2, [pc, #128]	; c101e1c <timer3_delay_s+0xe4>
 c101d98:	e5922000 	ldr	r2, [r2]
 c101d9c:	e3c2280f 	bic	r2, r2, #983040	; 0xf0000
 c101da0:	e3822802 	orr	r2, r2, #131072	; 0x20000
 c101da4:	e5832000 	str	r2, [r3]
		TCON = (TCON & ~(0XF << 16)) | (1 << 16);
 c101da8:	e59f306c 	ldr	r3, [pc, #108]	; c101e1c <timer3_delay_s+0xe4>
 c101dac:	e59f2068 	ldr	r2, [pc, #104]	; c101e1c <timer3_delay_s+0xe4>
 c101db0:	e5922000 	ldr	r2, [r2]
 c101db4:	e3c2280f 	bic	r2, r2, #983040	; 0xf0000
 c101db8:	e3822801 	orr	r2, r2, #65536	; 0x10000
 c101dbc:	e5832000 	str	r2, [r3]
		while(!TCNTO3);
 c101dc0:	e1a00000 	nop			; (mov r0, r0)
 c101dc4:	e59f3054 	ldr	r3, [pc, #84]	; c101e20 <timer3_delay_s+0xe8>
 c101dc8:	e5933000 	ldr	r3, [r3]
 c101dcc:	e3530000 	cmp	r3, #0
 c101dd0:	0afffffb 	beq	c101dc4 <timer3_delay_s+0x8c>
		while(TCNTO3);
 c101dd4:	e1a00000 	nop			; (mov r0, r0)
 c101dd8:	e59f3040 	ldr	r3, [pc, #64]	; c101e20 <timer3_delay_s+0xe8>
 c101ddc:	e5933000 	ldr	r3, [r3]
 c101de0:	e3530000 	cmp	r3, #0
 c101de4:	1afffffb 	bne	c101dd8 <timer3_delay_s+0xa0>
    for( i=loop_ms*n; i; i-- );
}

void timer3_delay_s( uint16 n )
{
	for(;n;n--){
 c101de8:	e15b30be 	ldrh	r3, [fp, #-14]
 c101dec:	e2433001 	sub	r3, r3, #1
 c101df0:	e14b30be 	strh	r3, [fp, #-14]
 c101df4:	e15b30be 	ldrh	r3, [fp, #-14]
 c101df8:	e3530000 	cmp	r3, #0
 c101dfc:	1affffd4 	bne	c101d54 <timer3_delay_s+0x1c>
		TCON = (TCON & ~(0XF << 16)) | (1 << 17);
		TCON = (TCON & ~(0XF << 16)) | (1 << 16);
		while(!TCNTO3);
		while(TCNTO3);
	}
}
 c101e00:	e24bd00c 	sub	sp, fp, #12
 c101e04:	e89d6800 	ldm	sp, {fp, sp, lr}
 c101e08:	e12fff1e 	bx	lr
 c101e0c:	01d50000 	.word	0x01d50000
 c101e10:	01d50004 	.word	0x01d50004
 c101e14:	01d50030 	.word	0x01d50030
 c101e18:	00007a12 	.word	0x00007a12
 c101e1c:	01d50008 	.word	0x01d50008
 c101e20:	01d50038 	.word	0x01d50038

0c101e24 <sw_delay_s>:

void sw_delay_s( uint16 n )
{
 c101e24:	e1a0c00d 	mov	ip, sp
 c101e28:	e92dd800 	push	{fp, ip, lr, pc}
 c101e2c:	e24cb004 	sub	fp, ip, #4
 c101e30:	e24dd010 	sub	sp, sp, #16
 c101e34:	e1a03000 	mov	r3, r0
 c101e38:	e14b31b6 	strh	r3, [fp, #-22]	; 0xffffffea
    uint32 i;
    
    for( i=loop_s*n; i; i-- );
 c101e3c:	e15b31b6 	ldrh	r3, [fp, #-22]	; 0xffffffea
 c101e40:	e59f2030 	ldr	r2, [pc, #48]	; c101e78 <sw_delay_s+0x54>
 c101e44:	e5922000 	ldr	r2, [r2]
 c101e48:	e0030392 	mul	r3, r2, r3
 c101e4c:	e50b3010 	str	r3, [fp, #-16]
 c101e50:	ea000002 	b	c101e60 <sw_delay_s+0x3c>
 c101e54:	e51b3010 	ldr	r3, [fp, #-16]
 c101e58:	e2433001 	sub	r3, r3, #1
 c101e5c:	e50b3010 	str	r3, [fp, #-16]
 c101e60:	e51b3010 	ldr	r3, [fp, #-16]
 c101e64:	e3530000 	cmp	r3, #0
 c101e68:	1afffff9 	bne	c101e54 <sw_delay_s+0x30>
}
 c101e6c:	e24bd00c 	sub	sp, fp, #12
 c101e70:	e89d6800 	ldm	sp, {fp, sp, lr}
 c101e74:	e12fff1e 	bx	lr
 c101e78:	0c103b7c 	.word	0x0c103b7c

0c101e7c <timer3_start>:

void timer3_start( void ) 
{
 c101e7c:	e1a0c00d 	mov	ip, sp
 c101e80:	e92dd800 	push	{fp, ip, lr, pc}
 c101e84:	e24cb004 	sub	fp, ip, #4
    TCFG0 = (TCFG0 & ~(0xff << 8)) | (199 << 8);    
 c101e88:	e59f3084 	ldr	r3, [pc, #132]	; c101f14 <timer3_start+0x98>
 c101e8c:	e59f2080 	ldr	r2, [pc, #128]	; c101f14 <timer3_start+0x98>
 c101e90:	e5922000 	ldr	r2, [r2]
 c101e94:	e3c22cff 	bic	r2, r2, #65280	; 0xff00
 c101e98:	e3822cc7 	orr	r2, r2, #50944	; 0xc700
 c101e9c:	e5832000 	str	r2, [r3]
    TCFG1 = (TCFG1 & ~(0xf << 12)) | (4 << 12);
 c101ea0:	e59f3070 	ldr	r3, [pc, #112]	; c101f18 <timer3_start+0x9c>
 c101ea4:	e59f206c 	ldr	r2, [pc, #108]	; c101f18 <timer3_start+0x9c>
 c101ea8:	e5922000 	ldr	r2, [r2]
 c101eac:	e3c22a0f 	bic	r2, r2, #61440	; 0xf000
 c101eb0:	e3822901 	orr	r2, r2, #16384	; 0x4000
 c101eb4:	e5832000 	str	r2, [r3]
    
    TCNTB3 = 0xffff; 
 c101eb8:	e59f305c 	ldr	r3, [pc, #92]	; c101f1c <timer3_start+0xa0>
 c101ebc:	e59f205c 	ldr	r2, [pc, #92]	; c101f20 <timer3_start+0xa4>
 c101ec0:	e5832000 	str	r2, [r3]
    TCON = (TCON & ~(0xf << 16)) | (1 << 17);
 c101ec4:	e59f3058 	ldr	r3, [pc, #88]	; c101f24 <timer3_start+0xa8>
 c101ec8:	e59f2054 	ldr	r2, [pc, #84]	; c101f24 <timer3_start+0xa8>
 c101ecc:	e5922000 	ldr	r2, [r2]
 c101ed0:	e3c2280f 	bic	r2, r2, #983040	; 0xf0000
 c101ed4:	e3822802 	orr	r2, r2, #131072	; 0x20000
 c101ed8:	e5832000 	str	r2, [r3]
    TCON = (TCON & ~(0xf << 16)) | (1 << 16);
 c101edc:	e59f3040 	ldr	r3, [pc, #64]	; c101f24 <timer3_start+0xa8>
 c101ee0:	e59f203c 	ldr	r2, [pc, #60]	; c101f24 <timer3_start+0xa8>
 c101ee4:	e5922000 	ldr	r2, [r2]
 c101ee8:	e3c2280f 	bic	r2, r2, #983040	; 0xf0000
 c101eec:	e3822801 	orr	r2, r2, #65536	; 0x10000
 c101ef0:	e5832000 	str	r2, [r3]
    while( !TCNTO3 );
 c101ef4:	e1a00000 	nop			; (mov r0, r0)
 c101ef8:	e59f3028 	ldr	r3, [pc, #40]	; c101f28 <timer3_start+0xac>
 c101efc:	e5933000 	ldr	r3, [r3]
 c101f00:	e3530000 	cmp	r3, #0
 c101f04:	0afffffb 	beq	c101ef8 <timer3_start+0x7c>
}
 c101f08:	e24bd00c 	sub	sp, fp, #12
 c101f0c:	e89d6800 	ldm	sp, {fp, sp, lr}
 c101f10:	e12fff1e 	bx	lr
 c101f14:	01d50000 	.word	0x01d50000
 c101f18:	01d50004 	.word	0x01d50004
 c101f1c:	01d50030 	.word	0x01d50030
 c101f20:	0000ffff 	.word	0x0000ffff
 c101f24:	01d50008 	.word	0x01d50008
 c101f28:	01d50038 	.word	0x01d50038

0c101f2c <timer3_stop>:

uint16 timer3_stop( void )
{
 c101f2c:	e1a0c00d 	mov	ip, sp
 c101f30:	e92dd800 	push	{fp, ip, lr, pc}
 c101f34:	e24cb004 	sub	fp, ip, #4
    TCON &= ~(1 << 16);
 c101f38:	e59f3038 	ldr	r3, [pc, #56]	; c101f78 <timer3_stop+0x4c>
 c101f3c:	e59f2034 	ldr	r2, [pc, #52]	; c101f78 <timer3_stop+0x4c>
 c101f40:	e5922000 	ldr	r2, [r2]
 c101f44:	e3c22801 	bic	r2, r2, #65536	; 0x10000
 c101f48:	e5832000 	str	r2, [r3]
    return 0xffff - TCNTO3;
 c101f4c:	e59f3028 	ldr	r3, [pc, #40]	; c101f7c <timer3_stop+0x50>
 c101f50:	e5933000 	ldr	r3, [r3]
 c101f54:	e1a03803 	lsl	r3, r3, #16
 c101f58:	e1a03823 	lsr	r3, r3, #16
 c101f5c:	e1e03003 	mvn	r3, r3
 c101f60:	e1a03803 	lsl	r3, r3, #16
 c101f64:	e1a03823 	lsr	r3, r3, #16
}
 c101f68:	e1a00003 	mov	r0, r3
 c101f6c:	e24bd00c 	sub	sp, fp, #12
 c101f70:	e89d6800 	ldm	sp, {fp, sp, lr}
 c101f74:	e12fff1e 	bx	lr
 c101f78:	01d50008 	.word	0x01d50008
 c101f7c:	01d50038 	.word	0x01d50038

0c101f80 <timer3_start_timeout>:

void timer3_start_timeout( uint16 n ) 
{
 c101f80:	e1a0c00d 	mov	ip, sp
 c101f84:	e92dd800 	push	{fp, ip, lr, pc}
 c101f88:	e24cb004 	sub	fp, ip, #4
 c101f8c:	e24dd008 	sub	sp, sp, #8
 c101f90:	e1a03000 	mov	r3, r0
 c101f94:	e14b30be 	strh	r3, [fp, #-14]
    TCFG0 = (TCFG0 & ~(0xff << 8)) | (199 << 8);          
 c101f98:	e59f3084 	ldr	r3, [pc, #132]	; c102024 <timer3_start_timeout+0xa4>
 c101f9c:	e59f2080 	ldr	r2, [pc, #128]	; c102024 <timer3_start_timeout+0xa4>
 c101fa0:	e5922000 	ldr	r2, [r2]
 c101fa4:	e3c22cff 	bic	r2, r2, #65280	; 0xff00
 c101fa8:	e3822cc7 	orr	r2, r2, #50944	; 0xc700
 c101fac:	e5832000 	str	r2, [r3]
    TCFG1 = (TCFG1 & ~(0xf << 12)) | (4 << 12);
 c101fb0:	e59f3070 	ldr	r3, [pc, #112]	; c102028 <timer3_start_timeout+0xa8>
 c101fb4:	e59f206c 	ldr	r2, [pc, #108]	; c102028 <timer3_start_timeout+0xa8>
 c101fb8:	e5922000 	ldr	r2, [r2]
 c101fbc:	e3c22a0f 	bic	r2, r2, #61440	; 0xf000
 c101fc0:	e3822901 	orr	r2, r2, #16384	; 0x4000
 c101fc4:	e5832000 	str	r2, [r3]
    
    TCNTB3 = n; 
 c101fc8:	e59f305c 	ldr	r3, [pc, #92]	; c10202c <timer3_start_timeout+0xac>
 c101fcc:	e15b20be 	ldrh	r2, [fp, #-14]
 c101fd0:	e5832000 	str	r2, [r3]
    TCON = (TCON & ~(0xf << 16)) | (1 << 17);
 c101fd4:	e59f3054 	ldr	r3, [pc, #84]	; c102030 <timer3_start_timeout+0xb0>
 c101fd8:	e59f2050 	ldr	r2, [pc, #80]	; c102030 <timer3_start_timeout+0xb0>
 c101fdc:	e5922000 	ldr	r2, [r2]
 c101fe0:	e3c2280f 	bic	r2, r2, #983040	; 0xf0000
 c101fe4:	e3822802 	orr	r2, r2, #131072	; 0x20000
 c101fe8:	e5832000 	str	r2, [r3]
    TCON = (TCON & ~(0xf << 16)) | (1 << 16);
 c101fec:	e59f303c 	ldr	r3, [pc, #60]	; c102030 <timer3_start_timeout+0xb0>
 c101ff0:	e59f2038 	ldr	r2, [pc, #56]	; c102030 <timer3_start_timeout+0xb0>
 c101ff4:	e5922000 	ldr	r2, [r2]
 c101ff8:	e3c2280f 	bic	r2, r2, #983040	; 0xf0000
 c101ffc:	e3822801 	orr	r2, r2, #65536	; 0x10000
 c102000:	e5832000 	str	r2, [r3]
    while( !TCNTO3 );
 c102004:	e1a00000 	nop			; (mov r0, r0)
 c102008:	e59f3024 	ldr	r3, [pc, #36]	; c102034 <timer3_start_timeout+0xb4>
 c10200c:	e5933000 	ldr	r3, [r3]
 c102010:	e3530000 	cmp	r3, #0
 c102014:	0afffffb 	beq	c102008 <timer3_start_timeout+0x88>
}
 c102018:	e24bd00c 	sub	sp, fp, #12
 c10201c:	e89d6800 	ldm	sp, {fp, sp, lr}
 c102020:	e12fff1e 	bx	lr
 c102024:	01d50000 	.word	0x01d50000
 c102028:	01d50004 	.word	0x01d50004
 c10202c:	01d50030 	.word	0x01d50030
 c102030:	01d50008 	.word	0x01d50008
 c102034:	01d50038 	.word	0x01d50038

0c102038 <timer3_timeout>:

uint16 timer3_timeout( )
{
 c102038:	e1a0c00d 	mov	ip, sp
 c10203c:	e92dd800 	push	{fp, ip, lr, pc}
 c102040:	e24cb004 	sub	fp, ip, #4
    return !TCNTO3;
 c102044:	e59f3024 	ldr	r3, [pc, #36]	; c102070 <timer3_timeout+0x38>
 c102048:	e5933000 	ldr	r3, [r3]
 c10204c:	e3530000 	cmp	r3, #0
 c102050:	13a03000 	movne	r3, #0
 c102054:	03a03001 	moveq	r3, #1
 c102058:	e1a03803 	lsl	r3, r3, #16
 c10205c:	e1a03823 	lsr	r3, r3, #16
}    
 c102060:	e1a00003 	mov	r0, r3
 c102064:	e24bd00c 	sub	sp, fp, #12
 c102068:	e89d6800 	ldm	sp, {fp, sp, lr}
 c10206c:	e12fff1e 	bx	lr
 c102070:	01d50038 	.word	0x01d50038

0c102074 <timer0_open_tick>:

void timer0_open_tick( void (*isr)(void), uint16 tps )
{
 c102074:	e1a0c00d 	mov	ip, sp
 c102078:	e92dd810 	push	{r4, fp, ip, lr, pc}
 c10207c:	e24cb004 	sub	fp, ip, #4
 c102080:	e24dd00c 	sub	sp, sp, #12
 c102084:	e50b0018 	str	r0, [fp, #-24]	; 0xffffffe8
 c102088:	e1a03001 	mov	r3, r1
 c10208c:	e14b31ba 	strh	r3, [fp, #-26]	; 0xffffffe6
	pISR_TIMER0 = (uint32)isr;
 c102090:	e59f31fc 	ldr	r3, [pc, #508]	; c102294 <timer0_open_tick+0x220>
 c102094:	e51b2018 	ldr	r2, [fp, #-24]	; 0xffffffe8
 c102098:	e5832000 	str	r2, [r3]
	I_ISPC |= BIT_TIMER0;
 c10209c:	e59f31f4 	ldr	r3, [pc, #500]	; c102298 <timer0_open_tick+0x224>
 c1020a0:	e59f21f0 	ldr	r2, [pc, #496]	; c102298 <timer0_open_tick+0x224>
 c1020a4:	e5922000 	ldr	r2, [r2]
 c1020a8:	e3822a02 	orr	r2, r2, #8192	; 0x2000
 c1020ac:	e5832000 	str	r2, [r3]
	INTMSK &= ~(BIT_GLOBAL | BIT_TIMER0);
 c1020b0:	e59f21e4 	ldr	r2, [pc, #484]	; c10229c <timer0_open_tick+0x228>
 c1020b4:	e59f31e0 	ldr	r3, [pc, #480]	; c10229c <timer0_open_tick+0x228>
 c1020b8:	e5933000 	ldr	r3, [r3]
 c1020bc:	e3c33301 	bic	r3, r3, #67108864	; 0x4000000
 c1020c0:	e3c33a02 	bic	r3, r3, #8192	; 0x2000
 c1020c4:	e5823000 	str	r3, [r2]

    if( tps > 0 && tps <= 10 ) {
 c1020c8:	e15b31ba 	ldrh	r3, [fp, #-26]	; 0xffffffe6
 c1020cc:	e3530000 	cmp	r3, #0
 c1020d0:	0a000018 	beq	c102138 <timer0_open_tick+0xc4>
 c1020d4:	e15b31ba 	ldrh	r3, [fp, #-26]	; 0xffffffe6
 c1020d8:	e353000a 	cmp	r3, #10
 c1020dc:	8a000015 	bhi	c102138 <timer0_open_tick+0xc4>
		TCFG0 = (TCFG0 & ~(0xff << 0)) | (199 << 0);
 c1020e0:	e59f31b8 	ldr	r3, [pc, #440]	; c1022a0 <timer0_open_tick+0x22c>
 c1020e4:	e59f21b4 	ldr	r2, [pc, #436]	; c1022a0 <timer0_open_tick+0x22c>
 c1020e8:	e5922000 	ldr	r2, [r2]
 c1020ec:	e3c220ff 	bic	r2, r2, #255	; 0xff
 c1020f0:	e38220c7 	orr	r2, r2, #199	; 0xc7
 c1020f4:	e5832000 	str	r2, [r3]
		TCFG1 = (TCFG1 & ~(0xf << 0)) | (2 << 0);
 c1020f8:	e59f31a4 	ldr	r3, [pc, #420]	; c1022a4 <timer0_open_tick+0x230>
 c1020fc:	e59f21a0 	ldr	r2, [pc, #416]	; c1022a4 <timer0_open_tick+0x230>
 c102100:	e5922000 	ldr	r2, [r2]
 c102104:	e3c2200f 	bic	r2, r2, #15
 c102108:	e3822002 	orr	r2, r2, #2
 c10210c:	e5832000 	str	r2, [r3]
        TCNTB0 = (40000U / tps);
 c102110:	e59f4190 	ldr	r4, [pc, #400]	; c1022a8 <timer0_open_tick+0x234>
 c102114:	e15b31ba 	ldrh	r3, [fp, #-26]	; 0xffffffe6
 c102118:	e59f018c 	ldr	r0, [pc, #396]	; c1022ac <timer0_open_tick+0x238>
 c10211c:	e1a01003 	mov	r1, r3
 c102120:	eb0001fc 	bl	c102918 <__aeabi_uidiv>
 c102124:	e1a03000 	mov	r3, r0
 c102128:	e1a03803 	lsl	r3, r3, #16
 c10212c:	e1a03823 	lsr	r3, r3, #16
 c102130:	e5843000 	str	r3, [r4]
 c102134:	ea000047 	b	c102258 <timer0_open_tick+0x1e4>
    } else if( tps > 10 && tps <= 100 ) {
 c102138:	e15b31ba 	ldrh	r3, [fp, #-26]	; 0xffffffe6
 c10213c:	e353000a 	cmp	r3, #10
 c102140:	9a000016 	bls	c1021a0 <timer0_open_tick+0x12c>
 c102144:	e15b31ba 	ldrh	r3, [fp, #-26]	; 0xffffffe6
 c102148:	e3530064 	cmp	r3, #100	; 0x64
 c10214c:	8a000013 	bhi	c1021a0 <timer0_open_tick+0x12c>
		TCFG0 = (TCFG0 & ~(0xff << 0))  | (4 << 0);
 c102150:	e59f3148 	ldr	r3, [pc, #328]	; c1022a0 <timer0_open_tick+0x22c>
 c102154:	e59f2144 	ldr	r2, [pc, #324]	; c1022a0 <timer0_open_tick+0x22c>
 c102158:	e5922000 	ldr	r2, [r2]
 c10215c:	e3c220ff 	bic	r2, r2, #255	; 0xff
 c102160:	e3822004 	orr	r2, r2, #4
 c102164:	e5832000 	str	r2, [r3]
		TCFG1 = (TCFG1 & ~(0xf << 0)) | (4 << 0);
 c102168:	e59f3134 	ldr	r3, [pc, #308]	; c1022a4 <timer0_open_tick+0x230>
 c10216c:	e59f2130 	ldr	r2, [pc, #304]	; c1022a4 <timer0_open_tick+0x230>
 c102170:	e5922000 	ldr	r2, [r2]
 c102174:	e3c2200f 	bic	r2, r2, #15
 c102178:	e3822004 	orr	r2, r2, #4
 c10217c:	e5832000 	str	r2, [r3]
        TCNTB0 = (400000U / (uint32) tps);
 c102180:	e59f4120 	ldr	r4, [pc, #288]	; c1022a8 <timer0_open_tick+0x234>
 c102184:	e15b31ba 	ldrh	r3, [fp, #-26]	; 0xffffffe6
 c102188:	e59f0120 	ldr	r0, [pc, #288]	; c1022b0 <timer0_open_tick+0x23c>
 c10218c:	e1a01003 	mov	r1, r3
 c102190:	eb0001e0 	bl	c102918 <__aeabi_uidiv>
 c102194:	e1a03000 	mov	r3, r0
 c102198:	e5843000 	str	r3, [r4]
 c10219c:	ea00002d 	b	c102258 <timer0_open_tick+0x1e4>
    } else if( tps > 100 && tps <= 1000 ) {
 c1021a0:	e15b31ba 	ldrh	r3, [fp, #-26]	; 0xffffffe6
 c1021a4:	e3530064 	cmp	r3, #100	; 0x64
 c1021a8:	9a000016 	bls	c102208 <timer0_open_tick+0x194>
 c1021ac:	e15b31ba 	ldrh	r3, [fp, #-26]	; 0xffffffe6
 c1021b0:	e3530ffa 	cmp	r3, #1000	; 0x3e8
 c1021b4:	8a000013 	bhi	c102208 <timer0_open_tick+0x194>
		TCFG0 = (TCFG0 & ~(0xff << 0)) | (1 << 0);
 c1021b8:	e59f30e0 	ldr	r3, [pc, #224]	; c1022a0 <timer0_open_tick+0x22c>
 c1021bc:	e59f20dc 	ldr	r2, [pc, #220]	; c1022a0 <timer0_open_tick+0x22c>
 c1021c0:	e5922000 	ldr	r2, [r2]
 c1021c4:	e3c220ff 	bic	r2, r2, #255	; 0xff
 c1021c8:	e3822001 	orr	r2, r2, #1
 c1021cc:	e5832000 	str	r2, [r3]
		TCFG1 = (TCFG1 & ~(0xf << 0)) | (2 << 0);
 c1021d0:	e59f30cc 	ldr	r3, [pc, #204]	; c1022a4 <timer0_open_tick+0x230>
 c1021d4:	e59f20c8 	ldr	r2, [pc, #200]	; c1022a4 <timer0_open_tick+0x230>
 c1021d8:	e5922000 	ldr	r2, [r2]
 c1021dc:	e3c2200f 	bic	r2, r2, #15
 c1021e0:	e3822002 	orr	r2, r2, #2
 c1021e4:	e5832000 	str	r2, [r3]
        TCNTB0 = (4000000U / (uint32) tps);
 c1021e8:	e59f40b8 	ldr	r4, [pc, #184]	; c1022a8 <timer0_open_tick+0x234>
 c1021ec:	e15b31ba 	ldrh	r3, [fp, #-26]	; 0xffffffe6
 c1021f0:	e59f00bc 	ldr	r0, [pc, #188]	; c1022b4 <timer0_open_tick+0x240>
 c1021f4:	e1a01003 	mov	r1, r3
 c1021f8:	eb0001c6 	bl	c102918 <__aeabi_uidiv>
 c1021fc:	e1a03000 	mov	r3, r0
 c102200:	e5843000 	str	r3, [r4]
 c102204:	ea000013 	b	c102258 <timer0_open_tick+0x1e4>
    } else if ( tps > 1000 ) {
 c102208:	e15b31ba 	ldrh	r3, [fp, #-26]	; 0xffffffe6
 c10220c:	e3530ffa 	cmp	r3, #1000	; 0x3e8
 c102210:	9a000010 	bls	c102258 <timer0_open_tick+0x1e4>
		TCFG0 = (TCFG0 & ~(0xff << 0)) | (0 << 0);
 c102214:	e59f3084 	ldr	r3, [pc, #132]	; c1022a0 <timer0_open_tick+0x22c>
 c102218:	e59f2080 	ldr	r2, [pc, #128]	; c1022a0 <timer0_open_tick+0x22c>
 c10221c:	e5922000 	ldr	r2, [r2]
 c102220:	e3c220ff 	bic	r2, r2, #255	; 0xff
 c102224:	e5832000 	str	r2, [r3]
		TCFG1 = (TCFG1 & ~(0xf << 0)) | (0 << 0);
 c102228:	e59f3074 	ldr	r3, [pc, #116]	; c1022a4 <timer0_open_tick+0x230>
 c10222c:	e59f2070 	ldr	r2, [pc, #112]	; c1022a4 <timer0_open_tick+0x230>
 c102230:	e5922000 	ldr	r2, [r2]
 c102234:	e3c2200f 	bic	r2, r2, #15
 c102238:	e5832000 	str	r2, [r3]
        TCNTB0 = (32000000U / (uint32) tps);
 c10223c:	e59f4064 	ldr	r4, [pc, #100]	; c1022a8 <timer0_open_tick+0x234>
 c102240:	e15b31ba 	ldrh	r3, [fp, #-26]	; 0xffffffe6
 c102244:	e59f006c 	ldr	r0, [pc, #108]	; c1022b8 <timer0_open_tick+0x244>
 c102248:	e1a01003 	mov	r1, r3
 c10224c:	eb0001b1 	bl	c102918 <__aeabi_uidiv>
 c102250:	e1a03000 	mov	r3, r0
 c102254:	e5843000 	str	r3, [r4]
    }

	TCON = (TCON & ~(0x7 << 0)) | (1 << 1) | (1<<3);
 c102258:	e59f305c 	ldr	r3, [pc, #92]	; c1022bc <timer0_open_tick+0x248>
 c10225c:	e59f2058 	ldr	r2, [pc, #88]	; c1022bc <timer0_open_tick+0x248>
 c102260:	e5922000 	ldr	r2, [r2]
 c102264:	e3c2200f 	bic	r2, r2, #15
 c102268:	e382200a 	orr	r2, r2, #10
 c10226c:	e5832000 	str	r2, [r3]
	TCON = (TCON & ~(0x7 << 0)) | (1 << 0) | (1<<3);
 c102270:	e59f3044 	ldr	r3, [pc, #68]	; c1022bc <timer0_open_tick+0x248>
 c102274:	e59f2040 	ldr	r2, [pc, #64]	; c1022bc <timer0_open_tick+0x248>
 c102278:	e5922000 	ldr	r2, [r2]
 c10227c:	e3c2200f 	bic	r2, r2, #15
 c102280:	e3822009 	orr	r2, r2, #9
 c102284:	e5832000 	str	r2, [r3]
}
 c102288:	e24bd010 	sub	sp, fp, #16
 c10228c:	e89d6810 	ldm	sp, {r4, fp, sp, lr}
 c102290:	e12fff1e 	bx	lr
 c102294:	0c7fff54 	.word	0x0c7fff54
 c102298:	01e00024 	.word	0x01e00024
 c10229c:	01e0000c 	.word	0x01e0000c
 c1022a0:	01d50000 	.word	0x01d50000
 c1022a4:	01d50004 	.word	0x01d50004
 c1022a8:	01d5000c 	.word	0x01d5000c
 c1022ac:	00009c40 	.word	0x00009c40
 c1022b0:	00061a80 	.word	0x00061a80
 c1022b4:	003d0900 	.word	0x003d0900
 c1022b8:	01e84800 	.word	0x01e84800
 c1022bc:	01d50008 	.word	0x01d50008

0c1022c0 <timer0_open_ms>:

void timer0_open_ms( void (*isr)(void), uint16 ms, uint8 mode )
{
 c1022c0:	e1a0c00d 	mov	ip, sp
 c1022c4:	e92dd800 	push	{fp, ip, lr, pc}
 c1022c8:	e24cb004 	sub	fp, ip, #4
 c1022cc:	e24dd008 	sub	sp, sp, #8
 c1022d0:	e50b0010 	str	r0, [fp, #-16]
 c1022d4:	e1a03002 	mov	r3, r2
 c1022d8:	e14b11b2 	strh	r1, [fp, #-18]	; 0xffffffee
 c1022dc:	e54b3013 	strb	r3, [fp, #-19]	; 0xffffffed
    pISR_TIMER0 = (uint32) isr;
 c1022e0:	e59f30b8 	ldr	r3, [pc, #184]	; c1023a0 <timer0_open_ms+0xe0>
 c1022e4:	e51b2010 	ldr	r2, [fp, #-16]
 c1022e8:	e5832000 	str	r2, [r3]
    I_ISPC     |= BIT_TIMER0;
 c1022ec:	e59f30b0 	ldr	r3, [pc, #176]	; c1023a4 <timer0_open_ms+0xe4>
 c1022f0:	e59f20ac 	ldr	r2, [pc, #172]	; c1023a4 <timer0_open_ms+0xe4>
 c1022f4:	e5922000 	ldr	r2, [r2]
 c1022f8:	e3822a02 	orr	r2, r2, #8192	; 0x2000
 c1022fc:	e5832000 	str	r2, [r3]
    INTMSK     &= ~(BIT_GLOBAL | BIT_TIMER0);
 c102300:	e59f20a0 	ldr	r2, [pc, #160]	; c1023a8 <timer0_open_ms+0xe8>
 c102304:	e59f309c 	ldr	r3, [pc, #156]	; c1023a8 <timer0_open_ms+0xe8>
 c102308:	e5933000 	ldr	r3, [r3]
 c10230c:	e3c33301 	bic	r3, r3, #67108864	; 0x4000000
 c102310:	e3c33a02 	bic	r3, r3, #8192	; 0x2000
 c102314:	e5823000 	str	r3, [r2]

    TCFG0 = (TCFG0 & ~(0XFF << 0)) | (199 << 0);
 c102318:	e59f308c 	ldr	r3, [pc, #140]	; c1023ac <timer0_open_ms+0xec>
 c10231c:	e59f2088 	ldr	r2, [pc, #136]	; c1023ac <timer0_open_ms+0xec>
 c102320:	e5922000 	ldr	r2, [r2]
 c102324:	e3c220ff 	bic	r2, r2, #255	; 0xff
 c102328:	e38220c7 	orr	r2, r2, #199	; 0xc7
 c10232c:	e5832000 	str	r2, [r3]
    TCFG1 = (TCFG1 & ~(0XF << 0)) | (4 << 0);
 c102330:	e59f3078 	ldr	r3, [pc, #120]	; c1023b0 <timer0_open_ms+0xf0>
 c102334:	e59f2074 	ldr	r2, [pc, #116]	; c1023b0 <timer0_open_ms+0xf0>
 c102338:	e5922000 	ldr	r2, [r2]
 c10233c:	e3c2200f 	bic	r2, r2, #15
 c102340:	e3822004 	orr	r2, r2, #4
 c102344:	e5832000 	str	r2, [r3]
    TCNTB0 = 10*ms;
 c102348:	e59f1064 	ldr	r1, [pc, #100]	; c1023b4 <timer0_open_ms+0xf4>
 c10234c:	e15b21b2 	ldrh	r2, [fp, #-18]	; 0xffffffee
 c102350:	e1a03002 	mov	r3, r2
 c102354:	e1a03103 	lsl	r3, r3, #2
 c102358:	e0833002 	add	r3, r3, r2
 c10235c:	e1a03083 	lsl	r3, r3, #1
 c102360:	e5813000 	str	r3, [r1]

	TCON = (TCON & ~(0XF << 0)) | (1 << 1);
 c102364:	e59f304c 	ldr	r3, [pc, #76]	; c1023b8 <timer0_open_ms+0xf8>
 c102368:	e59f2048 	ldr	r2, [pc, #72]	; c1023b8 <timer0_open_ms+0xf8>
 c10236c:	e5922000 	ldr	r2, [r2]
 c102370:	e3c2200f 	bic	r2, r2, #15
 c102374:	e3822002 	orr	r2, r2, #2
 c102378:	e5832000 	str	r2, [r3]
	TCON = (TCON & ~(0XF << 0)) | (1 << 0);
 c10237c:	e59f3034 	ldr	r3, [pc, #52]	; c1023b8 <timer0_open_ms+0xf8>
 c102380:	e59f2030 	ldr	r2, [pc, #48]	; c1023b8 <timer0_open_ms+0xf8>
 c102384:	e5922000 	ldr	r2, [r2]
 c102388:	e3c2200f 	bic	r2, r2, #15
 c10238c:	e3822001 	orr	r2, r2, #1
 c102390:	e5832000 	str	r2, [r3]
}
 c102394:	e24bd00c 	sub	sp, fp, #12
 c102398:	e89d6800 	ldm	sp, {fp, sp, lr}
 c10239c:	e12fff1e 	bx	lr
 c1023a0:	0c7fff54 	.word	0x0c7fff54
 c1023a4:	01e00024 	.word	0x01e00024
 c1023a8:	01e0000c 	.word	0x01e0000c
 c1023ac:	01d50000 	.word	0x01d50000
 c1023b0:	01d50004 	.word	0x01d50004
 c1023b4:	01d5000c 	.word	0x01d5000c
 c1023b8:	01d50008 	.word	0x01d50008

0c1023bc <timer0_close>:

void timer0_close( void )
{
 c1023bc:	e1a0c00d 	mov	ip, sp
 c1023c0:	e92dd800 	push	{fp, ip, lr, pc}
 c1023c4:	e24cb004 	sub	fp, ip, #4
	TCNTB0 = 0;
 c1023c8:	e59f306c 	ldr	r3, [pc, #108]	; c10243c <timer0_close+0x80>
 c1023cc:	e3a02000 	mov	r2, #0
 c1023d0:	e5832000 	str	r2, [r3]
	TCMPB0 = 0;
 c1023d4:	e59f3064 	ldr	r3, [pc, #100]	; c102440 <timer0_close+0x84>
 c1023d8:	e3a02000 	mov	r2, #0
 c1023dc:	e5832000 	str	r2, [r3]

	TCON = (TCON & ~(0XF << 0)) | (1 << 1);
 c1023e0:	e59f305c 	ldr	r3, [pc, #92]	; c102444 <timer0_close+0x88>
 c1023e4:	e59f2058 	ldr	r2, [pc, #88]	; c102444 <timer0_close+0x88>
 c1023e8:	e5922000 	ldr	r2, [r2]
 c1023ec:	e3c2200f 	bic	r2, r2, #15
 c1023f0:	e3822002 	orr	r2, r2, #2
 c1023f4:	e5832000 	str	r2, [r3]
	TCON = (TCON & ~(0XF << 0)) | (1 << 0);
 c1023f8:	e59f3044 	ldr	r3, [pc, #68]	; c102444 <timer0_close+0x88>
 c1023fc:	e59f2040 	ldr	r2, [pc, #64]	; c102444 <timer0_close+0x88>
 c102400:	e5922000 	ldr	r2, [r2]
 c102404:	e3c2200f 	bic	r2, r2, #15
 c102408:	e3822001 	orr	r2, r2, #1
 c10240c:	e5832000 	str	r2, [r3]

	INTMSK |= BIT_TIMER0;
 c102410:	e59f3030 	ldr	r3, [pc, #48]	; c102448 <timer0_close+0x8c>
 c102414:	e59f202c 	ldr	r2, [pc, #44]	; c102448 <timer0_close+0x8c>
 c102418:	e5922000 	ldr	r2, [r2]
 c10241c:	e3822a02 	orr	r2, r2, #8192	; 0x2000
 c102420:	e5832000 	str	r2, [r3]
	pISR_TIMER0 = (uint32) isr_TIMER0_dummy;
 c102424:	e59f3020 	ldr	r3, [pc, #32]	; c10244c <timer0_close+0x90>
 c102428:	e59f2020 	ldr	r2, [pc, #32]	; c102450 <timer0_close+0x94>
 c10242c:	e5832000 	str	r2, [r3]
}
 c102430:	e24bd00c 	sub	sp, fp, #12
 c102434:	e89d6800 	ldm	sp, {fp, sp, lr}
 c102438:	e12fff1e 	bx	lr
 c10243c:	01d5000c 	.word	0x01d5000c
 c102440:	01d50010 	.word	0x01d50010
 c102444:	01d50008 	.word	0x01d50008
 c102448:	01e0000c 	.word	0x01e0000c
 c10244c:	0c7fff54 	.word	0x0c7fff54
 c102450:	0c1017b8 	.word	0x0c1017b8

0c102454 <uart0_init>:
#include <s3c44b0x.h>
#include <uart.h>

void uart0_init( void )
{
 c102454:	e1a0c00d 	mov	ip, sp
 c102458:	e92dd800 	push	{fp, ip, lr, pc}
 c10245c:	e24cb004 	sub	fp, ip, #4
    UFCON0 = 0x1;
 c102460:	e59f3040 	ldr	r3, [pc, #64]	; c1024a8 <uart0_init+0x54>
 c102464:	e3a02001 	mov	r2, #1
 c102468:	e5832000 	str	r2, [r3]
    UMCON0 = 0x0;
 c10246c:	e59f3038 	ldr	r3, [pc, #56]	; c1024ac <uart0_init+0x58>
 c102470:	e3a02000 	mov	r2, #0
 c102474:	e5832000 	str	r2, [r3]
    ULCON0 = 0x3;
 c102478:	e3a0361d 	mov	r3, #30408704	; 0x1d00000
 c10247c:	e3a02003 	mov	r2, #3
 c102480:	e5832000 	str	r2, [r3]
    UBRDIV0 = 0x22;
 c102484:	e59f3024 	ldr	r3, [pc, #36]	; c1024b0 <uart0_init+0x5c>
 c102488:	e3a02022 	mov	r2, #34	; 0x22
 c10248c:	e5832000 	str	r2, [r3]
    UCON0 = 0x5;
 c102490:	e59f301c 	ldr	r3, [pc, #28]	; c1024b4 <uart0_init+0x60>
 c102494:	e3a02005 	mov	r2, #5
 c102498:	e5832000 	str	r2, [r3]
}
 c10249c:	e24bd00c 	sub	sp, fp, #12
 c1024a0:	e89d6800 	ldm	sp, {fp, sp, lr}
 c1024a4:	e12fff1e 	bx	lr
 c1024a8:	01d00008 	.word	0x01d00008
 c1024ac:	01d0000c 	.word	0x01d0000c
 c1024b0:	01d00028 	.word	0x01d00028
 c1024b4:	01d00004 	.word	0x01d00004

0c1024b8 <uart0_putchar>:

void uart0_putchar( char ch )
{
 c1024b8:	e1a0c00d 	mov	ip, sp
 c1024bc:	e92dd800 	push	{fp, ip, lr, pc}
 c1024c0:	e24cb004 	sub	fp, ip, #4
 c1024c4:	e24dd008 	sub	sp, sp, #8
 c1024c8:	e1a03000 	mov	r3, r0
 c1024cc:	e54b300d 	strb	r3, [fp, #-13]
    while( UFSTAT0 & (1<<9) ); // leemos del bit 9 full
 c1024d0:	e1a00000 	nop			; (mov r0, r0)
 c1024d4:	e59f3024 	ldr	r3, [pc, #36]	; c102500 <uart0_putchar+0x48>
 c1024d8:	e5933000 	ldr	r3, [r3]
 c1024dc:	e2033c02 	and	r3, r3, #512	; 0x200
 c1024e0:	e3530000 	cmp	r3, #0
 c1024e4:	1afffffa 	bne	c1024d4 <uart0_putchar+0x1c>
    UTXH0 = ch;
 c1024e8:	e59f3014 	ldr	r3, [pc, #20]	; c102504 <uart0_putchar+0x4c>
 c1024ec:	e55b200d 	ldrb	r2, [fp, #-13]
 c1024f0:	e5832000 	str	r2, [r3]
}        
 c1024f4:	e24bd00c 	sub	sp, fp, #12
 c1024f8:	e89d6800 	ldm	sp, {fp, sp, lr}
 c1024fc:	e12fff1e 	bx	lr
 c102500:	01d00018 	.word	0x01d00018
 c102504:	01d00020 	.word	0x01d00020

0c102508 <uart0_getchar>:

char uart0_getchar( void )
{
 c102508:	e1a0c00d 	mov	ip, sp
 c10250c:	e92dd800 	push	{fp, ip, lr, pc}
 c102510:	e24cb004 	sub	fp, ip, #4
    while( (UFSTAT0 & 0xf) == 0 ); // leemos del URx fifo
 c102514:	e1a00000 	nop			; (mov r0, r0)
 c102518:	e59f3028 	ldr	r3, [pc, #40]	; c102548 <uart0_getchar+0x40>
 c10251c:	e5933000 	ldr	r3, [r3]
 c102520:	e203300f 	and	r3, r3, #15
 c102524:	e3530000 	cmp	r3, #0
 c102528:	0afffffa 	beq	c102518 <uart0_getchar+0x10>
    return URXH0;
 c10252c:	e59f3018 	ldr	r3, [pc, #24]	; c10254c <uart0_getchar+0x44>
 c102530:	e5933000 	ldr	r3, [r3]
 c102534:	e20330ff 	and	r3, r3, #255	; 0xff
}
 c102538:	e1a00003 	mov	r0, r3
 c10253c:	e24bd00c 	sub	sp, fp, #12
 c102540:	e89d6800 	ldm	sp, {fp, sp, lr}
 c102544:	e12fff1e 	bx	lr
 c102548:	01d00018 	.word	0x01d00018
 c10254c:	01d00024 	.word	0x01d00024

0c102550 <uart0_puts>:

void uart0_puts( char *s )
{
 c102550:	e1a0c00d 	mov	ip, sp
 c102554:	e92dd800 	push	{fp, ip, lr, pc}
 c102558:	e24cb004 	sub	fp, ip, #4
 c10255c:	e24dd008 	sub	sp, sp, #8
 c102560:	e50b0010 	str	r0, [fp, #-16]
	while( *s  ) uart0_putchar( *s++ );
 c102564:	ea000006 	b	c102584 <uart0_puts+0x34>
 c102568:	e51b3010 	ldr	r3, [fp, #-16]
 c10256c:	e5d33000 	ldrb	r3, [r3]
 c102570:	e51b2010 	ldr	r2, [fp, #-16]
 c102574:	e2822001 	add	r2, r2, #1
 c102578:	e50b2010 	str	r2, [fp, #-16]
 c10257c:	e1a00003 	mov	r0, r3
 c102580:	ebffffcc 	bl	c1024b8 <uart0_putchar>
 c102584:	e51b3010 	ldr	r3, [fp, #-16]
 c102588:	e5d33000 	ldrb	r3, [r3]
 c10258c:	e3530000 	cmp	r3, #0
 c102590:	1afffff4 	bne	c102568 <uart0_puts+0x18>
}
 c102594:	e24bd00c 	sub	sp, fp, #12
 c102598:	e89d6800 	ldm	sp, {fp, sp, lr}
 c10259c:	e12fff1e 	bx	lr

0c1025a0 <uart0_putint>:

void uart0_putint( int32 i )
{
 c1025a0:	e1a0c00d 	mov	ip, sp
 c1025a4:	e92dd800 	push	{fp, ip, lr, pc}
 c1025a8:	e24cb004 	sub	fp, ip, #4
 c1025ac:	e24dd020 	sub	sp, sp, #32
 c1025b0:	e50b0028 	str	r0, [fp, #-40]	; 0xffffffd8
	int8 num = 1;
 c1025b4:	e3a03001 	mov	r3, #1
 c1025b8:	e54b300d 	strb	r3, [fp, #-13]
	if(i < 0) {
 c1025bc:	e51b3028 	ldr	r3, [fp, #-40]	; 0xffffffd8
 c1025c0:	e3530000 	cmp	r3, #0
 c1025c4:	aa000004 	bge	c1025dc <uart0_putint+0x3c>
		num = -1;
 c1025c8:	e3e03000 	mvn	r3, #0
 c1025cc:	e54b300d 	strb	r3, [fp, #-13]
		i *= -1;
 c1025d0:	e51b3028 	ldr	r3, [fp, #-40]	; 0xffffffd8
 c1025d4:	e2633000 	rsb	r3, r3, #0
 c1025d8:	e50b3028 	str	r3, [fp, #-40]	; 0xffffffd8
	}

    char buf[8 + 1];
    char *p = buf + 8;
 c1025dc:	e24b3020 	sub	r3, fp, #32
 c1025e0:	e2833008 	add	r3, r3, #8
 c1025e4:	e50b3014 	str	r3, [fp, #-20]	; 0xffffffec
    int8 c;

    *p = '\0';
 c1025e8:	e51b3014 	ldr	r3, [fp, #-20]	; 0xffffffec
 c1025ec:	e3a02000 	mov	r2, #0
 c1025f0:	e5c32000 	strb	r2, [r3]

    do {
        c = i % 10;
 c1025f4:	e51b1028 	ldr	r1, [fp, #-40]	; 0xffffffd8
 c1025f8:	e59f30a8 	ldr	r3, [pc, #168]	; c1026a8 <uart0_putint+0x108>
 c1025fc:	e0c32391 	smull	r2, r3, r1, r3
 c102600:	e1a02143 	asr	r2, r3, #2
 c102604:	e1a03fc1 	asr	r3, r1, #31
 c102608:	e0632002 	rsb	r2, r3, r2
 c10260c:	e1a03002 	mov	r3, r2
 c102610:	e1a03103 	lsl	r3, r3, #2
 c102614:	e0833002 	add	r3, r3, r2
 c102618:	e1a03083 	lsl	r3, r3, #1
 c10261c:	e0632001 	rsb	r2, r3, r1
 c102620:	e1a03002 	mov	r3, r2
 c102624:	e54b3015 	strb	r3, [fp, #-21]	; 0xffffffeb
        *--p = '0' + c;
 c102628:	e51b3014 	ldr	r3, [fp, #-20]	; 0xffffffec
 c10262c:	e2433001 	sub	r3, r3, #1
 c102630:	e50b3014 	str	r3, [fp, #-20]	; 0xffffffec
 c102634:	e55b3015 	ldrb	r3, [fp, #-21]	; 0xffffffeb
 c102638:	e2833030 	add	r3, r3, #48	; 0x30
 c10263c:	e20320ff 	and	r2, r3, #255	; 0xff
 c102640:	e51b3014 	ldr	r3, [fp, #-20]	; 0xffffffec
 c102644:	e5c32000 	strb	r2, [r3]
        i /= 10;
 c102648:	e51b3028 	ldr	r3, [fp, #-40]	; 0xffffffd8
 c10264c:	e59f2054 	ldr	r2, [pc, #84]	; c1026a8 <uart0_putint+0x108>
 c102650:	e0c21293 	smull	r1, r2, r3, r2
 c102654:	e1a02142 	asr	r2, r2, #2
 c102658:	e1a03fc3 	asr	r3, r3, #31
 c10265c:	e0633002 	rsb	r3, r3, r2
 c102660:	e50b3028 	str	r3, [fp, #-40]	; 0xffffffd8
    } while( i > 0 );
 c102664:	e51b3028 	ldr	r3, [fp, #-40]	; 0xffffffd8
 c102668:	e3530000 	cmp	r3, #0
 c10266c:	caffffe0 	bgt	c1025f4 <uart0_putint+0x54>

    if(num == -1) *--p = '-';
 c102670:	e15b30dd 	ldrsb	r3, [fp, #-13]
 c102674:	e3730001 	cmn	r3, #1
 c102678:	1a000005 	bne	c102694 <uart0_putint+0xf4>
 c10267c:	e51b3014 	ldr	r3, [fp, #-20]	; 0xffffffec
 c102680:	e2433001 	sub	r3, r3, #1
 c102684:	e50b3014 	str	r3, [fp, #-20]	; 0xffffffec
 c102688:	e51b3014 	ldr	r3, [fp, #-20]	; 0xffffffec
 c10268c:	e3a0202d 	mov	r2, #45	; 0x2d
 c102690:	e5c32000 	strb	r2, [r3]

    uart0_puts( p );
 c102694:	e51b0014 	ldr	r0, [fp, #-20]	; 0xffffffec
 c102698:	ebffffac 	bl	c102550 <uart0_puts>
}
 c10269c:	e24bd00c 	sub	sp, fp, #12
 c1026a0:	e89d6800 	ldm	sp, {fp, sp, lr}
 c1026a4:	e12fff1e 	bx	lr
 c1026a8:	66666667 	.word	0x66666667

0c1026ac <uart0_puthex>:

void uart0_puthex( uint32 i )
{
 c1026ac:	e1a0c00d 	mov	ip, sp
 c1026b0:	e92dd800 	push	{fp, ip, lr, pc}
 c1026b4:	e24cb004 	sub	fp, ip, #4
 c1026b8:	e24dd018 	sub	sp, sp, #24
 c1026bc:	e50b0020 	str	r0, [fp, #-32]	; 0xffffffe0
    char buf[8 + 1];
    char *p = buf + 8;
 c1026c0:	e24b301c 	sub	r3, fp, #28
 c1026c4:	e2833008 	add	r3, r3, #8
 c1026c8:	e50b3010 	str	r3, [fp, #-16]
    uint8 c;

    *p = '\0';
 c1026cc:	e51b3010 	ldr	r3, [fp, #-16]
 c1026d0:	e3a02000 	mov	r2, #0
 c1026d4:	e5c32000 	strb	r2, [r3]

    do {
        c = i & 0xf;
 c1026d8:	e51b3020 	ldr	r3, [fp, #-32]	; 0xffffffe0
 c1026dc:	e20330ff 	and	r3, r3, #255	; 0xff
 c1026e0:	e203300f 	and	r3, r3, #15
 c1026e4:	e54b3011 	strb	r3, [fp, #-17]	; 0xffffffef
        if( c < 10 )
 c1026e8:	e55b3011 	ldrb	r3, [fp, #-17]	; 0xffffffef
 c1026ec:	e3530009 	cmp	r3, #9
 c1026f0:	8a000008 	bhi	c102718 <uart0_puthex+0x6c>
            *--p = '0' + c;
 c1026f4:	e51b3010 	ldr	r3, [fp, #-16]
 c1026f8:	e2433001 	sub	r3, r3, #1
 c1026fc:	e50b3010 	str	r3, [fp, #-16]
 c102700:	e55b3011 	ldrb	r3, [fp, #-17]	; 0xffffffef
 c102704:	e2833030 	add	r3, r3, #48	; 0x30
 c102708:	e20320ff 	and	r2, r3, #255	; 0xff
 c10270c:	e51b3010 	ldr	r3, [fp, #-16]
 c102710:	e5c32000 	strb	r2, [r3]
 c102714:	ea000007 	b	c102738 <uart0_puthex+0x8c>
        else
            *--p = 'a' + c - 10;
 c102718:	e51b3010 	ldr	r3, [fp, #-16]
 c10271c:	e2433001 	sub	r3, r3, #1
 c102720:	e50b3010 	str	r3, [fp, #-16]
 c102724:	e55b3011 	ldrb	r3, [fp, #-17]	; 0xffffffef
 c102728:	e2833057 	add	r3, r3, #87	; 0x57
 c10272c:	e20320ff 	and	r2, r3, #255	; 0xff
 c102730:	e51b3010 	ldr	r3, [fp, #-16]
 c102734:	e5c32000 	strb	r2, [r3]
        i = i >> 4;
 c102738:	e51b3020 	ldr	r3, [fp, #-32]	; 0xffffffe0
 c10273c:	e1a03223 	lsr	r3, r3, #4
 c102740:	e50b3020 	str	r3, [fp, #-32]	; 0xffffffe0
    } while( i );
 c102744:	e51b3020 	ldr	r3, [fp, #-32]	; 0xffffffe0
 c102748:	e3530000 	cmp	r3, #0
 c10274c:	1affffe1 	bne	c1026d8 <uart0_puthex+0x2c>

    uart0_puts( p );
 c102750:	e51b0010 	ldr	r0, [fp, #-16]
 c102754:	ebffff7d 	bl	c102550 <uart0_puts>
}
 c102758:	e24bd00c 	sub	sp, fp, #12
 c10275c:	e89d6800 	ldm	sp, {fp, sp, lr}
 c102760:	e12fff1e 	bx	lr

0c102764 <uart0_gets>:

void uart0_gets( char *s )
{
 c102764:	e1a0c00d 	mov	ip, sp
 c102768:	e92dd810 	push	{r4, fp, ip, lr, pc}
 c10276c:	e24cb004 	sub	fp, ip, #4
 c102770:	e24dd014 	sub	sp, sp, #20
 c102774:	e50b0020 	str	r0, [fp, #-32]	; 0xffffffe0
	int i = 0;
 c102778:	e3a03000 	mov	r3, #0
 c10277c:	e50b3018 	str	r3, [fp, #-24]	; 0xffffffe8
	while( (s[i] = uart0_getchar( )) != '\n' ) i++;
 c102780:	ea000002 	b	c102790 <uart0_gets+0x2c>
 c102784:	e51b3018 	ldr	r3, [fp, #-24]	; 0xffffffe8
 c102788:	e2833001 	add	r3, r3, #1
 c10278c:	e50b3018 	str	r3, [fp, #-24]	; 0xffffffe8
 c102790:	e51b3018 	ldr	r3, [fp, #-24]	; 0xffffffe8
 c102794:	e51b2020 	ldr	r2, [fp, #-32]	; 0xffffffe0
 c102798:	e0824003 	add	r4, r2, r3
 c10279c:	ebffff59 	bl	c102508 <uart0_getchar>
 c1027a0:	e1a03000 	mov	r3, r0
 c1027a4:	e5c43000 	strb	r3, [r4]
 c1027a8:	e5d43000 	ldrb	r3, [r4]
 c1027ac:	e353000a 	cmp	r3, #10
 c1027b0:	1afffff3 	bne	c102784 <uart0_gets+0x20>
	s[i] = '\0';
 c1027b4:	e51b3018 	ldr	r3, [fp, #-24]	; 0xffffffe8
 c1027b8:	e51b2020 	ldr	r2, [fp, #-32]	; 0xffffffe0
 c1027bc:	e0823003 	add	r3, r2, r3
 c1027c0:	e3a02000 	mov	r2, #0
 c1027c4:	e5c32000 	strb	r2, [r3]
}
 c1027c8:	e24bd010 	sub	sp, fp, #16
 c1027cc:	e89d6810 	ldm	sp, {r4, fp, sp, lr}
 c1027d0:	e12fff1e 	bx	lr

0c1027d4 <uart0_getint>:

int32 uart0_getint( void )
{
 c1027d4:	e1a0c00d 	mov	ip, sp
 c1027d8:	e92dd800 	push	{fp, ip, lr, pc}
 c1027dc:	e24cb004 	sub	fp, ip, #4
 c1027e0:	e24dd008 	sub	sp, sp, #8
	int32 num = 0;
 c1027e4:	e3a03000 	mov	r3, #0
 c1027e8:	e50b3010 	str	r3, [fp, #-16]
	char n = uart0_getchar( );
 c1027ec:	ebffff45 	bl	c102508 <uart0_getchar>
 c1027f0:	e1a03000 	mov	r3, r0
 c1027f4:	e54b3011 	strb	r3, [fp, #-17]	; 0xffffffef
	int8 neg = 1;
 c1027f8:	e3a03001 	mov	r3, #1
 c1027fc:	e54b3012 	strb	r3, [fp, #-18]	; 0xffffffee

	while( n != '\n' ) {
 c102800:	ea000013 	b	c102854 <uart0_getint+0x80>
		if(n == '-') neg = -1;
 c102804:	e55b3011 	ldrb	r3, [fp, #-17]	; 0xffffffef
 c102808:	e353002d 	cmp	r3, #45	; 0x2d
 c10280c:	1a000002 	bne	c10281c <uart0_getint+0x48>
 c102810:	e3e03000 	mvn	r3, #0
 c102814:	e54b3012 	strb	r3, [fp, #-18]	; 0xffffffee
 c102818:	ea00000a 	b	c102848 <uart0_getint+0x74>
		else {
			num *= 10;
 c10281c:	e51b2010 	ldr	r2, [fp, #-16]
 c102820:	e1a03002 	mov	r3, r2
 c102824:	e1a03103 	lsl	r3, r3, #2
 c102828:	e0833002 	add	r3, r3, r2
 c10282c:	e1a03083 	lsl	r3, r3, #1
 c102830:	e50b3010 	str	r3, [fp, #-16]
			num += (n - '0');
 c102834:	e55b3011 	ldrb	r3, [fp, #-17]	; 0xffffffef
 c102838:	e2433030 	sub	r3, r3, #48	; 0x30
 c10283c:	e51b2010 	ldr	r2, [fp, #-16]
 c102840:	e0823003 	add	r3, r2, r3
 c102844:	e50b3010 	str	r3, [fp, #-16]
		}
		n = uart0_getchar( );
 c102848:	ebffff2e 	bl	c102508 <uart0_getchar>
 c10284c:	e1a03000 	mov	r3, r0
 c102850:	e54b3011 	strb	r3, [fp, #-17]	; 0xffffffef
{
	int32 num = 0;
	char n = uart0_getchar( );
	int8 neg = 1;

	while( n != '\n' ) {
 c102854:	e55b3011 	ldrb	r3, [fp, #-17]	; 0xffffffef
 c102858:	e353000a 	cmp	r3, #10
 c10285c:	1affffe8 	bne	c102804 <uart0_getint+0x30>
			num *= 10;
			num += (n - '0');
		}
		n = uart0_getchar( );
	}
	return num * neg;
 c102860:	e15b31d2 	ldrsb	r3, [fp, #-18]	; 0xffffffee
 c102864:	e51b2010 	ldr	r2, [fp, #-16]
 c102868:	e0030392 	mul	r3, r2, r3
}
 c10286c:	e1a00003 	mov	r0, r3
 c102870:	e24bd00c 	sub	sp, fp, #12
 c102874:	e89d6800 	ldm	sp, {fp, sp, lr}
 c102878:	e12fff1e 	bx	lr

0c10287c <uart0_gethex>:

uint32 uart0_gethex( void )
{
 c10287c:	e1a0c00d 	mov	ip, sp
 c102880:	e92dd800 	push	{fp, ip, lr, pc}
 c102884:	e24cb004 	sub	fp, ip, #4
 c102888:	e24dd008 	sub	sp, sp, #8
	uint32 num = 0;
 c10288c:	e3a03000 	mov	r3, #0
 c102890:	e50b3010 	str	r3, [fp, #-16]
	char n = uart0_getchar( );
 c102894:	ebffff1b 	bl	c102508 <uart0_getchar>
 c102898:	e1a03000 	mov	r3, r0
 c10289c:	e54b3011 	strb	r3, [fp, #-17]	; 0xffffffef

	while( n != '\n' ) {
 c1028a0:	ea000014 	b	c1028f8 <uart0_gethex+0x7c>
		num *= 16;
 c1028a4:	e51b3010 	ldr	r3, [fp, #-16]
 c1028a8:	e1a03203 	lsl	r3, r3, #4
 c1028ac:	e50b3010 	str	r3, [fp, #-16]
		if(n - '0' < 10) num += (n - '0');
 c1028b0:	e55b3011 	ldrb	r3, [fp, #-17]	; 0xffffffef
 c1028b4:	e2433030 	sub	r3, r3, #48	; 0x30
 c1028b8:	e3530009 	cmp	r3, #9
 c1028bc:	ca000005 	bgt	c1028d8 <uart0_gethex+0x5c>
 c1028c0:	e55b2011 	ldrb	r2, [fp, #-17]	; 0xffffffef
 c1028c4:	e51b3010 	ldr	r3, [fp, #-16]
 c1028c8:	e0823003 	add	r3, r2, r3
 c1028cc:	e2433030 	sub	r3, r3, #48	; 0x30
 c1028d0:	e50b3010 	str	r3, [fp, #-16]
 c1028d4:	ea000004 	b	c1028ec <uart0_gethex+0x70>
		else num += ((n - 'A') + 10);
 c1028d8:	e55b2011 	ldrb	r2, [fp, #-17]	; 0xffffffef
 c1028dc:	e51b3010 	ldr	r3, [fp, #-16]
 c1028e0:	e0823003 	add	r3, r2, r3
 c1028e4:	e2433037 	sub	r3, r3, #55	; 0x37
 c1028e8:	e50b3010 	str	r3, [fp, #-16]
		n = uart0_getchar( );
 c1028ec:	ebffff05 	bl	c102508 <uart0_getchar>
 c1028f0:	e1a03000 	mov	r3, r0
 c1028f4:	e54b3011 	strb	r3, [fp, #-17]	; 0xffffffef
uint32 uart0_gethex( void )
{
	uint32 num = 0;
	char n = uart0_getchar( );

	while( n != '\n' ) {
 c1028f8:	e55b3011 	ldrb	r3, [fp, #-17]	; 0xffffffef
 c1028fc:	e353000a 	cmp	r3, #10
 c102900:	1affffe7 	bne	c1028a4 <uart0_gethex+0x28>
		num *= 16;
		if(n - '0' < 10) num += (n - '0');
		else num += ((n - 'A') + 10);
		n = uart0_getchar( );
	}
	return num;
 c102904:	e51b3010 	ldr	r3, [fp, #-16]
}
 c102908:	e1a00003 	mov	r0, r3
 c10290c:	e24bd00c 	sub	sp, fp, #12
 c102910:	e89d6800 	ldm	sp, {fp, sp, lr}
 c102914:	e12fff1e 	bx	lr

0c102918 <__aeabi_uidiv>:
 c102918:	e2512001 	subs	r2, r1, #1
 c10291c:	012fff1e 	bxeq	lr
 c102920:	3a000036 	bcc	c102a00 <__aeabi_uidiv+0xe8>
 c102924:	e1500001 	cmp	r0, r1
 c102928:	9a000022 	bls	c1029b8 <__aeabi_uidiv+0xa0>
 c10292c:	e1110002 	tst	r1, r2
 c102930:	0a000023 	beq	c1029c4 <__aeabi_uidiv+0xac>
 c102934:	e311020e 	tst	r1, #-536870912	; 0xe0000000
 c102938:	01a01181 	lsleq	r1, r1, #3
 c10293c:	03a03008 	moveq	r3, #8
 c102940:	13a03001 	movne	r3, #1
 c102944:	e3510201 	cmp	r1, #268435456	; 0x10000000
 c102948:	31510000 	cmpcc	r1, r0
 c10294c:	31a01201 	lslcc	r1, r1, #4
 c102950:	31a03203 	lslcc	r3, r3, #4
 c102954:	3afffffa 	bcc	c102944 <__aeabi_uidiv+0x2c>
 c102958:	e3510102 	cmp	r1, #-2147483648	; 0x80000000
 c10295c:	31510000 	cmpcc	r1, r0
 c102960:	31a01081 	lslcc	r1, r1, #1
 c102964:	31a03083 	lslcc	r3, r3, #1
 c102968:	3afffffa 	bcc	c102958 <__aeabi_uidiv+0x40>
 c10296c:	e3a02000 	mov	r2, #0
 c102970:	e1500001 	cmp	r0, r1
 c102974:	20400001 	subcs	r0, r0, r1
 c102978:	21822003 	orrcs	r2, r2, r3
 c10297c:	e15000a1 	cmp	r0, r1, lsr #1
 c102980:	204000a1 	subcs	r0, r0, r1, lsr #1
 c102984:	218220a3 	orrcs	r2, r2, r3, lsr #1
 c102988:	e1500121 	cmp	r0, r1, lsr #2
 c10298c:	20400121 	subcs	r0, r0, r1, lsr #2
 c102990:	21822123 	orrcs	r2, r2, r3, lsr #2
 c102994:	e15001a1 	cmp	r0, r1, lsr #3
 c102998:	204001a1 	subcs	r0, r0, r1, lsr #3
 c10299c:	218221a3 	orrcs	r2, r2, r3, lsr #3
 c1029a0:	e3500000 	cmp	r0, #0
 c1029a4:	11b03223 	lsrsne	r3, r3, #4
 c1029a8:	11a01221 	lsrne	r1, r1, #4
 c1029ac:	1affffef 	bne	c102970 <__aeabi_uidiv+0x58>
 c1029b0:	e1a00002 	mov	r0, r2
 c1029b4:	e12fff1e 	bx	lr
 c1029b8:	03a00001 	moveq	r0, #1
 c1029bc:	13a00000 	movne	r0, #0
 c1029c0:	e12fff1e 	bx	lr
 c1029c4:	e3510801 	cmp	r1, #65536	; 0x10000
 c1029c8:	21a01821 	lsrcs	r1, r1, #16
 c1029cc:	23a02010 	movcs	r2, #16
 c1029d0:	33a02000 	movcc	r2, #0
 c1029d4:	e3510c01 	cmp	r1, #256	; 0x100
 c1029d8:	21a01421 	lsrcs	r1, r1, #8
 c1029dc:	22822008 	addcs	r2, r2, #8
 c1029e0:	e3510010 	cmp	r1, #16
 c1029e4:	21a01221 	lsrcs	r1, r1, #4
 c1029e8:	22822004 	addcs	r2, r2, #4
 c1029ec:	e3510004 	cmp	r1, #4
 c1029f0:	82822003 	addhi	r2, r2, #3
 c1029f4:	908220a1 	addls	r2, r2, r1, lsr #1
 c1029f8:	e1a00230 	lsr	r0, r0, r2
 c1029fc:	e12fff1e 	bx	lr
 c102a00:	e3500000 	cmp	r0, #0
 c102a04:	13e00000 	mvnne	r0, #0
 c102a08:	ea000007 	b	c102a2c <__aeabi_idiv0>

0c102a0c <__aeabi_uidivmod>:
 c102a0c:	e3510000 	cmp	r1, #0
 c102a10:	0afffffa 	beq	c102a00 <__aeabi_uidiv+0xe8>
 c102a14:	e92d4003 	push	{r0, r1, lr}
 c102a18:	ebffffbe 	bl	c102918 <__aeabi_uidiv>
 c102a1c:	e8bd4006 	pop	{r1, r2, lr}
 c102a20:	e0030092 	mul	r3, r2, r0
 c102a24:	e0411003 	sub	r1, r1, r3
 c102a28:	e12fff1e 	bx	lr

0c102a2c <__aeabi_idiv0>:
 c102a2c:	e12fff1e 	bx	lr

0c102a30 <__aeabi_uldivmod>:
 c102a30:	e3530000 	cmp	r3, #0
 c102a34:	03520000 	cmpeq	r2, #0
 c102a38:	1a000004 	bne	c102a50 <__aeabi_uldivmod+0x20>
 c102a3c:	e3510000 	cmp	r1, #0
 c102a40:	03500000 	cmpeq	r0, #0
 c102a44:	13e01000 	mvnne	r1, #0
 c102a48:	13e00000 	mvnne	r0, #0
 c102a4c:	eafffff6 	b	c102a2c <__aeabi_idiv0>
 c102a50:	e24dd008 	sub	sp, sp, #8
 c102a54:	e92d6000 	push	{sp, lr}
 c102a58:	eb000013 	bl	c102aac <__gnu_uldivmod_helper>
 c102a5c:	e59de004 	ldr	lr, [sp, #4]
 c102a60:	e28dd008 	add	sp, sp, #8
 c102a64:	e8bd000c 	pop	{r2, r3}
 c102a68:	e12fff1e 	bx	lr

0c102a6c <__gnu_ldivmod_helper>:
 c102a6c:	e92d40f8 	push	{r3, r4, r5, r6, r7, lr}
 c102a70:	e1a04002 	mov	r4, r2
 c102a74:	e1a07003 	mov	r7, r3
 c102a78:	e1a05000 	mov	r5, r0
 c102a7c:	e1a06001 	mov	r6, r1
 c102a80:	eb000019 	bl	c102aec <__divdi3>
 c102a84:	e0070790 	mul	r7, r0, r7
 c102a88:	e0832490 	umull	r2, r3, r0, r4
 c102a8c:	e0247491 	mla	r4, r1, r4, r7
 c102a90:	e0843003 	add	r3, r4, r3
 c102a94:	e0555002 	subs	r5, r5, r2
 c102a98:	e0c66003 	sbc	r6, r6, r3
 c102a9c:	e59d3018 	ldr	r3, [sp, #24]
 c102aa0:	e8830060 	stm	r3, {r5, r6}
 c102aa4:	e8bd40f8 	pop	{r3, r4, r5, r6, r7, lr}
 c102aa8:	e12fff1e 	bx	lr

0c102aac <__gnu_uldivmod_helper>:
 c102aac:	e92d40f8 	push	{r3, r4, r5, r6, r7, lr}
 c102ab0:	e1a04002 	mov	r4, r2
 c102ab4:	e1a07003 	mov	r7, r3
 c102ab8:	e1a05000 	mov	r5, r0
 c102abc:	e1a06001 	mov	r6, r1
 c102ac0:	eb000133 	bl	c102f94 <__udivdi3>
 c102ac4:	e0070790 	mul	r7, r0, r7
 c102ac8:	e0832490 	umull	r2, r3, r0, r4
 c102acc:	e0247491 	mla	r4, r1, r4, r7
 c102ad0:	e0843003 	add	r3, r4, r3
 c102ad4:	e0555002 	subs	r5, r5, r2
 c102ad8:	e0c66003 	sbc	r6, r6, r3
 c102adc:	e59d3018 	ldr	r3, [sp, #24]
 c102ae0:	e8830060 	stm	r3, {r5, r6}
 c102ae4:	e8bd40f8 	pop	{r3, r4, r5, r6, r7, lr}
 c102ae8:	e12fff1e 	bx	lr

0c102aec <__divdi3>:
 c102aec:	e92d4ff0 	push	{r4, r5, r6, r7, r8, r9, sl, fp, lr}
 c102af0:	e3510000 	cmp	r1, #0
 c102af4:	e24dd014 	sub	sp, sp, #20
 c102af8:	e1a0c003 	mov	ip, r3
 c102afc:	a3a07000 	movge	r7, #0
 c102b00:	ba000094 	blt	c102d58 <__divdi3+0x26c>
 c102b04:	e35c0000 	cmp	ip, #0
 c102b08:	ba00008e 	blt	c102d48 <__divdi3+0x25c>
 c102b0c:	e253a000 	subs	sl, r3, #0
 c102b10:	e1a0b000 	mov	fp, r0
 c102b14:	e1a08001 	mov	r8, r1
 c102b18:	e1a09002 	mov	r9, r2
 c102b1c:	e1a04002 	mov	r4, r2
 c102b20:	e1a05000 	mov	r5, r0
 c102b24:	e1a06001 	mov	r6, r1
 c102b28:	1a00003e 	bne	c102c28 <__divdi3+0x13c>
 c102b2c:	e1520001 	cmp	r2, r1
 c102b30:	9a00004c 	bls	c102c68 <__divdi3+0x17c>
 c102b34:	e1a00002 	mov	r0, r2
 c102b38:	eb000222 	bl	c1033c8 <__clzsi2>
 c102b3c:	e3500000 	cmp	r0, #0
 c102b40:	12603020 	rsbne	r3, r0, #32
 c102b44:	11a0333b 	lsrne	r3, fp, r3
 c102b48:	11a04019 	lslne	r4, r9, r0
 c102b4c:	11836018 	orrne	r6, r3, r8, lsl r0
 c102b50:	e1a09824 	lsr	r9, r4, #16
 c102b54:	11a0501b 	lslne	r5, fp, r0
 c102b58:	e1a01009 	mov	r1, r9
 c102b5c:	e1a00006 	mov	r0, r6
 c102b60:	ebffff6c 	bl	c102918 <__aeabi_uidiv>
 c102b64:	e1a01009 	mov	r1, r9
 c102b68:	e1a0a000 	mov	sl, r0
 c102b6c:	e1a00006 	mov	r0, r6
 c102b70:	ebffffa5 	bl	c102a0c <__aeabi_uidivmod>
 c102b74:	e1a08804 	lsl	r8, r4, #16
 c102b78:	e1a08828 	lsr	r8, r8, #16
 c102b7c:	e0030a98 	mul	r3, r8, sl
 c102b80:	e1a0b825 	lsr	fp, r5, #16
 c102b84:	e18bb801 	orr	fp, fp, r1, lsl #16
 c102b88:	e153000b 	cmp	r3, fp
 c102b8c:	9a000005 	bls	c102ba8 <__divdi3+0xbc>
 c102b90:	e09bb004 	adds	fp, fp, r4
 c102b94:	e24aa001 	sub	sl, sl, #1
 c102b98:	2a000002 	bcs	c102ba8 <__divdi3+0xbc>
 c102b9c:	e153000b 	cmp	r3, fp
 c102ba0:	824aa001 	subhi	sl, sl, #1
 c102ba4:	808bb004 	addhi	fp, fp, r4
 c102ba8:	e063b00b 	rsb	fp, r3, fp
 c102bac:	e1a01009 	mov	r1, r9
 c102bb0:	e1a0000b 	mov	r0, fp
 c102bb4:	ebffff57 	bl	c102918 <__aeabi_uidiv>
 c102bb8:	e1a01009 	mov	r1, r9
 c102bbc:	e1a06000 	mov	r6, r0
 c102bc0:	e1a0000b 	mov	r0, fp
 c102bc4:	ebffff90 	bl	c102a0c <__aeabi_uidivmod>
 c102bc8:	e0080896 	mul	r8, r6, r8
 c102bcc:	e1a00805 	lsl	r0, r5, #16
 c102bd0:	e1a05820 	lsr	r5, r0, #16
 c102bd4:	e1855801 	orr	r5, r5, r1, lsl #16
 c102bd8:	e1580005 	cmp	r8, r5
 c102bdc:	9a000004 	bls	c102bf4 <__divdi3+0x108>
 c102be0:	e0955004 	adds	r5, r5, r4
 c102be4:	e2466001 	sub	r6, r6, #1
 c102be8:	2a000001 	bcs	c102bf4 <__divdi3+0x108>
 c102bec:	e1580005 	cmp	r8, r5
 c102bf0:	82466001 	subhi	r6, r6, #1
 c102bf4:	e186680a 	orr	r6, r6, sl, lsl #16
 c102bf8:	e3a09000 	mov	r9, #0
 c102bfc:	e3570000 	cmp	r7, #0
 c102c00:	e1a03006 	mov	r3, r6
 c102c04:	e1a04009 	mov	r4, r9
 c102c08:	0a000001 	beq	c102c14 <__divdi3+0x128>
 c102c0c:	e2733000 	rsbs	r3, r3, #0
 c102c10:	e2e44000 	rsc	r4, r4, #0
 c102c14:	e1a00003 	mov	r0, r3
 c102c18:	e1a01004 	mov	r1, r4
 c102c1c:	e28dd014 	add	sp, sp, #20
 c102c20:	e8bd4ff0 	pop	{r4, r5, r6, r7, r8, r9, sl, fp, lr}
 c102c24:	e12fff1e 	bx	lr
 c102c28:	e15a0001 	cmp	sl, r1
 c102c2c:	83a09000 	movhi	r9, #0
 c102c30:	81a06009 	movhi	r6, r9
 c102c34:	8afffff0 	bhi	c102bfc <__divdi3+0x110>
 c102c38:	e1a00003 	mov	r0, r3
 c102c3c:	eb0001e1 	bl	c1033c8 <__clzsi2>
 c102c40:	e2504000 	subs	r4, r0, #0
 c102c44:	1a00007a 	bne	c102e34 <__divdi3+0x348>
 c102c48:	e15a0008 	cmp	sl, r8
 c102c4c:	2159000b 	cmpcs	r9, fp
 c102c50:	83a09000 	movhi	r9, #0
 c102c54:	93a09001 	movls	r9, #1
 c102c58:	93a06001 	movls	r6, #1
 c102c5c:	91a09004 	movls	r9, r4
 c102c60:	81a06009 	movhi	r6, r9
 c102c64:	eaffffe4 	b	c102bfc <__divdi3+0x110>
 c102c68:	e3520000 	cmp	r2, #0
 c102c6c:	1a000003 	bne	c102c80 <__divdi3+0x194>
 c102c70:	e3a00001 	mov	r0, #1
 c102c74:	e1a01002 	mov	r1, r2
 c102c78:	ebffff26 	bl	c102918 <__aeabi_uidiv>
 c102c7c:	e1a04000 	mov	r4, r0
 c102c80:	e1a00004 	mov	r0, r4
 c102c84:	eb0001cf 	bl	c1033c8 <__clzsi2>
 c102c88:	e2503000 	subs	r3, r0, #0
 c102c8c:	1a000035 	bne	c102d68 <__divdi3+0x27c>
 c102c90:	e3a01001 	mov	r1, #1
 c102c94:	e1a09804 	lsl	r9, r4, #16
 c102c98:	e58d1008 	str	r1, [sp, #8]
 c102c9c:	e0646006 	rsb	r6, r4, r6
 c102ca0:	e1a08824 	lsr	r8, r4, #16
 c102ca4:	e1a09829 	lsr	r9, r9, #16
 c102ca8:	e1a01008 	mov	r1, r8
 c102cac:	e1a00006 	mov	r0, r6
 c102cb0:	ebffff18 	bl	c102918 <__aeabi_uidiv>
 c102cb4:	e1a01008 	mov	r1, r8
 c102cb8:	e1a0a000 	mov	sl, r0
 c102cbc:	e1a00006 	mov	r0, r6
 c102cc0:	ebffff51 	bl	c102a0c <__aeabi_uidivmod>
 c102cc4:	e0030a99 	mul	r3, r9, sl
 c102cc8:	e1a0c825 	lsr	ip, r5, #16
 c102ccc:	e18cb801 	orr	fp, ip, r1, lsl #16
 c102cd0:	e153000b 	cmp	r3, fp
 c102cd4:	9a000005 	bls	c102cf0 <__divdi3+0x204>
 c102cd8:	e09bb004 	adds	fp, fp, r4
 c102cdc:	e24aa001 	sub	sl, sl, #1
 c102ce0:	2a000002 	bcs	c102cf0 <__divdi3+0x204>
 c102ce4:	e153000b 	cmp	r3, fp
 c102ce8:	824aa001 	subhi	sl, sl, #1
 c102cec:	808bb004 	addhi	fp, fp, r4
 c102cf0:	e063b00b 	rsb	fp, r3, fp
 c102cf4:	e1a01008 	mov	r1, r8
 c102cf8:	e1a0000b 	mov	r0, fp
 c102cfc:	ebffff05 	bl	c102918 <__aeabi_uidiv>
 c102d00:	e1a01008 	mov	r1, r8
 c102d04:	e1a06000 	mov	r6, r0
 c102d08:	e1a0000b 	mov	r0, fp
 c102d0c:	ebffff3e 	bl	c102a0c <__aeabi_uidivmod>
 c102d10:	e0090996 	mul	r9, r6, r9
 c102d14:	e1a00805 	lsl	r0, r5, #16
 c102d18:	e1a05820 	lsr	r5, r0, #16
 c102d1c:	e1855801 	orr	r5, r5, r1, lsl #16
 c102d20:	e1590005 	cmp	r9, r5
 c102d24:	9a000004 	bls	c102d3c <__divdi3+0x250>
 c102d28:	e0955004 	adds	r5, r5, r4
 c102d2c:	e2466001 	sub	r6, r6, #1
 c102d30:	2a000001 	bcs	c102d3c <__divdi3+0x250>
 c102d34:	e1590005 	cmp	r9, r5
 c102d38:	82466001 	subhi	r6, r6, #1
 c102d3c:	e186680a 	orr	r6, r6, sl, lsl #16
 c102d40:	e59d9008 	ldr	r9, [sp, #8]
 c102d44:	eaffffac 	b	c102bfc <__divdi3+0x110>
 c102d48:	e1e07007 	mvn	r7, r7
 c102d4c:	e2722000 	rsbs	r2, r2, #0
 c102d50:	e2e33000 	rsc	r3, r3, #0
 c102d54:	eaffff6c 	b	c102b0c <__divdi3+0x20>
 c102d58:	e2700000 	rsbs	r0, r0, #0
 c102d5c:	e2e11000 	rsc	r1, r1, #0
 c102d60:	e3e07000 	mvn	r7, #0
 c102d64:	eaffff66 	b	c102b04 <__divdi3+0x18>
 c102d68:	e2638020 	rsb	r8, r3, #32
 c102d6c:	e1a0b835 	lsr	fp, r5, r8
 c102d70:	e1a04314 	lsl	r4, r4, r3
 c102d74:	e1a0a836 	lsr	sl, r6, r8
 c102d78:	e18be316 	orr	lr, fp, r6, lsl r3
 c102d7c:	e1a08824 	lsr	r8, r4, #16
 c102d80:	e1a0c804 	lsl	ip, r4, #16
 c102d84:	e1a01008 	mov	r1, r8
 c102d88:	e1a0000a 	mov	r0, sl
 c102d8c:	e1a0982c 	lsr	r9, ip, #16
 c102d90:	e1a05315 	lsl	r5, r5, r3
 c102d94:	e58de008 	str	lr, [sp, #8]
 c102d98:	ebfffede 	bl	c102918 <__aeabi_uidiv>
 c102d9c:	e1a01008 	mov	r1, r8
 c102da0:	e1a0b000 	mov	fp, r0
 c102da4:	e1a0000a 	mov	r0, sl
 c102da8:	ebffff17 	bl	c102a0c <__aeabi_uidivmod>
 c102dac:	e0030b99 	mul	r3, r9, fp
 c102db0:	e59d2008 	ldr	r2, [sp, #8]
 c102db4:	e1a06822 	lsr	r6, r2, #16
 c102db8:	e1866801 	orr	r6, r6, r1, lsl #16
 c102dbc:	e1530006 	cmp	r3, r6
 c102dc0:	9a000002 	bls	c102dd0 <__divdi3+0x2e4>
 c102dc4:	e0966004 	adds	r6, r6, r4
 c102dc8:	e24bb001 	sub	fp, fp, #1
 c102dcc:	3a00006c 	bcc	c102f84 <__divdi3+0x498>
 c102dd0:	e0636006 	rsb	r6, r3, r6
 c102dd4:	e1a01008 	mov	r1, r8
 c102dd8:	e1a00006 	mov	r0, r6
 c102ddc:	ebfffecd 	bl	c102918 <__aeabi_uidiv>
 c102de0:	e1a01008 	mov	r1, r8
 c102de4:	e1a0a000 	mov	sl, r0
 c102de8:	e1a00006 	mov	r0, r6
 c102dec:	ebffff06 	bl	c102a0c <__aeabi_uidivmod>
 c102df0:	e0030a99 	mul	r3, r9, sl
 c102df4:	e59d2008 	ldr	r2, [sp, #8]
 c102df8:	e1a06802 	lsl	r6, r2, #16
 c102dfc:	e1a00826 	lsr	r0, r6, #16
 c102e00:	e1806801 	orr	r6, r0, r1, lsl #16
 c102e04:	e1530006 	cmp	r3, r6
 c102e08:	9a000005 	bls	c102e24 <__divdi3+0x338>
 c102e0c:	e0966004 	adds	r6, r6, r4
 c102e10:	e24aa001 	sub	sl, sl, #1
 c102e14:	2a000002 	bcs	c102e24 <__divdi3+0x338>
 c102e18:	e1530006 	cmp	r3, r6
 c102e1c:	824aa001 	subhi	sl, sl, #1
 c102e20:	80866004 	addhi	r6, r6, r4
 c102e24:	e0636006 	rsb	r6, r3, r6
 c102e28:	e18a380b 	orr	r3, sl, fp, lsl #16
 c102e2c:	e58d3008 	str	r3, [sp, #8]
 c102e30:	eaffff9c 	b	c102ca8 <__divdi3+0x1bc>
 c102e34:	e2641020 	rsb	r1, r4, #32
 c102e38:	e1a00139 	lsr	r0, r9, r1
 c102e3c:	e1a0213b 	lsr	r2, fp, r1
 c102e40:	e180a41a 	orr	sl, r0, sl, lsl r4
 c102e44:	e1a06138 	lsr	r6, r8, r1
 c102e48:	e1828418 	orr	r8, r2, r8, lsl r4
 c102e4c:	e1a0380a 	lsl	r3, sl, #16
 c102e50:	e1a0b82a 	lsr	fp, sl, #16
 c102e54:	e1a0e823 	lsr	lr, r3, #16
 c102e58:	e1a0100b 	mov	r1, fp
 c102e5c:	e1a00006 	mov	r0, r6
 c102e60:	e58d8008 	str	r8, [sp, #8]
 c102e64:	e58de00c 	str	lr, [sp, #12]
 c102e68:	ebfffeaa 	bl	c102918 <__aeabi_uidiv>
 c102e6c:	e1a0100b 	mov	r1, fp
 c102e70:	e1a08000 	mov	r8, r0
 c102e74:	e1a00006 	mov	r0, r6
 c102e78:	ebfffee3 	bl	c102a0c <__aeabi_uidivmod>
 c102e7c:	e59dc00c 	ldr	ip, [sp, #12]
 c102e80:	e002089c 	mul	r2, ip, r8
 c102e84:	e59d3008 	ldr	r3, [sp, #8]
 c102e88:	e1a06823 	lsr	r6, r3, #16
 c102e8c:	e1861801 	orr	r1, r6, r1, lsl #16
 c102e90:	e1520001 	cmp	r2, r1
 c102e94:	e1a03419 	lsl	r3, r9, r4
 c102e98:	9a000002 	bls	c102ea8 <__divdi3+0x3bc>
 c102e9c:	e091100a 	adds	r1, r1, sl
 c102ea0:	e2488001 	sub	r8, r8, #1
 c102ea4:	3a000032 	bcc	c102f74 <__divdi3+0x488>
 c102ea8:	e0629001 	rsb	r9, r2, r1
 c102eac:	e1a00009 	mov	r0, r9
 c102eb0:	e1a0100b 	mov	r1, fp
 c102eb4:	e58d3004 	str	r3, [sp, #4]
 c102eb8:	ebfffe96 	bl	c102918 <__aeabi_uidiv>
 c102ebc:	e1a0100b 	mov	r1, fp
 c102ec0:	e1a06000 	mov	r6, r0
 c102ec4:	e1a00009 	mov	r0, r9
 c102ec8:	ebfffecf 	bl	c102a0c <__aeabi_uidivmod>
 c102ecc:	e59d000c 	ldr	r0, [sp, #12]
 c102ed0:	e0020690 	mul	r2, r0, r6
 c102ed4:	e59d3008 	ldr	r3, [sp, #8]
 c102ed8:	e1a0c803 	lsl	ip, r3, #16
 c102edc:	e1a0982c 	lsr	r9, ip, #16
 c102ee0:	e1890801 	orr	r0, r9, r1, lsl #16
 c102ee4:	e1520000 	cmp	r2, r0
 c102ee8:	e59d3004 	ldr	r3, [sp, #4]
 c102eec:	9a000002 	bls	c102efc <__divdi3+0x410>
 c102ef0:	e090000a 	adds	r0, r0, sl
 c102ef4:	e2466001 	sub	r6, r6, #1
 c102ef8:	3a000019 	bcc	c102f64 <__divdi3+0x478>
 c102efc:	e062e000 	rsb	lr, r2, r0
 c102f00:	e1866808 	orr	r6, r6, r8, lsl #16
 c102f04:	e1a02826 	lsr	r2, r6, #16
 c102f08:	e1a01823 	lsr	r1, r3, #16
 c102f0c:	e1c6c802 	bic	ip, r6, r2, lsl #16
 c102f10:	e1c39801 	bic	r9, r3, r1, lsl #16
 c102f14:	e003099c 	mul	r3, ip, r9
 c102f18:	e0090992 	mul	r9, r2, r9
 c102f1c:	e00c0c91 	mul	ip, r1, ip
 c102f20:	e0010192 	mul	r1, r2, r1
 c102f24:	e099c00c 	adds	ip, r9, ip
 c102f28:	22811801 	addcs	r1, r1, #65536	; 0x10000
 c102f2c:	e093380c 	adds	r3, r3, ip, lsl #16
 c102f30:	e0a1182c 	adc	r1, r1, ip, lsr #16
 c102f34:	e15e0001 	cmp	lr, r1
 c102f38:	3a000006 	bcc	c102f58 <__divdi3+0x46c>
 c102f3c:	13a02000 	movne	r2, #0
 c102f40:	03a02001 	moveq	r2, #1
 c102f44:	e1530415 	cmp	r3, r5, lsl r4
 c102f48:	93a09000 	movls	r9, #0
 c102f4c:	82029001 	andhi	r9, r2, #1
 c102f50:	e3590000 	cmp	r9, #0
 c102f54:	0affff28 	beq	c102bfc <__divdi3+0x110>
 c102f58:	e2466001 	sub	r6, r6, #1
 c102f5c:	e3a09000 	mov	r9, #0
 c102f60:	eaffff25 	b	c102bfc <__divdi3+0x110>
 c102f64:	e1520000 	cmp	r2, r0
 c102f68:	82466001 	subhi	r6, r6, #1
 c102f6c:	8080000a 	addhi	r0, r0, sl
 c102f70:	eaffffe1 	b	c102efc <__divdi3+0x410>
 c102f74:	e1520001 	cmp	r2, r1
 c102f78:	82488001 	subhi	r8, r8, #1
 c102f7c:	8081100a 	addhi	r1, r1, sl
 c102f80:	eaffffc8 	b	c102ea8 <__divdi3+0x3bc>
 c102f84:	e1530006 	cmp	r3, r6
 c102f88:	824bb001 	subhi	fp, fp, #1
 c102f8c:	80866004 	addhi	r6, r6, r4
 c102f90:	eaffff8e 	b	c102dd0 <__divdi3+0x2e4>

0c102f94 <__udivdi3>:
 c102f94:	e92d4ff0 	push	{r4, r5, r6, r7, r8, r9, sl, fp, lr}
 c102f98:	e2538000 	subs	r8, r3, #0
 c102f9c:	e24dd00c 	sub	sp, sp, #12
 c102fa0:	e1a05000 	mov	r5, r0
 c102fa4:	e1a04001 	mov	r4, r1
 c102fa8:	e1a06002 	mov	r6, r2
 c102fac:	e1a0a002 	mov	sl, r2
 c102fb0:	e1a0b000 	mov	fp, r0
 c102fb4:	e1a07001 	mov	r7, r1
 c102fb8:	1a000037 	bne	c10309c <__udivdi3+0x108>
 c102fbc:	e1520001 	cmp	r2, r1
 c102fc0:	9a000045 	bls	c1030dc <__udivdi3+0x148>
 c102fc4:	e1a00002 	mov	r0, r2
 c102fc8:	eb0000fe 	bl	c1033c8 <__clzsi2>
 c102fcc:	e3500000 	cmp	r0, #0
 c102fd0:	12603020 	rsbne	r3, r0, #32
 c102fd4:	11a03335 	lsrne	r3, r5, r3
 c102fd8:	11a0a016 	lslne	sl, r6, r0
 c102fdc:	11837014 	orrne	r7, r3, r4, lsl r0
 c102fe0:	e1a0482a 	lsr	r4, sl, #16
 c102fe4:	11a0b015 	lslne	fp, r5, r0
 c102fe8:	e1a01004 	mov	r1, r4
 c102fec:	e1a00007 	mov	r0, r7
 c102ff0:	ebfffe48 	bl	c102918 <__aeabi_uidiv>
 c102ff4:	e1a01004 	mov	r1, r4
 c102ff8:	e1a08000 	mov	r8, r0
 c102ffc:	e1a00007 	mov	r0, r7
 c103000:	ebfffe81 	bl	c102a0c <__aeabi_uidivmod>
 c103004:	e1a0680a 	lsl	r6, sl, #16
 c103008:	e1a06826 	lsr	r6, r6, #16
 c10300c:	e0030896 	mul	r3, r6, r8
 c103010:	e1a0782b 	lsr	r7, fp, #16
 c103014:	e1877801 	orr	r7, r7, r1, lsl #16
 c103018:	e1530007 	cmp	r3, r7
 c10301c:	9a000005 	bls	c103038 <__udivdi3+0xa4>
 c103020:	e097700a 	adds	r7, r7, sl
 c103024:	e2488001 	sub	r8, r8, #1
 c103028:	2a000002 	bcs	c103038 <__udivdi3+0xa4>
 c10302c:	e1530007 	cmp	r3, r7
 c103030:	82488001 	subhi	r8, r8, #1
 c103034:	8087700a 	addhi	r7, r7, sl
 c103038:	e0637007 	rsb	r7, r3, r7
 c10303c:	e1a01004 	mov	r1, r4
 c103040:	e1a00007 	mov	r0, r7
 c103044:	ebfffe33 	bl	c102918 <__aeabi_uidiv>
 c103048:	e1a01004 	mov	r1, r4
 c10304c:	e1a05000 	mov	r5, r0
 c103050:	e1a00007 	mov	r0, r7
 c103054:	ebfffe6c 	bl	c102a0c <__aeabi_uidivmod>
 c103058:	e0060695 	mul	r6, r5, r6
 c10305c:	e1a0080b 	lsl	r0, fp, #16
 c103060:	e1a0b820 	lsr	fp, r0, #16
 c103064:	e18bb801 	orr	fp, fp, r1, lsl #16
 c103068:	e156000b 	cmp	r6, fp
 c10306c:	9a000004 	bls	c103084 <__udivdi3+0xf0>
 c103070:	e09bb00a 	adds	fp, fp, sl
 c103074:	e2455001 	sub	r5, r5, #1
 c103078:	2a000001 	bcs	c103084 <__udivdi3+0xf0>
 c10307c:	e156000b 	cmp	r6, fp
 c103080:	82455001 	subhi	r5, r5, #1
 c103084:	e1858808 	orr	r8, r5, r8, lsl #16
 c103088:	e3a01000 	mov	r1, #0
 c10308c:	e1a00008 	mov	r0, r8
 c103090:	e28dd00c 	add	sp, sp, #12
 c103094:	e8bd4ff0 	pop	{r4, r5, r6, r7, r8, r9, sl, fp, lr}
 c103098:	e12fff1e 	bx	lr
 c10309c:	e1580001 	cmp	r8, r1
 c1030a0:	83a01000 	movhi	r1, #0
 c1030a4:	81a08001 	movhi	r8, r1
 c1030a8:	8afffff7 	bhi	c10308c <__udivdi3+0xf8>
 c1030ac:	e1a00008 	mov	r0, r8
 c1030b0:	eb0000c4 	bl	c1033c8 <__clzsi2>
 c1030b4:	e2507000 	subs	r7, r0, #0
 c1030b8:	1a00003e 	bne	c1031b8 <__udivdi3+0x224>
 c1030bc:	e1580004 	cmp	r8, r4
 c1030c0:	21560005 	cmpcs	r6, r5
 c1030c4:	83a01000 	movhi	r1, #0
 c1030c8:	93a01001 	movls	r1, #1
 c1030cc:	93a08001 	movls	r8, #1
 c1030d0:	91a01007 	movls	r1, r7
 c1030d4:	81a08001 	movhi	r8, r1
 c1030d8:	eaffffeb 	b	c10308c <__udivdi3+0xf8>
 c1030dc:	e3520000 	cmp	r2, #0
 c1030e0:	1a000003 	bne	c1030f4 <__udivdi3+0x160>
 c1030e4:	e3a00001 	mov	r0, #1
 c1030e8:	e1a01002 	mov	r1, r2
 c1030ec:	ebfffe09 	bl	c102918 <__aeabi_uidiv>
 c1030f0:	e1a0a000 	mov	sl, r0
 c1030f4:	e1a0000a 	mov	r0, sl
 c1030f8:	eb0000b2 	bl	c1033c8 <__clzsi2>
 c1030fc:	e2503000 	subs	r3, r0, #0
 c103100:	1a000075 	bne	c1032dc <__udivdi3+0x348>
 c103104:	e1a0180a 	lsl	r1, sl, #16
 c103108:	e06a4004 	rsb	r4, sl, r4
 c10310c:	e1a0982a 	lsr	r9, sl, #16
 c103110:	e1a06821 	lsr	r6, r1, #16
 c103114:	e3a07001 	mov	r7, #1
 c103118:	e1a01009 	mov	r1, r9
 c10311c:	e1a00004 	mov	r0, r4
 c103120:	ebfffdfc 	bl	c102918 <__aeabi_uidiv>
 c103124:	e1a01009 	mov	r1, r9
 c103128:	e1a05000 	mov	r5, r0
 c10312c:	e1a00004 	mov	r0, r4
 c103130:	ebfffe35 	bl	c102a0c <__aeabi_uidivmod>
 c103134:	e0030596 	mul	r3, r6, r5
 c103138:	e1a0282b 	lsr	r2, fp, #16
 c10313c:	e1824801 	orr	r4, r2, r1, lsl #16
 c103140:	e1530004 	cmp	r3, r4
 c103144:	9a000005 	bls	c103160 <__udivdi3+0x1cc>
 c103148:	e094400a 	adds	r4, r4, sl
 c10314c:	e2455001 	sub	r5, r5, #1
 c103150:	2a000002 	bcs	c103160 <__udivdi3+0x1cc>
 c103154:	e1530004 	cmp	r3, r4
 c103158:	82455001 	subhi	r5, r5, #1
 c10315c:	8084400a 	addhi	r4, r4, sl
 c103160:	e0634004 	rsb	r4, r3, r4
 c103164:	e1a01009 	mov	r1, r9
 c103168:	e1a00004 	mov	r0, r4
 c10316c:	ebfffde9 	bl	c102918 <__aeabi_uidiv>
 c103170:	e1a01009 	mov	r1, r9
 c103174:	e1a08000 	mov	r8, r0
 c103178:	e1a00004 	mov	r0, r4
 c10317c:	ebfffe22 	bl	c102a0c <__aeabi_uidivmod>
 c103180:	e0060698 	mul	r6, r8, r6
 c103184:	e1a0b80b 	lsl	fp, fp, #16
 c103188:	e1a0382b 	lsr	r3, fp, #16
 c10318c:	e183b801 	orr	fp, r3, r1, lsl #16
 c103190:	e156000b 	cmp	r6, fp
 c103194:	9a000004 	bls	c1031ac <__udivdi3+0x218>
 c103198:	e09bb00a 	adds	fp, fp, sl
 c10319c:	e2488001 	sub	r8, r8, #1
 c1031a0:	2a000001 	bcs	c1031ac <__udivdi3+0x218>
 c1031a4:	e156000b 	cmp	r6, fp
 c1031a8:	82488001 	subhi	r8, r8, #1
 c1031ac:	e1888805 	orr	r8, r8, r5, lsl #16
 c1031b0:	e1a01007 	mov	r1, r7
 c1031b4:	eaffffb4 	b	c10308c <__udivdi3+0xf8>
 c1031b8:	e267a020 	rsb	sl, r7, #32
 c1031bc:	e1a01a36 	lsr	r1, r6, sl
 c1031c0:	e1a02a35 	lsr	r2, r5, sl
 c1031c4:	e1818718 	orr	r8, r1, r8, lsl r7
 c1031c8:	e1a0ba34 	lsr	fp, r4, sl
 c1031cc:	e1829714 	orr	r9, r2, r4, lsl r7
 c1031d0:	e1a0a828 	lsr	sl, r8, #16
 c1031d4:	e1a0e808 	lsl	lr, r8, #16
 c1031d8:	e1a0100a 	mov	r1, sl
 c1031dc:	e1a0000b 	mov	r0, fp
 c1031e0:	e1a0482e 	lsr	r4, lr, #16
 c1031e4:	e58d9004 	str	r9, [sp, #4]
 c1031e8:	ebfffdca 	bl	c102918 <__aeabi_uidiv>
 c1031ec:	e1a0100a 	mov	r1, sl
 c1031f0:	e1a09000 	mov	r9, r0
 c1031f4:	e1a0000b 	mov	r0, fp
 c1031f8:	ebfffe03 	bl	c102a0c <__aeabi_uidivmod>
 c1031fc:	e0020994 	mul	r2, r4, r9
 c103200:	e59d0004 	ldr	r0, [sp, #4]
 c103204:	e1a0c820 	lsr	ip, r0, #16
 c103208:	e18cb801 	orr	fp, ip, r1, lsl #16
 c10320c:	e152000b 	cmp	r2, fp
 c103210:	e1a03716 	lsl	r3, r6, r7
 c103214:	9a000002 	bls	c103224 <__udivdi3+0x290>
 c103218:	e09bb008 	adds	fp, fp, r8
 c10321c:	e2499001 	sub	r9, r9, #1
 c103220:	3a000060 	bcc	c1033a8 <__udivdi3+0x414>
 c103224:	e062b00b 	rsb	fp, r2, fp
 c103228:	e1a0100a 	mov	r1, sl
 c10322c:	e1a0000b 	mov	r0, fp
 c103230:	e58d3000 	str	r3, [sp]
 c103234:	ebfffdb7 	bl	c102918 <__aeabi_uidiv>
 c103238:	e1a0100a 	mov	r1, sl
 c10323c:	e1a06000 	mov	r6, r0
 c103240:	e1a0000b 	mov	r0, fp
 c103244:	ebfffdf0 	bl	c102a0c <__aeabi_uidivmod>
 c103248:	e0040496 	mul	r4, r6, r4
 c10324c:	e59d0004 	ldr	r0, [sp, #4]
 c103250:	e1a0c800 	lsl	ip, r0, #16
 c103254:	e1a0382c 	lsr	r3, ip, #16
 c103258:	e1832801 	orr	r2, r3, r1, lsl #16
 c10325c:	e1540002 	cmp	r4, r2
 c103260:	e59d3000 	ldr	r3, [sp]
 c103264:	9a000002 	bls	c103274 <__udivdi3+0x2e0>
 c103268:	e0922008 	adds	r2, r2, r8
 c10326c:	e2466001 	sub	r6, r6, #1
 c103270:	3a000048 	bcc	c103398 <__udivdi3+0x404>
 c103274:	e0644002 	rsb	r4, r4, r2
 c103278:	e1868809 	orr	r8, r6, r9, lsl #16
 c10327c:	e1a02828 	lsr	r2, r8, #16
 c103280:	e1a0e823 	lsr	lr, r3, #16
 c103284:	e1c80802 	bic	r0, r8, r2, lsl #16
 c103288:	e1c3680e 	bic	r6, r3, lr, lsl #16
 c10328c:	e0030690 	mul	r3, r0, r6
 c103290:	e0060692 	mul	r6, r2, r6
 c103294:	e000009e 	mul	r0, lr, r0
 c103298:	e00e0e92 	mul	lr, r2, lr
 c10329c:	e0960000 	adds	r0, r6, r0
 c1032a0:	228ee801 	addcs	lr, lr, #65536	; 0x10000
 c1032a4:	e0933800 	adds	r3, r3, r0, lsl #16
 c1032a8:	e0aee820 	adc	lr, lr, r0, lsr #16
 c1032ac:	e154000e 	cmp	r4, lr
 c1032b0:	3a000006 	bcc	c1032d0 <__udivdi3+0x33c>
 c1032b4:	13a02000 	movne	r2, #0
 c1032b8:	03a02001 	moveq	r2, #1
 c1032bc:	e1530715 	cmp	r3, r5, lsl r7
 c1032c0:	93a01000 	movls	r1, #0
 c1032c4:	82021001 	andhi	r1, r2, #1
 c1032c8:	e3510000 	cmp	r1, #0
 c1032cc:	0affff6e 	beq	c10308c <__udivdi3+0xf8>
 c1032d0:	e2488001 	sub	r8, r8, #1
 c1032d4:	e3a01000 	mov	r1, #0
 c1032d8:	eaffff6b 	b	c10308c <__udivdi3+0xf8>
 c1032dc:	e2639020 	rsb	r9, r3, #32
 c1032e0:	e1a0a31a 	lsl	sl, sl, r3
 c1032e4:	e1a07934 	lsr	r7, r4, r9
 c1032e8:	e1a08935 	lsr	r8, r5, r9
 c1032ec:	e1a0982a 	lsr	r9, sl, #16
 c1032f0:	e1a0280a 	lsl	r2, sl, #16
 c1032f4:	e1a01009 	mov	r1, r9
 c1032f8:	e1a00007 	mov	r0, r7
 c1032fc:	e1888314 	orr	r8, r8, r4, lsl r3
 c103300:	e1a0b315 	lsl	fp, r5, r3
 c103304:	e1a06822 	lsr	r6, r2, #16
 c103308:	ebfffd82 	bl	c102918 <__aeabi_uidiv>
 c10330c:	e1a01009 	mov	r1, r9
 c103310:	e1a05000 	mov	r5, r0
 c103314:	e1a00007 	mov	r0, r7
 c103318:	ebfffdbb 	bl	c102a0c <__aeabi_uidivmod>
 c10331c:	e0030596 	mul	r3, r6, r5
 c103320:	e1a04828 	lsr	r4, r8, #16
 c103324:	e1844801 	orr	r4, r4, r1, lsl #16
 c103328:	e1530004 	cmp	r3, r4
 c10332c:	9a000002 	bls	c10333c <__udivdi3+0x3a8>
 c103330:	e094400a 	adds	r4, r4, sl
 c103334:	e2455001 	sub	r5, r5, #1
 c103338:	3a00001e 	bcc	c1033b8 <__udivdi3+0x424>
 c10333c:	e0634004 	rsb	r4, r3, r4
 c103340:	e1a01009 	mov	r1, r9
 c103344:	e1a00004 	mov	r0, r4
 c103348:	ebfffd72 	bl	c102918 <__aeabi_uidiv>
 c10334c:	e1a01009 	mov	r1, r9
 c103350:	e1a07000 	mov	r7, r0
 c103354:	e1a00004 	mov	r0, r4
 c103358:	ebfffdab 	bl	c102a0c <__aeabi_uidivmod>
 c10335c:	e0030796 	mul	r3, r6, r7
 c103360:	e1a00808 	lsl	r0, r8, #16
 c103364:	e1a0c820 	lsr	ip, r0, #16
 c103368:	e18c4801 	orr	r4, ip, r1, lsl #16
 c10336c:	e1530004 	cmp	r3, r4
 c103370:	9a000005 	bls	c10338c <__udivdi3+0x3f8>
 c103374:	e094400a 	adds	r4, r4, sl
 c103378:	e2477001 	sub	r7, r7, #1
 c10337c:	2a000002 	bcs	c10338c <__udivdi3+0x3f8>
 c103380:	e1530004 	cmp	r3, r4
 c103384:	82477001 	subhi	r7, r7, #1
 c103388:	8084400a 	addhi	r4, r4, sl
 c10338c:	e0634004 	rsb	r4, r3, r4
 c103390:	e1877805 	orr	r7, r7, r5, lsl #16
 c103394:	eaffff5f 	b	c103118 <__udivdi3+0x184>
 c103398:	e1540002 	cmp	r4, r2
 c10339c:	82466001 	subhi	r6, r6, #1
 c1033a0:	80822008 	addhi	r2, r2, r8
 c1033a4:	eaffffb2 	b	c103274 <__udivdi3+0x2e0>
 c1033a8:	e152000b 	cmp	r2, fp
 c1033ac:	82499001 	subhi	r9, r9, #1
 c1033b0:	808bb008 	addhi	fp, fp, r8
 c1033b4:	eaffff9a 	b	c103224 <__udivdi3+0x290>
 c1033b8:	e1530004 	cmp	r3, r4
 c1033bc:	82455001 	subhi	r5, r5, #1
 c1033c0:	8084400a 	addhi	r4, r4, sl
 c1033c4:	eaffffdc 	b	c10333c <__udivdi3+0x3a8>

0c1033c8 <__clzsi2>:
 c1033c8:	e3a0101c 	mov	r1, #28
 c1033cc:	e3500801 	cmp	r0, #65536	; 0x10000
 c1033d0:	21a00820 	lsrcs	r0, r0, #16
 c1033d4:	22411010 	subcs	r1, r1, #16
 c1033d8:	e3500c01 	cmp	r0, #256	; 0x100
 c1033dc:	21a00420 	lsrcs	r0, r0, #8
 c1033e0:	22411008 	subcs	r1, r1, #8
 c1033e4:	e3500010 	cmp	r0, #16
 c1033e8:	21a00220 	lsrcs	r0, r0, #4
 c1033ec:	22411004 	subcs	r1, r1, #4
 c1033f0:	e28f2008 	add	r2, pc, #8
 c1033f4:	e7d20000 	ldrb	r0, [r2, r0]
 c1033f8:	e0800001 	add	r0, r0, r1
 c1033fc:	e12fff1e 	bx	lr
 c103400:	02020304 	.word	0x02020304
 c103404:	01010101 	.word	0x01010101
	...
