   1              		.cpu arm7tdmi
   2              		.fpu softvfp
   3              		.eabi_attribute 20, 1
   4              		.eabi_attribute 21, 1
   5              		.eabi_attribute 23, 3
   6              		.eabi_attribute 24, 1
   7              		.eabi_attribute 25, 1
   8              		.eabi_attribute 26, 1
   9              		.eabi_attribute 30, 6
  10              		.eabi_attribute 18, 4
  11              		.file	"uda1341ts.c"
  21              	.Ltext0:
  22              		.file 1 "../src/uda1341ts.c"
 1097              	volume:
 1098 0000 00       		.space	1
 1099              	state:
 1100 0001 00       		.space	1
 1101              		.text
 1102              		.align	2
 1103              		.global	uda1341ts_init
 1105              	uda1341ts_init:
 1106              	.LFB0:
   1:../src/uda1341ts.c **** #include <l3.h>
   2:../src/uda1341ts.c **** #include <uda1341ts.h>
   3:../src/uda1341ts.c **** 
   4:../src/uda1341ts.c **** #define ADDRESS (0x05)
   5:../src/uda1341ts.c **** 
   6:../src/uda1341ts.c **** #define DATA0  (0x0)
   7:../src/uda1341ts.c **** #define DATA1  (0x1)
   8:../src/uda1341ts.c **** #define STATUS (0x2)
   9:../src/uda1341ts.c **** 
  10:../src/uda1341ts.c **** #define EA (0x18 << 3)
  11:../src/uda1341ts.c **** #define ED (0x7 << 5)
  12:../src/uda1341ts.c **** 
  13:../src/uda1341ts.c **** static uint8 volume;
  14:../src/uda1341ts.c **** static uint8 state;
  15:../src/uda1341ts.c **** 
  16:../src/uda1341ts.c **** void uda1341ts_init( void )
  17:../src/uda1341ts.c **** {
 1107              		.loc 1 17 0
 1108              		.cfi_startproc
 1109              		@ Function supports interworking.
 1110              		@ args = 0, pretend = 0, frame = 0
 1111              		@ frame_needed = 1, uses_anonymous_args = 0
 1112 0000 0DC0A0E1 		mov	ip, sp
 1113              	.LCFI0:
 1114              		.cfi_def_cfa_register 12
 1115 0004 00D82DE9 		stmfd	sp!, {fp, ip, lr, pc}
 1116 0008 04B04CE2 		sub	fp, ip, #4
 1117              		.cfi_offset 14, -8
 1118              		.cfi_offset 13, -12
 1119              		.cfi_offset 11, -16
 1120              	.LCFI1:
 1121              		.cfi_def_cfa 11, 4
  18:../src/uda1341ts.c ****     L3_init();     
 1122              		.loc 1 18 0
 1123 000c FEFFFFEB 		bl	L3_init
  19:../src/uda1341ts.c ****     
  20:../src/uda1341ts.c ****     L3_putByte( (ADDRESS << 2) | STATUS, L3_ADDR_MODE );
 1124              		.loc 1 20 0
 1125 0010 1600A0E3 		mov	r0, #22
 1126 0014 0010A0E3 		mov	r1, #0
 1127 0018 FEFFFFEB 		bl	L3_putByte
  21:../src/uda1341ts.c ****     L3_putByte( (1 << 6) | (2 << 4), L3_DATA_MODE );
 1128              		.loc 1 21 0
 1129 001c 6000A0E3 		mov	r0, #96
 1130 0020 0110A0E3 		mov	r1, #1
 1131 0024 FEFFFFEB 		bl	L3_putByte
  22:../src/uda1341ts.c ****     L3_putByte( (2 << 4), L3_DATA_MODE );
 1132              		.loc 1 22 0
 1133 0028 2000A0E3 		mov	r0, #32
 1134 002c 0110A0E3 		mov	r1, #1
 1135 0030 FEFFFFEB 		bl	L3_putByte
  23:../src/uda1341ts.c **** 
  24:../src/uda1341ts.c ****     L3_putByte( (ADDRESS << 2) | DATA0, L3_ADDR_MODE  ); 
 1136              		.loc 1 24 0
 1137 0034 1400A0E3 		mov	r0, #20
 1138 0038 0010A0E3 		mov	r1, #0
 1139 003c FEFFFFEB 		bl	L3_putByte
  25:../src/uda1341ts.c ****     L3_putByte( EA | (2), L3_DATA_MODE ); 
 1140              		.loc 1 25 0
 1141 0040 C200A0E3 		mov	r0, #194
 1142 0044 0110A0E3 		mov	r1, #1
 1143 0048 FEFFFFEB 		bl	L3_putByte
  26:../src/uda1341ts.c ****     L3_putByte( ED | 1, L3_DATA_MODE );
 1144              		.loc 1 26 0
 1145 004c E100A0E3 		mov	r0, #225
 1146 0050 0110A0E3 		mov	r1, #1
 1147 0054 FEFFFFEB 		bl	L3_putByte
  27:../src/uda1341ts.c ****   
  28:../src/uda1341ts.c ****     uda1341ts_setvol( VOL_MAX );
 1148              		.loc 1 28 0
 1149 0058 3F00A0E3 		mov	r0, #63
 1150 005c FEFFFFEB 		bl	uda1341ts_setvol
  29:../src/uda1341ts.c **** 
  30:../src/uda1341ts.c ****     uda1341ts_on( UDA_DAC );
 1151              		.loc 1 30 0
 1152 0060 0100A0E3 		mov	r0, #1
 1153 0064 FEFFFFEB 		bl	uda1341ts_on
  31:../src/uda1341ts.c ****     uda1341ts_on( UDA_ADC );
 1154              		.loc 1 31 0
 1155 0068 0200A0E3 		mov	r0, #2
 1156 006c FEFFFFEB 		bl	uda1341ts_on
  32:../src/uda1341ts.c **** }
 1157              		.loc 1 32 0
 1158 0070 0CD04BE2 		sub	sp, fp, #12
 1159 0074 00689DE8 		ldmfd	sp, {fp, sp, lr}
 1160 0078 1EFF2FE1 		bx	lr
 1161              		.cfi_endproc
 1162              	.LFE0:
 1164              		.align	2
 1165              		.global	uda1341ts_mute
 1167              	uda1341ts_mute:
 1168              	.LFB1:
  33:../src/uda1341ts.c **** 
  34:../src/uda1341ts.c **** void uda1341ts_mute( uint8 on )
  35:../src/uda1341ts.c **** {
 1169              		.loc 1 35 0
 1170              		.cfi_startproc
 1171              		@ Function supports interworking.
 1172              		@ args = 0, pretend = 0, frame = 8
 1173              		@ frame_needed = 1, uses_anonymous_args = 0
 1174 007c 0DC0A0E1 		mov	ip, sp
 1175              	.LCFI2:
 1176              		.cfi_def_cfa_register 12
 1177 0080 00D82DE9 		stmfd	sp!, {fp, ip, lr, pc}
 1178 0084 04B04CE2 		sub	fp, ip, #4
 1179              		.cfi_offset 14, -8
 1180              		.cfi_offset 13, -12
 1181              		.cfi_offset 11, -16
 1182              	.LCFI3:
 1183              		.cfi_def_cfa 11, 4
 1184 0088 08D04DE2 		sub	sp, sp, #8
 1185 008c 0030A0E1 		mov	r3, r0
 1186 0090 0D304BE5 		strb	r3, [fp, #-13]
  36:../src/uda1341ts.c **** 	L3_putByte((ADDRESS << 2) | DATA0, L3_ADDR_MODE);
 1187              		.loc 1 36 0
 1188 0094 1400A0E3 		mov	r0, #20
 1189 0098 0010A0E3 		mov	r1, #0
 1190 009c FEFFFFEB 		bl	L3_putByte
  37:../src/uda1341ts.c **** 	L3_putByte((2 << 6) | (on << 2), L3_DATA_MODE);
 1191              		.loc 1 37 0
 1192 00a0 0D305BE5 		ldrb	r3, [fp, #-13]	@ zero_extendqisi2
 1193 00a4 0331A0E1 		mov	r3, r3, asl #2
 1194 00a8 FF3003E2 		and	r3, r3, #255
 1195 00ac 833CE0E1 		mvn	r3, r3, asl #25
 1196 00b0 A33CE0E1 		mvn	r3, r3, lsr #25
 1197 00b4 FF3003E2 		and	r3, r3, #255
 1198 00b8 FF3003E2 		and	r3, r3, #255
 1199 00bc 0300A0E1 		mov	r0, r3
 1200 00c0 0110A0E3 		mov	r1, #1
 1201 00c4 FEFFFFEB 		bl	L3_putByte
  38:../src/uda1341ts.c **** };
 1202              		.loc 1 38 0
 1203 00c8 0CD04BE2 		sub	sp, fp, #12
 1204 00cc 00689DE8 		ldmfd	sp, {fp, sp, lr}
 1205 00d0 1EFF2FE1 		bx	lr
 1206              		.cfi_endproc
 1207              	.LFE1:
 1209              		.align	2
 1210              		.global	uda1341ts_on
 1212              	uda1341ts_on:
 1213              	.LFB2:
  39:../src/uda1341ts.c **** 
  40:../src/uda1341ts.c **** void uda1341ts_on( uint8 converter )
  41:../src/uda1341ts.c **** {
 1214              		.loc 1 41 0
 1215              		.cfi_startproc
 1216              		@ Function supports interworking.
 1217              		@ args = 0, pretend = 0, frame = 8
 1218              		@ frame_needed = 1, uses_anonymous_args = 0
 1219 00d4 0DC0A0E1 		mov	ip, sp
 1220              	.LCFI4:
 1221              		.cfi_def_cfa_register 12
 1222 00d8 00D82DE9 		stmfd	sp!, {fp, ip, lr, pc}
 1223 00dc 04B04CE2 		sub	fp, ip, #4
 1224              		.cfi_offset 14, -8
 1225              		.cfi_offset 13, -12
 1226              		.cfi_offset 11, -16
 1227              	.LCFI5:
 1228              		.cfi_def_cfa 11, 4
 1229 00e0 08D04DE2 		sub	sp, sp, #8
 1230 00e4 0030A0E1 		mov	r3, r0
 1231 00e8 0D304BE5 		strb	r3, [fp, #-13]
  42:../src/uda1341ts.c **** 	L3_putByte((ADDRESS << 2) | STATUS, L3_ADDR_MODE);
 1232              		.loc 1 42 0
 1233 00ec 1600A0E3 		mov	r0, #22
 1234 00f0 0010A0E3 		mov	r1, #0
 1235 00f4 FEFFFFEB 		bl	L3_putByte
  43:../src/uda1341ts.c **** 	L3_putByte((1 << 7) | (3 << 5) | state, L3_DATA_MODE);
 1236              		.loc 1 43 0
 1237 00f8 40309FE5 		ldr	r3, .L4
 1238 00fc 0030D3E5 		ldrb	r3, [r3, #0]	@ zero_extendqisi2
 1239 0100 833DE0E1 		mvn	r3, r3, asl #27
 1240 0104 A33DE0E1 		mvn	r3, r3, lsr #27
 1241 0108 FF3003E2 		and	r3, r3, #255
 1242 010c 0300A0E1 		mov	r0, r3
 1243 0110 0110A0E3 		mov	r1, #1
 1244 0114 FEFFFFEB 		bl	L3_putByte
  44:../src/uda1341ts.c **** 	state |= converter;
 1245              		.loc 1 44 0
 1246 0118 20309FE5 		ldr	r3, .L4
 1247 011c 0020D3E5 		ldrb	r2, [r3, #0]	@ zero_extendqisi2
 1248 0120 0D305BE5 		ldrb	r3, [fp, #-13]
 1249 0124 033082E1 		orr	r3, r2, r3
 1250 0128 FF2003E2 		and	r2, r3, #255
 1251 012c 0C309FE5 		ldr	r3, .L4
 1252 0130 0020C3E5 		strb	r2, [r3, #0]
  45:../src/uda1341ts.c **** }
 1253              		.loc 1 45 0
 1254 0134 0CD04BE2 		sub	sp, fp, #12
 1255 0138 00689DE8 		ldmfd	sp, {fp, sp, lr}
 1256 013c 1EFF2FE1 		bx	lr
 1257              	.L5:
 1258              		.align	2
 1259              	.L4:
 1260 0140 01000000 		.word	state
 1261              		.cfi_endproc
 1262              	.LFE2:
 1264              		.align	2
 1265              		.global	uda1341ts_off
 1267              	uda1341ts_off:
 1268              	.LFB3:
  46:../src/uda1341ts.c **** 
  47:../src/uda1341ts.c **** void uda1341ts_off( uint8 converter )
  48:../src/uda1341ts.c **** {
 1269              		.loc 1 48 0
 1270              		.cfi_startproc
 1271              		@ Function supports interworking.
 1272              		@ args = 0, pretend = 0, frame = 8
 1273              		@ frame_needed = 1, uses_anonymous_args = 0
 1274 0144 0DC0A0E1 		mov	ip, sp
 1275              	.LCFI6:
 1276              		.cfi_def_cfa_register 12
 1277 0148 00D82DE9 		stmfd	sp!, {fp, ip, lr, pc}
 1278 014c 04B04CE2 		sub	fp, ip, #4
 1279              		.cfi_offset 14, -8
 1280              		.cfi_offset 13, -12
 1281              		.cfi_offset 11, -16
 1282              	.LCFI7:
 1283              		.cfi_def_cfa 11, 4
 1284 0150 08D04DE2 		sub	sp, sp, #8
 1285 0154 0030A0E1 		mov	r3, r0
 1286 0158 0D304BE5 		strb	r3, [fp, #-13]
  49:../src/uda1341ts.c **** 	L3_putByte((ADDRESS << 2) | STATUS, L3_ADDR_MODE);
 1287              		.loc 1 49 0
 1288 015c 1600A0E3 		mov	r0, #22
 1289 0160 0010A0E3 		mov	r1, #0
 1290 0164 FEFFFFEB 		bl	L3_putByte
  50:../src/uda1341ts.c **** 	L3_putByte((1 << 7) | (3 << 5) | state, L3_DATA_MODE);
 1291              		.loc 1 50 0
 1292 0168 40309FE5 		ldr	r3, .L7
 1293 016c 0030D3E5 		ldrb	r3, [r3, #0]	@ zero_extendqisi2
 1294 0170 833DE0E1 		mvn	r3, r3, asl #27
 1295 0174 A33DE0E1 		mvn	r3, r3, lsr #27
 1296 0178 FF3003E2 		and	r3, r3, #255
 1297 017c 0300A0E1 		mov	r0, r3
 1298 0180 0110A0E3 		mov	r1, #1
 1299 0184 FEFFFFEB 		bl	L3_putByte
  51:../src/uda1341ts.c **** 	state &= converter;
 1300              		.loc 1 51 0
 1301 0188 20309FE5 		ldr	r3, .L7
 1302 018c 0020D3E5 		ldrb	r2, [r3, #0]	@ zero_extendqisi2
 1303 0190 0D305BE5 		ldrb	r3, [fp, #-13]
 1304 0194 033002E0 		and	r3, r2, r3
 1305 0198 FF2003E2 		and	r2, r3, #255
 1306 019c 0C309FE5 		ldr	r3, .L7
 1307 01a0 0020C3E5 		strb	r2, [r3, #0]
  52:../src/uda1341ts.c **** }
 1308              		.loc 1 52 0
 1309 01a4 0CD04BE2 		sub	sp, fp, #12
 1310 01a8 00689DE8 		ldmfd	sp, {fp, sp, lr}
 1311 01ac 1EFF2FE1 		bx	lr
 1312              	.L8:
 1313              		.align	2
 1314              	.L7:
 1315 01b0 01000000 		.word	state
 1316              		.cfi_endproc
 1317              	.LFE3:
 1319              		.align	2
 1320              		.global	uda1341ts_status
 1322              	uda1341ts_status:
 1323              	.LFB4:
  53:../src/uda1341ts.c **** 
  54:../src/uda1341ts.c **** uint8 uda1341ts_status( uint8 converter )
  55:../src/uda1341ts.c **** {
 1324              		.loc 1 55 0
 1325              		.cfi_startproc
 1326              		@ Function supports interworking.
 1327              		@ args = 0, pretend = 0, frame = 8
 1328              		@ frame_needed = 1, uses_anonymous_args = 0
 1329 01b4 0DC0A0E1 		mov	ip, sp
 1330              	.LCFI8:
 1331              		.cfi_def_cfa_register 12
 1332 01b8 00D82DE9 		stmfd	sp!, {fp, ip, lr, pc}
 1333 01bc 04B04CE2 		sub	fp, ip, #4
 1334              		.cfi_offset 14, -8
 1335              		.cfi_offset 13, -12
 1336              		.cfi_offset 11, -16
 1337              	.LCFI9:
 1338              		.cfi_def_cfa 11, 4
 1339 01c0 08D04DE2 		sub	sp, sp, #8
 1340 01c4 0030A0E1 		mov	r3, r0
 1341 01c8 0D304BE5 		strb	r3, [fp, #-13]
  56:../src/uda1341ts.c **** 	return state;
 1342              		.loc 1 56 0
 1343 01cc 10309FE5 		ldr	r3, .L10
 1344 01d0 0030D3E5 		ldrb	r3, [r3, #0]	@ zero_extendqisi2
  57:../src/uda1341ts.c **** }
 1345              		.loc 1 57 0
 1346 01d4 0300A0E1 		mov	r0, r3
 1347 01d8 0CD04BE2 		sub	sp, fp, #12
 1348 01dc 00689DE8 		ldmfd	sp, {fp, sp, lr}
 1349 01e0 1EFF2FE1 		bx	lr
 1350              	.L11:
 1351              		.align	2
 1352              	.L10:
 1353 01e4 01000000 		.word	state
 1354              		.cfi_endproc
 1355              	.LFE4:
 1357              		.align	2
 1358              		.global	uda1341ts_setvol
 1360              	uda1341ts_setvol:
 1361              	.LFB5:
  58:../src/uda1341ts.c **** 
  59:../src/uda1341ts.c **** void uda1341ts_setvol( uint8 vol )
  60:../src/uda1341ts.c **** {
 1362              		.loc 1 60 0
 1363              		.cfi_startproc
 1364              		@ Function supports interworking.
 1365              		@ args = 0, pretend = 0, frame = 8
 1366              		@ frame_needed = 1, uses_anonymous_args = 0
 1367 01e8 0DC0A0E1 		mov	ip, sp
 1368              	.LCFI10:
 1369              		.cfi_def_cfa_register 12
 1370 01ec 00D82DE9 		stmfd	sp!, {fp, ip, lr, pc}
 1371 01f0 04B04CE2 		sub	fp, ip, #4
 1372              		.cfi_offset 14, -8
 1373              		.cfi_offset 13, -12
 1374              		.cfi_offset 11, -16
 1375              	.LCFI11:
 1376              		.cfi_def_cfa 11, 4
 1377 01f4 08D04DE2 		sub	sp, sp, #8
 1378 01f8 0030A0E1 		mov	r3, r0
 1379 01fc 0D304BE5 		strb	r3, [fp, #-13]
  61:../src/uda1341ts.c **** 	volume = (0x3F - vol);
 1380              		.loc 1 61 0
 1381 0200 0D305BE5 		ldrb	r3, [fp, #-13]
 1382 0204 3F3063E2 		rsb	r3, r3, #63
 1383 0208 FF2003E2 		and	r2, r3, #255
 1384 020c 30309FE5 		ldr	r3, .L13
 1385 0210 0020C3E5 		strb	r2, [r3, #0]
  62:../src/uda1341ts.c **** 	L3_putByte((ADDRESS << 2) | DATA0, L3_ADDR_MODE);
 1386              		.loc 1 62 0
 1387 0214 1400A0E3 		mov	r0, #20
 1388 0218 0010A0E3 		mov	r1, #0
 1389 021c FEFFFFEB 		bl	L3_putByte
  63:../src/uda1341ts.c ****     L3_putByte((0x3F - vol) , L3_DATA_MODE);
 1390              		.loc 1 63 0
 1391 0220 0D305BE5 		ldrb	r3, [fp, #-13]
 1392 0224 3F3063E2 		rsb	r3, r3, #63
 1393 0228 FF3003E2 		and	r3, r3, #255
 1394 022c 0300A0E1 		mov	r0, r3
 1395 0230 0110A0E3 		mov	r1, #1
 1396 0234 FEFFFFEB 		bl	L3_putByte
  64:../src/uda1341ts.c **** };
 1397              		.loc 1 64 0
 1398 0238 0CD04BE2 		sub	sp, fp, #12
 1399 023c 00689DE8 		ldmfd	sp, {fp, sp, lr}
 1400 0240 1EFF2FE1 		bx	lr
 1401              	.L14:
 1402              		.align	2
 1403              	.L13:
 1404 0244 00000000 		.word	volume
 1405              		.cfi_endproc
 1406              	.LFE5:
 1408              		.align	2
 1409              		.global	uda1341ts_getvol
 1411              	uda1341ts_getvol:
 1412              	.LFB6:
  65:../src/uda1341ts.c **** 
  66:../src/uda1341ts.c **** uint8 uda1341ts_getvol( void )
  67:../src/uda1341ts.c **** {
 1413              		.loc 1 67 0
 1414              		.cfi_startproc
 1415              		@ Function supports interworking.
 1416              		@ args = 0, pretend = 0, frame = 0
 1417              		@ frame_needed = 1, uses_anonymous_args = 0
 1418 0248 0DC0A0E1 		mov	ip, sp
 1419              	.LCFI12:
 1420              		.cfi_def_cfa_register 12
 1421 024c 00D82DE9 		stmfd	sp!, {fp, ip, lr, pc}
 1422 0250 04B04CE2 		sub	fp, ip, #4
 1423              		.cfi_offset 14, -8
 1424              		.cfi_offset 13, -12
 1425              		.cfi_offset 11, -16
 1426              	.LCFI13:
 1427              		.cfi_def_cfa 11, 4
  68:../src/uda1341ts.c **** 	return volume;
 1428              		.loc 1 68 0
 1429 0254 10309FE5 		ldr	r3, .L16
 1430 0258 0030D3E5 		ldrb	r3, [r3, #0]	@ zero_extendqisi2
  69:../src/uda1341ts.c **** };
 1431              		.loc 1 69 0
 1432 025c 0300A0E1 		mov	r0, r3
 1433 0260 0CD04BE2 		sub	sp, fp, #12
 1434 0264 00689DE8 		ldmfd	sp, {fp, sp, lr}
 1435 0268 1EFF2FE1 		bx	lr
 1436              	.L17:
 1437              		.align	2
 1438              	.L16:
 1439 026c 00000000 		.word	volume
 1440              		.cfi_endproc
 1441              	.LFE6:
 1443              	.Letext0: