   1              		.cpu arm7tdmi
   2              		.fpu softvfp
   3              		.eabi_attribute 20, 1
   4              		.eabi_attribute 21, 1
   5              		.eabi_attribute 23, 3
   6              		.eabi_attribute 24, 1
   7              		.eabi_attribute 25, 1
   8              		.eabi_attribute 26, 1
   9              		.eabi_attribute 30, 6
  10              		.eabi_attribute 18, 4
  11              		.file	"sintesisVoz.c"
  21              	.Ltext0:
  22              		.file 1 "../sintesisVoz.c"
 1058              		.align	2
 1061              	syllablesWavFile:
 1062 0000 0000200C 		.word	203423744
 1063 0004 0080200C 		.word	203456512
 1064 0008 0000210C 		.word	203489280
 1065 000c 0080210C 		.word	203522048
 1066 0010 0000220C 		.word	203554816
 1067 0014 0080220C 		.word	203587584
 1068 0018 0000230C 		.word	203620352
 1069 001c 0080230C 		.word	203653120
 1070 0020 0000240C 		.word	203685888
 1071 0024 0080240C 		.word	203718656
 1072 0028 0000250C 		.word	203751424
 1073 002c 0080250C 		.word	203784192
 1074 0030 0000260C 		.word	203816960
 1075 0034 0080260C 		.word	203849728
 1076 0038 0000270C 		.word	203882496
 1077 003c 0080270C 		.word	203915264
 1078 0040 0000280C 		.word	203948032
 1079 0044 0080280C 		.word	203980800
 1080 0048 0000290C 		.word	204013568
 1081 004c 0080290C 		.word	204046336
 1082 0050 00002A0C 		.word	204079104
 1083 0054 00802A0C 		.word	204111872
 1084 0058 00002B0C 		.word	204144640
 1085 005c 00802B0C 		.word	204177408
 1086 0060 00002C0C 		.word	204210176
 1087 0064 00802C0C 		.word	204242944
 1088 0068 00002D0C 		.word	204275712
 1089 006c 00802D0C 		.word	204308480
 1090 0070 00002E0C 		.word	204341248
 1091 0074 00802E0C 		.word	204374016
 1092 0078 00002F0C 		.word	204406784
 1093 007c 00802F0C 		.word	204439552
 1094 0080 0000300C 		.word	204472320
 1095 0084 0080300C 		.word	204505088
 1096 0088 0000310C 		.word	204537856
 1097 008c 0080310C 		.word	204570624
 1098 0090 0000320C 		.word	204603392
 1099 0094 0080320C 		.word	204636160
 1100 0098 0000330C 		.word	204668928
 1101 009c 0080330C 		.word	204701696
 1102 00a0 0000340C 		.word	204734464
 1103 00a4 0080340C 		.word	204767232
 1104 00a8 0000350C 		.word	204800000
 1105 00ac 0080350C 		.word	204832768
 1106 00b0 0000360C 		.word	204865536
 1107 00b4 0080360C 		.word	204898304
 1108 00b8 0000370C 		.word	204931072
 1109 00bc 0080370C 		.word	204963840
 1110 00c0 0000380C 		.word	204996608
 1111 00c4 0080380C 		.word	205029376
 1112 00c8 0000390C 		.word	205062144
 1113 00cc 0080390C 		.word	205094912
 1114 00d0 00003A0C 		.word	205127680
 1115 00d4 00803A0C 		.word	205160448
 1116 00d8 00003B0C 		.word	205193216
 1117 00dc 00803B0C 		.word	205225984
 1118 00e0 00003C0C 		.word	205258752
 1119 00e4 00803C0C 		.word	205291520
 1120 00e8 00003D0C 		.word	205324288
 1121 00ec 00803D0C 		.word	205357056
 1122 00f0 00003E0C 		.word	205389824
 1123 00f4 00803E0C 		.word	205422592
 1124 00f8 00003F0C 		.word	205455360
 1125 00fc 00803F0C 		.word	205488128
 1126 0100 0000400C 		.word	205520896
 1127 0104 0080400C 		.word	205553664
 1128 0108 0000410C 		.word	205586432
 1129 010c 0080410C 		.word	205619200
 1130 0110 0000420C 		.word	205651968
 1131 0114 0080420C 		.word	205684736
 1132 0118 0000430C 		.word	205717504
 1133 011c 0080430C 		.word	205750272
 1134 0120 0000440C 		.word	205783040
 1135 0124 0080440C 		.word	205815808
 1136 0128 0000450C 		.word	205848576
 1137 012c 0080450C 		.word	205881344
 1138 0130 0000460C 		.word	205914112
 1139 0134 0080460C 		.word	205946880
 1140 0138 0000470C 		.word	205979648
 1141 013c 0080470C 		.word	206012416
 1142 0140 0000480C 		.word	206045184
 1143 0144 0080480C 		.word	206077952
 1144 0148 0000490C 		.word	206110720
 1145 014c 0080490C 		.word	206143488
 1146 0150 00004A0C 		.word	206176256
 1147 0154 00804A0C 		.word	206209024
 1148 0158 00004B0C 		.word	206241792
 1149 015c 00804B0C 		.word	206274560
 1150 0160 00004C0C 		.word	206307328
 1151 0164 00804C0C 		.word	206340096
 1152 0168 00004D0C 		.word	206372864
 1153 016c 00804D0C 		.word	206405632
 1154 0170 00004E0C 		.word	206438400
 1155 0174 00804E0C 		.word	206471168
 1156 0178 00004F0C 		.word	206503936
 1157 017c 00804F0C 		.word	206536704
 1158 0180 0000500C 		.word	206569472
 1159 0184 0080500C 		.word	206602240
 1160 0188 0000510C 		.word	206635008
 1161 018c 0080510C 		.word	206667776
 1162 0190 0000520C 		.word	206700544
 1163 0194 0080520C 		.word	206733312
 1164 0198 0000530C 		.word	206766080
 1165 019c 0080530C 		.word	206798848
 1166 01a0 0000540C 		.word	206831616
 1167 01a4 0080540C 		.word	206864384
 1168 01a8 0000550C 		.word	206897152
 1169 01ac 0080550C 		.word	206929920
 1170 01b0 0000560C 		.word	206962688
 1171 01b4 0080560C 		.word	206995456
 1172 01b8 0000570C 		.word	207028224
 1173 01bc 0080570C 		.word	207060992
 1174 01c0 0000580C 		.word	207093760
 1175 01c4 0080580C 		.word	207126528
 1176 01c8 0000590C 		.word	207159296
 1177 01cc 0080590C 		.word	207192064
 1178 01d0 00005A0C 		.word	207224832
 1179 01d4 00805A0C 		.word	207257600
 1180 01d8 00005B0C 		.word	207290368
 1181 01dc 00805B0C 		.word	207323136
 1182 01e0 00005C0C 		.word	207355904
 1183 01e4 00805C0C 		.word	207388672
 1184 01e8 00005D0C 		.word	207421440
 1185 01ec 00805D0C 		.word	207454208
 1186 01f0 00005E0C 		.word	207486976
 1187 01f4 00805E0C 		.word	207519744
 1188 01f8 00005F0C 		.word	207552512
 1189 01fc 00805F0C 		.word	207585280
 1190 0200 0000600C 		.word	207618048
 1191 0204 0080600C 		.word	207650816
 1192 0208 0000610C 		.word	207683584
 1193 020c 0080610C 		.word	207716352
 1194 0210 0000620C 		.word	207749120
 1195 0214 0080620C 		.word	207781888
 1196 0218 0000630C 		.word	207814656
 1197 021c 0080630C 		.word	207847424
 1198 0220 0000640C 		.word	207880192
 1199 0224 0080640C 		.word	207912960
 1200 0228 0000650C 		.word	207945728
 1201 022c 0080650C 		.word	207978496
 1202 0230 0000660C 		.word	208011264
 1203 0234 0080660C 		.word	208044032
 1204 0238 0000670C 		.word	208076800
 1205 023c 0080670C 		.word	208109568
 1206 0240 0000680C 		.word	208142336
 1207 0244 0080680C 		.word	208175104
 1208 0248 0000690C 		.word	208207872
 1209 024c 0080690C 		.word	208240640
 1210 0250 00006A0C 		.word	208273408
 1211 0254 00806A0C 		.word	208306176
 1212 0258 00006B0C 		.word	208338944
 1213 025c 00806B0C 		.word	208371712
 1214 0260 00006C0C 		.word	208404480
 1215 0264 00806C0C 		.word	208437248
 1216 0268 00006D0C 		.word	208470016
 1217 026c 00806D0C 		.word	208502784
 1218 0270 00006E0C 		.word	208535552
 1219 0274 00806E0C 		.word	208568320
 1220 0278 00006F0C 		.word	208601088
 1221 027c 00806F0C 		.word	208633856
 1222 0280 0000700C 		.word	208666624
 1223 0284 0080700C 		.word	208699392
 1224 0288 0000710C 		.word	208732160
 1225 028c 0080710C 		.word	208764928
 1226 0290 0000720C 		.word	208797696
 1227 0294 0080720C 		.word	208830464
 1228 0298 0000730C 		.word	208863232
 1229 029c 0080730C 		.word	208896000
 1230 02a0 0000740C 		.word	208928768
 1231 02a4 0080740C 		.word	208961536
 1232 02a8 0000750C 		.word	208994304
 1233 02ac 0080750C 		.word	209027072
 1234 02b0 0000760C 		.word	209059840
 1235 02b4 0080760C 		.word	209092608
 1236 02b8 0000770C 		.word	209125376
 1237 02bc 0080770C 		.word	209158144
 1238 02c0 0000780C 		.word	209190912
 1239 02c4 0080780C 		.word	209223680
 1240 02c8 0000790C 		.word	209256448
 1241 02cc 0080790C 		.word	209289216
 1242 02d0 00007A0C 		.word	209321984
 1243 02d4 00807A0C 		.word	209354752
 1244              		.text
 1245              		.align	2
 1246              		.global	iis_textToSpeech
 1248              	iis_textToSpeech:
 1249              	.LFB0:
   1:../sintesisVoz.c **** 
   2:../sintesisVoz.c **** #include <iis.h>
   3:../sintesisVoz.c **** #include "sintesisVoz.h"
   4:../sintesisVoz.c **** 
   5:../sintesisVoz.c **** // Identificadores de sonidos
   6:../sintesisVoz.c **** typedef enum
   7:../sintesisVoz.c **** {
   8:../sintesisVoz.c ****     // vocales (5)
   9:../sintesisVoz.c ****     a, e, i, o, u,
  10:../sintesisVoz.c ****     // consonantes (19)
  11:../sintesisVoz.c ****     b, d, f, g, j, k, l, m, n, N, p, r, R, s, t, x, y, z, H,
  12:../sintesisVoz.c ****     // consontante + vocal (95)
  13:../sintesisVoz.c ****     ba, be, bi, bo, bu, da, de, di, Do, du, fa, fe, fi, fo, fu,
  14:../sintesisVoz.c ****     ga, ge, gi, go, gu, ja, je, ji, jo, ju,    ka, ke, ki, ko, ku,
  15:../sintesisVoz.c ****     la, le, li, lo, lu, ma, me, mi, mo, mu, na, ne, ni, no, nu,
  16:../sintesisVoz.c ****     Na, Ne, Ni, No, Nu, pa, pe, pi, po, pu, ra, re, ri, ro, ru,
  17:../sintesisVoz.c ****     Ra, Re, Ri, Ro, Ru, sa, se, si, so, su, ta, te, ti, to, tu,
  18:../sintesisVoz.c ****     xa, xe, xi, xo, xu, ya, ye, yi, yo, yu,    za, ze, zi, zo, zu,
  19:../sintesisVoz.c ****     Ha, He, Hi, Ho, Hu,
  20:../sintesisVoz.c ****     // trabadas (60)
  21:../sintesisVoz.c ****     bla, ble, bli, blo, blu, bra, bre, bri, bro, bru,
  22:../sintesisVoz.c ****     fla, fle, fli, flo, flu, fra, fre, fri, fro, fru,
  23:../sintesisVoz.c ****     gla, gle, gli, glo, glu, gra, gre, gri, gro, gru,
  24:../sintesisVoz.c ****     kla, kle, kli, klo, klu, kra, kre, kri, kro, kru,
  25:../sintesisVoz.c ****     pla, ple, pli, plo, plu, pra, pre, pri, pro, pru,
  26:../sintesisVoz.c ****     tra, tre, tri, tro, tru,
  27:../sintesisVoz.c ****     dra, dre, dri, dro, dru,
  28:../sintesisVoz.c ****     // mudos (3)
  29:../sintesisVoz.c ****     espacio, coma, punto
  30:../sintesisVoz.c **** } syllableId_t;
  31:../sintesisVoz.c **** 
  32:../sintesisVoz.c **** // Array de punteros a WAV de sonidos
  33:../sintesisVoz.c **** static const uint8 *syllablesWavFile[punto-a+1] = {
  34:../sintesisVoz.c ****     // vocales (5)
  35:../sintesisVoz.c ****     (uint8 *) 0x0c200000, // a
  36:../sintesisVoz.c ****     (uint8 *) 0x0c208000, // e
  37:../sintesisVoz.c ****     (uint8 *) 0x0c210000, // i
  38:../sintesisVoz.c ****     (uint8 *) 0x0c218000, // o
  39:../sintesisVoz.c ****     (uint8 *) 0x0c220000, // u
  40:../sintesisVoz.c ****     // consonantes (19)
  41:../sintesisVoz.c ****     (uint8 *) 0x0c228000, // b
  42:../sintesisVoz.c ****     (uint8 *) 0x0c230000, // d
  43:../sintesisVoz.c ****     (uint8 *) 0x0c238000, // f
  44:../sintesisVoz.c ****     (uint8 *) 0x0c240000, // g
  45:../sintesisVoz.c ****     (uint8 *) 0x0c248000, // j
  46:../sintesisVoz.c ****     (uint8 *) 0x0c250000, // k
  47:../sintesisVoz.c ****     (uint8 *) 0x0c258000, // l
  48:../sintesisVoz.c ****     (uint8 *) 0x0c260000, // m
  49:../sintesisVoz.c ****     (uint8 *) 0x0c268000, // n
  50:../sintesisVoz.c ****     (uint8 *) 0x0c270000, // N (sonido ñ)
  51:../sintesisVoz.c ****     (uint8 *) 0x0c278000, // p
  52:../sintesisVoz.c ****     (uint8 *) 0x0c280000, // r
  53:../sintesisVoz.c ****     (uint8 *) 0x0c288000, // R (sonido rr)
  54:../sintesisVoz.c ****     (uint8 *) 0x0c290000, // s
  55:../sintesisVoz.c ****     (uint8 *) 0x0c298000, // t
  56:../sintesisVoz.c ****     (uint8 *) 0x0c2a0000, // x
  57:../sintesisVoz.c ****     (uint8 *) 0x0c2a8000, // y
  58:../sintesisVoz.c ****     (uint8 *) 0x0c2b0000, // z
  59:../sintesisVoz.c ****     (uint8 *) 0x0c2b8000, // H (sonido ch)
  60:../sintesisVoz.c ****     // consontante + vocal (95)
  61:../sintesisVoz.c ****     (uint8 *) 0x0c2c0000, // ba (ba y va)
  62:../sintesisVoz.c ****     (uint8 *) 0x0c2c8000, // be (be y ve)
  63:../sintesisVoz.c ****     (uint8 *) 0x0c2d0000, // bi (bi y vi)
  64:../sintesisVoz.c ****     (uint8 *) 0x0c2d8000, // bo (bo y vo)
  65:../sintesisVoz.c ****     (uint8 *) 0x0c2e0000, // bu (bu y vu)
  66:../sintesisVoz.c ****     (uint8 *) 0x0c2e8000, // da
  67:../sintesisVoz.c ****     (uint8 *) 0x0c2f0000, // de
  68:../sintesisVoz.c ****     (uint8 *) 0x0c2f8000, // di
  69:../sintesisVoz.c ****     (uint8 *) 0x0c300000, // Do (do es palabra reservada en C)
  70:../sintesisVoz.c ****     (uint8 *) 0x0c308000, // du
  71:../sintesisVoz.c ****     (uint8 *) 0x0c310000, // fa
  72:../sintesisVoz.c ****     (uint8 *) 0x0c318000, // fe
  73:../sintesisVoz.c ****     (uint8 *) 0x0c320000, // fi
  74:../sintesisVoz.c ****     (uint8 *) 0x0c328000, // fo
  75:../sintesisVoz.c ****     (uint8 *) 0x0c330000, // fu
  76:../sintesisVoz.c ****     (uint8 *) 0x0c338000, // ga
  77:../sintesisVoz.c ****     (uint8 *) 0x0c340000, // ge (sonido gue)
  78:../sintesisVoz.c ****     (uint8 *) 0x0c348000, // gi (sonido gui)
  79:../sintesisVoz.c ****     (uint8 *) 0x0c350000, // go
  80:../sintesisVoz.c ****     (uint8 *) 0x0c358000, // gu (sonido gu y gü)
  81:../sintesisVoz.c ****     (uint8 *) 0x0c360000, // ja
  82:../sintesisVoz.c ****     (uint8 *) 0x0c368000, // je (je y ge)
  83:../sintesisVoz.c ****     (uint8 *) 0x0c370000, // ji (ji y gi)
  84:../sintesisVoz.c ****     (uint8 *) 0x0c378000, // jo
  85:../sintesisVoz.c ****     (uint8 *) 0x0c380000, // ju
  86:../sintesisVoz.c ****     (uint8 *) 0x0c388000, // ka (ka y ca)
  87:../sintesisVoz.c ****     (uint8 *) 0x0c390000, // ke (ke y que)
  88:../sintesisVoz.c ****     (uint8 *) 0x0c398000, // ki (ki y qui)
  89:../sintesisVoz.c ****     (uint8 *) 0x0c3a0000, // ko (ko y co)
  90:../sintesisVoz.c ****     (uint8 *) 0x0c3a8000, // ku (ku y cu)
  91:../sintesisVoz.c ****     (uint8 *) 0x0c3b0000, // la
  92:../sintesisVoz.c ****     (uint8 *) 0x0c3b8000, // le
  93:../sintesisVoz.c ****     (uint8 *) 0x0c3c0000, // li
  94:../sintesisVoz.c ****     (uint8 *) 0x0c3c8000, // lo
  95:../sintesisVoz.c ****     (uint8 *) 0x0c3d0000, // lu
  96:../sintesisVoz.c ****     (uint8 *) 0x0c3d8000, // ma
  97:../sintesisVoz.c ****     (uint8 *) 0x0c3e0000, // me
  98:../sintesisVoz.c ****     (uint8 *) 0x0c3e8000, // mi
  99:../sintesisVoz.c ****     (uint8 *) 0x0c3f0000, // mo
 100:../sintesisVoz.c ****     (uint8 *) 0x0c3f8000, // mu
 101:../sintesisVoz.c ****     (uint8 *) 0x0c400000, // na
 102:../sintesisVoz.c ****     (uint8 *) 0x0c408000, // ne
 103:../sintesisVoz.c ****     (uint8 *) 0x0c410000, // ni
 104:../sintesisVoz.c ****     (uint8 *) 0x0c418000, // no
 105:../sintesisVoz.c ****     (uint8 *) 0x0c420000, // nu
 106:../sintesisVoz.c ****     (uint8 *) 0x0c428000, // Na (sonido ña)
 107:../sintesisVoz.c ****     (uint8 *) 0x0c430000, // Ne (sonido ñe)
 108:../sintesisVoz.c ****     (uint8 *) 0x0c438000, // Ni (sonido ñi)
 109:../sintesisVoz.c ****     (uint8 *) 0x0c440000, // No (sonido ño)
 110:../sintesisVoz.c ****     (uint8 *) 0x0c448000, // Nu (sonido ñu)
 111:../sintesisVoz.c ****     (uint8 *) 0x0c450000, // pa
 112:../sintesisVoz.c ****     (uint8 *) 0x0c458000, // pe
 113:../sintesisVoz.c ****     (uint8 *) 0x0c460000, // pi
 114:../sintesisVoz.c ****     (uint8 *) 0x0c468000, // po
 115:../sintesisVoz.c ****     (uint8 *) 0x0c470000, // pu
 116:../sintesisVoz.c ****     (uint8 *) 0x0c478000, // ra
 117:../sintesisVoz.c ****     (uint8 *) 0x0c480000, // re
 118:../sintesisVoz.c ****     (uint8 *) 0x0c488000, // ri
 119:../sintesisVoz.c ****     (uint8 *) 0x0c490000, // ro
 120:../sintesisVoz.c ****     (uint8 *) 0x0c498000, // ru
 121:../sintesisVoz.c ****     (uint8 *) 0x0c4a0000, // Ra (sonido rra)
 122:../sintesisVoz.c ****     (uint8 *) 0x0c4a8000, // Re (sonido rre)
 123:../sintesisVoz.c ****     (uint8 *) 0x0c4b0000, // Ri (sonido rri)
 124:../sintesisVoz.c ****     (uint8 *) 0x0c4b8000, // Ro (sonido rro)
 125:../sintesisVoz.c ****     (uint8 *) 0x0c4c0000, // Ru (sonido rru)
 126:../sintesisVoz.c ****     (uint8 *) 0x0c4c8000, // sa
 127:../sintesisVoz.c ****     (uint8 *) 0x0c4d0000, // se
 128:../sintesisVoz.c ****     (uint8 *) 0x0c4d8000, // si
 129:../sintesisVoz.c ****     (uint8 *) 0x0c4e0000, // so
 130:../sintesisVoz.c ****     (uint8 *) 0x0c4e8000, // su
 131:../sintesisVoz.c ****     (uint8 *) 0x0c4f0000, // ta
 132:../sintesisVoz.c ****     (uint8 *) 0x0c4f8000, // te
 133:../sintesisVoz.c ****     (uint8 *) 0x0c500000, // ti
 134:../sintesisVoz.c ****     (uint8 *) 0x0c508000, // to
 135:../sintesisVoz.c ****     (uint8 *) 0x0c510000, // tu
 136:../sintesisVoz.c ****     (uint8 *) 0x0c518000, // xa
 137:../sintesisVoz.c ****     (uint8 *) 0x0c520000, // xe
 138:../sintesisVoz.c ****     (uint8 *) 0x0c528000, // xi
 139:../sintesisVoz.c ****     (uint8 *) 0x0c530000, // xo
 140:../sintesisVoz.c ****     (uint8 *) 0x0c538000, // xu
 141:../sintesisVoz.c ****     (uint8 *) 0x0c540000, // ya (ya y lla)
 142:../sintesisVoz.c ****     (uint8 *) 0x0c548000, // ye (ye y lle)
 143:../sintesisVoz.c ****     (uint8 *) 0x0c550000, // yi (yi y lli)
 144:../sintesisVoz.c ****     (uint8 *) 0x0c558000, // yo (yo y llo)
 145:../sintesisVoz.c ****     (uint8 *) 0x0c560000, // yu (yu y llu)
 146:../sintesisVoz.c ****     (uint8 *) 0x0c568000, // za
 147:../sintesisVoz.c ****     (uint8 *) 0x0c570000, // ze (ze y ce)
 148:../sintesisVoz.c ****     (uint8 *) 0x0c578000, // zi (zi y ci)
 149:../sintesisVoz.c ****     (uint8 *) 0x0c580000, // zo
 150:../sintesisVoz.c ****     (uint8 *) 0x0c588000, // zu
 151:../sintesisVoz.c ****     (uint8 *) 0x0c590000, // Ha (sonido cha)
 152:../sintesisVoz.c ****     (uint8 *) 0x0c598000, // He (sonido che)
 153:../sintesisVoz.c ****     (uint8 *) 0x0c5a0000, // Hi (sonido chi)
 154:../sintesisVoz.c ****     (uint8 *) 0x0c5a8000, // Ho (sonido cho)
 155:../sintesisVoz.c ****     (uint8 *) 0x0c5b0000, // Hu (sonido chu)
 156:../sintesisVoz.c ****     // trabadas (60)
 157:../sintesisVoz.c ****     (uint8 *) 0x0c5b8000, // bla
 158:../sintesisVoz.c ****     (uint8 *) 0x0c5c0000, // ble
 159:../sintesisVoz.c ****     (uint8 *) 0x0c5c8000, // bli
 160:../sintesisVoz.c ****     (uint8 *) 0x0c5d0000, // blo
 161:../sintesisVoz.c ****     (uint8 *) 0x0c5d8000, // blu
 162:../sintesisVoz.c ****     (uint8 *) 0x0c5e0000, // bra
 163:../sintesisVoz.c ****     (uint8 *) 0x0c5e8000, // bre
 164:../sintesisVoz.c ****     (uint8 *) 0x0c5f0000, // bri
 165:../sintesisVoz.c ****     (uint8 *) 0x0c5f8000, // bro
 166:../sintesisVoz.c ****     (uint8 *) 0x0c600000, // bru
 167:../sintesisVoz.c ****     (uint8 *) 0x0c608000, // fla
 168:../sintesisVoz.c ****     (uint8 *) 0x0c610000, // fle
 169:../sintesisVoz.c ****     (uint8 *) 0x0c618000, // fli
 170:../sintesisVoz.c ****     (uint8 *) 0x0c620000, // flo
 171:../sintesisVoz.c ****     (uint8 *) 0x0c628000, // flu
 172:../sintesisVoz.c ****     (uint8 *) 0x0c630000, // fra
 173:../sintesisVoz.c ****     (uint8 *) 0x0c638000, // fre
 174:../sintesisVoz.c ****     (uint8 *) 0x0c640000, // fri
 175:../sintesisVoz.c ****     (uint8 *) 0x0c648000, // fro
 176:../sintesisVoz.c ****     (uint8 *) 0x0c650000, // fru
 177:../sintesisVoz.c ****     (uint8 *) 0x0c658000, // gla
 178:../sintesisVoz.c ****     (uint8 *) 0x0c660000, // gle
 179:../sintesisVoz.c ****     (uint8 *) 0x0c668000, // gli
 180:../sintesisVoz.c ****     (uint8 *) 0x0c670000, // glo
 181:../sintesisVoz.c ****     (uint8 *) 0x0c678000, // glu
 182:../sintesisVoz.c ****     (uint8 *) 0x0c680000, // gra
 183:../sintesisVoz.c ****     (uint8 *) 0x0c688000, // gre
 184:../sintesisVoz.c ****     (uint8 *) 0x0c690000, // gri
 185:../sintesisVoz.c ****     (uint8 *) 0x0c698000, // gro
 186:../sintesisVoz.c ****     (uint8 *) 0x0c6a0000, // gru
 187:../sintesisVoz.c ****     (uint8 *) 0x0c6a8000, // kla (sonido cla)
 188:../sintesisVoz.c ****     (uint8 *) 0x0c6b0000, // kle (sonido cle)
 189:../sintesisVoz.c ****     (uint8 *) 0x0c6b8000, // kli (sonido cli)
 190:../sintesisVoz.c ****     (uint8 *) 0x0c6c0000, // klo (sonido clo)
 191:../sintesisVoz.c ****     (uint8 *) 0x0c6c8000, // klu (sonido clu)
 192:../sintesisVoz.c ****     (uint8 *) 0x0c6d0000, // kra (sonido cra)
 193:../sintesisVoz.c ****     (uint8 *) 0x0c6d8000, // kre (sonido cre)
 194:../sintesisVoz.c ****     (uint8 *) 0x0c6e0000, // kri (sonido cri)
 195:../sintesisVoz.c ****     (uint8 *) 0x0c6e8000, // kro (sonido cro)
 196:../sintesisVoz.c ****     (uint8 *) 0x0c6f0000, // kru (sonido kru)
 197:../sintesisVoz.c ****     (uint8 *) 0x0c6f8000, // pla
 198:../sintesisVoz.c ****     (uint8 *) 0x0c700000, // ple
 199:../sintesisVoz.c ****     (uint8 *) 0x0c708000, // pli
 200:../sintesisVoz.c ****     (uint8 *) 0x0c710000, // plo
 201:../sintesisVoz.c ****     (uint8 *) 0x0c718000, // plu
 202:../sintesisVoz.c ****     (uint8 *) 0x0c720000, // pra
 203:../sintesisVoz.c ****     (uint8 *) 0x0c728000, // pre
 204:../sintesisVoz.c ****     (uint8 *) 0x0c730000, // pri
 205:../sintesisVoz.c ****     (uint8 *) 0x0c738000, // pro
 206:../sintesisVoz.c ****     (uint8 *) 0x0c740000, // pru
 207:../sintesisVoz.c ****     (uint8 *) 0x0c748000, // tra
 208:../sintesisVoz.c ****     (uint8 *) 0x0c750000, // tre
 209:../sintesisVoz.c ****     (uint8 *) 0x0c758000, // tri
 210:../sintesisVoz.c ****     (uint8 *) 0x0c760000, // tro
 211:../sintesisVoz.c ****     (uint8 *) 0x0c768000, // tru
 212:../sintesisVoz.c ****     (uint8 *) 0x0c770000, // dra
 213:../sintesisVoz.c ****     (uint8 *) 0x0c778000, // dre
 214:../sintesisVoz.c ****     (uint8 *) 0x0c780000, // dri
 215:../sintesisVoz.c ****     (uint8 *) 0x0c788000, // dro
 216:../sintesisVoz.c ****     (uint8 *) 0x0c790000, // dru
 217:../sintesisVoz.c ****     // mudos (3)
 218:../sintesisVoz.c ****     (uint8 *) 0x0c798000, // espacio
 219:../sintesisVoz.c ****     (uint8 *) 0x0c7a0000, // coma
 220:../sintesisVoz.c ****     (uint8 *) 0x0c7a8000  // punto
 221:../sintesisVoz.c **** };
 222:../sintesisVoz.c **** 
 223:../sintesisVoz.c **** static void faseMonolitera( char *txtIn, char *txtOut );
 224:../sintesisVoz.c **** static void faseBilitera( char *txtIn, char *txtOut );
 225:../sintesisVoz.c **** static char *getSyllableId( char *txt, syllableId_t *id );
 226:../sintesisVoz.c **** static boolean esPuntuacion( char ch );
 227:../sintesisVoz.c **** static boolean esVocal( char ch );
 228:../sintesisVoz.c **** static boolean esConsonante( char ch );
 229:../sintesisVoz.c **** static boolean esBFGKP( char ch );
 230:../sintesisVoz.c **** static boolean esBDFGKPT( char ch );
 231:../sintesisVoz.c **** 
 232:../sintesisVoz.c **** /*******************************************************************/
 233:../sintesisVoz.c **** 
 234:../sintesisVoz.c **** void iis_textToSpeech( char *texto )
 235:../sintesisVoz.c **** {
 1250              		.loc 1 235 0
 1251              		.cfi_startproc
 1252              		@ Function supports interworking.
 1253              		@ args = 0, pretend = 0, frame = 4016
 1254              		@ frame_needed = 1, uses_anonymous_args = 0
 1255 0000 0DC0A0E1 		mov	ip, sp
 1256              	.LCFI0:
 1257              		.cfi_def_cfa_register 12
 1258 0004 00D82DE9 		stmfd	sp!, {fp, ip, lr, pc}
 1259 0008 04B04CE2 		sub	fp, ip, #4
 1260              		.cfi_offset 14, -8
 1261              		.cfi_offset 13, -12
 1262              		.cfi_offset 11, -16
 1263              	.LCFI1:
 1264              		.cfi_def_cfa 11, 4
 1265 000c FBDE4DE2 		sub	sp, sp, #4016
 1266 0010 B80F0BE5 		str	r0, [fp, #-4024]
 236:../sintesisVoz.c ****     char *tp;
 237:../sintesisVoz.c ****     syllableId_t i;
 238:../sintesisVoz.c **** 
 239:../sintesisVoz.c ****     char textoSimplificado[TXT_MAXLEN];
 240:../sintesisVoz.c ****     char textoFonetico[TXT_MAXLEN];
 241:../sintesisVoz.c **** 
 242:../sintesisVoz.c ****     faseMonolitera( texto, textoSimplificado );        // Transforma el texto para que use un conju
 1267              		.loc 1 242 0
 1268 0014 7D3E4BE2 		sub	r3, fp, #2000
 1269 0018 0C3043E2 		sub	r3, r3, #12
 1270 001c 083043E2 		sub	r3, r3, #8
 1271 0020 B80F1BE5 		ldr	r0, [fp, #-4024]
 1272 0024 0310A0E1 		mov	r1, r3
 1273 0028 1F0000EB 		bl	faseMonolitera
 243:../sintesisVoz.c ****     faseBilitera( textoSimplificado, textoFonetico );   // Transforma el texto para que solo tenga
 1274              		.loc 1 243 0
 1275 002c 7D2E4BE2 		sub	r2, fp, #2000
 1276 0030 0C2042E2 		sub	r2, r2, #12
 1277 0034 082042E2 		sub	r2, r2, #8
 1278 0038 FA3E4BE2 		sub	r3, fp, #4000
 1279 003c 0C3043E2 		sub	r3, r3, #12
 1280 0040 083043E2 		sub	r3, r3, #8
 1281 0044 0200A0E1 		mov	r0, r2
 1282 0048 0310A0E1 		mov	r1, r3
 1283 004c E10000EB 		bl	faseBilitera
 244:../sintesisVoz.c ****     tp = textoFonetico;
 1284              		.loc 1 244 0
 1285 0050 FA3E4BE2 		sub	r3, fp, #4000
 1286 0054 0C3043E2 		sub	r3, r3, #12
 1287 0058 083043E2 		sub	r3, r3, #8
 1288 005c 10300BE5 		str	r3, [fp, #-16]
 245:../sintesisVoz.c ****     //tp = textoSimplificado;
 246:../sintesisVoz.c ****     //uart0_puts( tp );
 247:../sintesisVoz.c **** 
 248:../sintesisVoz.c ****     while( tp = getSyllableId( tp, &i ) )            // Extrae una sílaba del texto y devuelve su i
 1289              		.loc 1 248 0
 1290 0060 050000EA 		b	.L2
 1291              	.L3:
 249:../sintesisVoz.c ****     	iis_playwawFile( syllablesWavFile[i] );        // Reproduce el correspondiente sonido indexand
 1292              		.loc 1 249 0
 1293 0064 11305BE5 		ldrb	r3, [fp, #-17]	@ zero_extendqisi2
 1294 0068 0320A0E1 		mov	r2, r3
 1295 006c 34309FE5 		ldr	r3, .L4
 1296 0070 023193E7 		ldr	r3, [r3, r2, asl #2]
 1297 0074 0300A0E1 		mov	r0, r3
 1298 0078 FEFFFFEB 		bl	iis_playwawFile
 1299              	.L2:
 248:../sintesisVoz.c ****     while( tp = getSyllableId( tp, &i ) )            // Extrae una sílaba del texto y devuelve su i
 1300              		.loc 1 248 0 discriminator 1
 1301 007c 11304BE2 		sub	r3, fp, #17
 1302 0080 10001BE5 		ldr	r0, [fp, #-16]
 1303 0084 0310A0E1 		mov	r1, r3
 1304 0088 340600EB 		bl	getSyllableId
 1305 008c 10000BE5 		str	r0, [fp, #-16]
 1306 0090 10301BE5 		ldr	r3, [fp, #-16]
 1307 0094 000053E3 		cmp	r3, #0
 1308 0098 F1FFFF1A 		bne	.L3
 250:../sintesisVoz.c **** }
 1309              		.loc 1 250 0
 1310 009c 0CD04BE2 		sub	sp, fp, #12
 1311 00a0 00689DE8 		ldmfd	sp, {fp, sp, lr}
 1312 00a4 1EFF2FE1 		bx	lr
 1313              	.L5:
 1314              		.align	2
 1315              	.L4:
 1316 00a8 00000000 		.word	syllablesWavFile
 1317              		.cfi_endproc
 1318              	.LFE0:
 1320              		.align	2
 1322              	faseMonolitera:
 1323              	.LFB1:
 251:../sintesisVoz.c **** 
 252:../sintesisVoz.c **** /*******************************************************************/
 253:../sintesisVoz.c **** 
 254:../sintesisVoz.c **** /*
 255:../sintesisVoz.c **** Realiza las siguientes transformaciones:
 256:../sintesisVoz.c ****     - Reemplaza letras mayúsculas por sus correspondientes minúsculas
 257:../sintesisVoz.c ****     - Reemplaza vocales acentuadas por sus correspondientes vocales sin acentuar
 258:../sintesisVoz.c ****     - Reemplaza los caracteres no pronunciables por '-'
 259:../sintesisVoz.c ****     - Reemplaza 'v' por 'b'
 260:../sintesisVoz.c ****     - Reemplaza signos de puntuación por '.' o ','
 261:../sintesisVoz.c ****     - Deja sin alterar letras minúsculas, dígitos y el caracter ' '
 262:../sintesisVoz.c **** El texto de salida tiene el mismo número de caracteres que el texto de entrada
 263:../sintesisVoz.c **** */
 264:../sintesisVoz.c **** static void faseMonolitera( char *txtIn, char *txtOut )
 265:../sintesisVoz.c **** {
 1324              		.loc 1 265 0
 1325              		.cfi_startproc
 1326              		@ Function supports interworking.
 1327              		@ args = 0, pretend = 0, frame = 16
 1328              		@ frame_needed = 1, uses_anonymous_args = 0
 1329 00ac 0DC0A0E1 		mov	ip, sp
 1330              	.LCFI2:
 1331              		.cfi_def_cfa_register 12
 1332 00b0 00D82DE9 		stmfd	sp!, {fp, ip, lr, pc}
 1333 00b4 04B04CE2 		sub	fp, ip, #4
 1334              		.cfi_offset 14, -8
 1335              		.cfi_offset 13, -12
 1336              		.cfi_offset 11, -16
 1337              	.LCFI3:
 1338              		.cfi_def_cfa 11, 4
 1339 00b8 10D04DE2 		sub	sp, sp, #16
 1340 00bc 18000BE5 		str	r0, [fp, #-24]
 1341 00c0 1C100BE5 		str	r1, [fp, #-28]
 266:../sintesisVoz.c ****     static const char charMap[256] = {
 267:../sintesisVoz.c ****         '-', '-', '-', '-', '-', '-', '-', '-', '-', '-', '-', '-', '-', '-', '-', '-',
 268:../sintesisVoz.c ****         '-', '-', '-', '-', '-', '-', '-', '-', '-', '-', '-', '-', '-', '-', '-', '-',
 269:../sintesisVoz.c ****         '-', '-', '-', '-', '-', '-', '-', '-', '-', '-', '-', '-', '-', '-', '-', '-',
 270:../sintesisVoz.c ****         '-', '-', '-', '-', '-', '-', '-', '-', '-', '-', '-', '-', '-', '-', '-', '-',
 271:../sintesisVoz.c ****         ' ', '-', '-', '-', '-', '-', '-', '-', '-', '-', '-', '-', ',', '-', '.', '-',
 272:../sintesisVoz.c ****         '0', '1', '2', '3', '4', '5', '6', '7', '8', '9', '.', '.', '-', '-', '-', '-',
 273:../sintesisVoz.c ****         '-', 'a', 'b', 'c', 'd', 'e', 'f', 'g', 'h', 'i', 'j', 'k', 'l', 'm', 'n', 'o',
 274:../sintesisVoz.c ****         'p', 'q', 'r', 's', 't', 'u', 'b', 'w', 'x', 'y', 'z'
 275:../sintesisVoz.c ****     };
 276:../sintesisVoz.c **** 
 277:../sintesisVoz.c ****     char *ant = ' ';
 1342              		.loc 1 277 0
 1343 00c4 2030A0E3 		mov	r3, #32
 1344 00c8 10300BE5 		str	r3, [fp, #-16]
 278:../sintesisVoz.c **** 
 279:../sintesisVoz.c ****     while( *txtIn ) {
 1345              		.loc 1 279 0
 1346 00cc B60000EA 		b	.L7
 1347              	.L24:
 1348              	.LBB2:
 280:../sintesisVoz.c ****     	//Reemplazamos vocales acentuadas por sus correspondientes vocales sin acentuar
 281:../sintesisVoz.c ****     	if( *txtIn == 'á' || *txtIn == 'Á' ) *txtOut++ = charMap[97];
 1349              		.loc 1 281 0
 1350 00d0 18301BE5 		ldr	r3, [fp, #-24]
 1351 00d4 0030D3E5 		ldrb	r3, [r3, #0]	@ zero_extendqisi2
 1352 00d8 E10053E3 		cmp	r3, #225
 1353 00dc 0300000A 		beq	.L8
 1354              		.loc 1 281 0 is_stmt 0 discriminator 2
 1355 00e0 18301BE5 		ldr	r3, [fp, #-24]
 1356 00e4 0030D3E5 		ldrb	r3, [r3, #0]	@ zero_extendqisi2
 1357 00e8 C10053E3 		cmp	r3, #193
 1358 00ec 0700001A 		bne	.L9
 1359              	.L8:
 1360              		.loc 1 281 0 discriminator 1
 1361 00f0 DC329FE5 		ldr	r3, .L25
 1362 00f4 6120D3E5 		ldrb	r2, [r3, #97]	@ zero_extendqisi2
 1363 00f8 1C301BE5 		ldr	r3, [fp, #-28]
 1364 00fc 0020C3E5 		strb	r2, [r3, #0]
 1365 0100 1C301BE5 		ldr	r3, [fp, #-28]
 1366 0104 013083E2 		add	r3, r3, #1
 1367 0108 1C300BE5 		str	r3, [fp, #-28]
 1368 010c A00000EA 		b	.L10
 1369              	.L9:
 282:../sintesisVoz.c ****     	else if( *txtIn == 'é' || *txtIn == 'É' ) *txtOut++ = charMap[101];
 1370              		.loc 1 282 0 is_stmt 1
 1371 0110 18301BE5 		ldr	r3, [fp, #-24]
 1372 0114 0030D3E5 		ldrb	r3, [r3, #0]	@ zero_extendqisi2
 1373 0118 E90053E3 		cmp	r3, #233
 1374 011c 0300000A 		beq	.L11
 1375              		.loc 1 282 0 is_stmt 0 discriminator 2
 1376 0120 18301BE5 		ldr	r3, [fp, #-24]
 1377 0124 0030D3E5 		ldrb	r3, [r3, #0]	@ zero_extendqisi2
 1378 0128 C90053E3 		cmp	r3, #201
 1379 012c 0700001A 		bne	.L12
 1380              	.L11:
 1381              		.loc 1 282 0 discriminator 1
 1382 0130 9C329FE5 		ldr	r3, .L25
 1383 0134 6520D3E5 		ldrb	r2, [r3, #101]	@ zero_extendqisi2
 1384 0138 1C301BE5 		ldr	r3, [fp, #-28]
 1385 013c 0020C3E5 		strb	r2, [r3, #0]
 1386 0140 1C301BE5 		ldr	r3, [fp, #-28]
 1387 0144 013083E2 		add	r3, r3, #1
 1388 0148 1C300BE5 		str	r3, [fp, #-28]
 1389 014c 900000EA 		b	.L10
 1390              	.L12:
 283:../sintesisVoz.c ****     	else if( *txtIn == 'í' || *txtIn == 'Í' ) *txtOut++ = charMap[105];
 1391              		.loc 1 283 0 is_stmt 1
 1392 0150 18301BE5 		ldr	r3, [fp, #-24]
 1393 0154 0030D3E5 		ldrb	r3, [r3, #0]	@ zero_extendqisi2
 1394 0158 ED0053E3 		cmp	r3, #237
 1395 015c 0300000A 		beq	.L13
 1396              		.loc 1 283 0 is_stmt 0 discriminator 2
 1397 0160 18301BE5 		ldr	r3, [fp, #-24]
 1398 0164 0030D3E5 		ldrb	r3, [r3, #0]	@ zero_extendqisi2
 1399 0168 CD0053E3 		cmp	r3, #205
 1400 016c 0700001A 		bne	.L14
 1401              	.L13:
 1402              		.loc 1 283 0 discriminator 1
 1403 0170 5C329FE5 		ldr	r3, .L25
 1404 0174 6920D3E5 		ldrb	r2, [r3, #105]	@ zero_extendqisi2
 1405 0178 1C301BE5 		ldr	r3, [fp, #-28]
 1406 017c 0020C3E5 		strb	r2, [r3, #0]
 1407 0180 1C301BE5 		ldr	r3, [fp, #-28]
 1408 0184 013083E2 		add	r3, r3, #1
 1409 0188 1C300BE5 		str	r3, [fp, #-28]
 1410 018c 800000EA 		b	.L10
 1411              	.L14:
 284:../sintesisVoz.c ****     	else if( *txtIn == 'ó' || *txtIn == 'Ó' ) *txtOut++ = charMap[111];
 1412              		.loc 1 284 0 is_stmt 1
 1413 0190 18301BE5 		ldr	r3, [fp, #-24]
 1414 0194 0030D3E5 		ldrb	r3, [r3, #0]	@ zero_extendqisi2
 1415 0198 F30053E3 		cmp	r3, #243
 1416 019c 0300000A 		beq	.L15
 1417              		.loc 1 284 0 is_stmt 0 discriminator 2
 1418 01a0 18301BE5 		ldr	r3, [fp, #-24]
 1419 01a4 0030D3E5 		ldrb	r3, [r3, #0]	@ zero_extendqisi2
 1420 01a8 D30053E3 		cmp	r3, #211
 1421 01ac 0700001A 		bne	.L16
 1422              	.L15:
 1423              		.loc 1 284 0 discriminator 1
 1424 01b0 1C329FE5 		ldr	r3, .L25
 1425 01b4 6F20D3E5 		ldrb	r2, [r3, #111]	@ zero_extendqisi2
 1426 01b8 1C301BE5 		ldr	r3, [fp, #-28]
 1427 01bc 0020C3E5 		strb	r2, [r3, #0]
 1428 01c0 1C301BE5 		ldr	r3, [fp, #-28]
 1429 01c4 013083E2 		add	r3, r3, #1
 1430 01c8 1C300BE5 		str	r3, [fp, #-28]
 1431 01cc 700000EA 		b	.L10
 1432              	.L16:
 285:../sintesisVoz.c ****     	else if( *txtIn == 'ú' || *txtIn == 'Ú' ) *txtOut++ = charMap[117];
 1433              		.loc 1 285 0 is_stmt 1
 1434 01d0 18301BE5 		ldr	r3, [fp, #-24]
 1435 01d4 0030D3E5 		ldrb	r3, [r3, #0]	@ zero_extendqisi2
 1436 01d8 FA0053E3 		cmp	r3, #250
 1437 01dc 0300000A 		beq	.L17
 1438              		.loc 1 285 0 is_stmt 0 discriminator 2
 1439 01e0 18301BE5 		ldr	r3, [fp, #-24]
 1440 01e4 0030D3E5 		ldrb	r3, [r3, #0]	@ zero_extendqisi2
 1441 01e8 DA0053E3 		cmp	r3, #218
 1442 01ec 0700001A 		bne	.L18
 1443              	.L17:
 1444              		.loc 1 285 0 discriminator 1
 1445 01f0 DC319FE5 		ldr	r3, .L25
 1446 01f4 7520D3E5 		ldrb	r2, [r3, #117]	@ zero_extendqisi2
 1447 01f8 1C301BE5 		ldr	r3, [fp, #-28]
 1448 01fc 0020C3E5 		strb	r2, [r3, #0]
 1449 0200 1C301BE5 		ldr	r3, [fp, #-28]
 1450 0204 013083E2 		add	r3, r3, #1
 1451 0208 1C300BE5 		str	r3, [fp, #-28]
 1452 020c 600000EA 		b	.L10
 1453              	.L18:
 286:../sintesisVoz.c **** 
 287:../sintesisVoz.c ****     	//Reemplazamos los caracteres no pronunciables por '-'
 288:../sintesisVoz.c ****     	else if ( (*txtIn == 'h' || *txtIn == 'H') && (ant == ' ') ) *txtOut++ = '-';
 1454              		.loc 1 288 0 is_stmt 1
 1455 0210 18301BE5 		ldr	r3, [fp, #-24]
 1456 0214 0030D3E5 		ldrb	r3, [r3, #0]	@ zero_extendqisi2
 1457 0218 680053E3 		cmp	r3, #104
 1458 021c 0300000A 		beq	.L19
 1459              		.loc 1 288 0 is_stmt 0 discriminator 2
 1460 0220 18301BE5 		ldr	r3, [fp, #-24]
 1461 0224 0030D3E5 		ldrb	r3, [r3, #0]	@ zero_extendqisi2
 1462 0228 480053E3 		cmp	r3, #72
 1463 022c 0900001A 		bne	.L20
 1464              	.L19:
 1465              		.loc 1 288 0 discriminator 1
 1466 0230 10301BE5 		ldr	r3, [fp, #-16]
 1467 0234 200053E3 		cmp	r3, #32
 1468 0238 0600001A 		bne	.L20
 1469 023c 1C301BE5 		ldr	r3, [fp, #-28]
 1470 0240 2D20A0E3 		mov	r2, #45
 1471 0244 0020C3E5 		strb	r2, [r3, #0]
 1472 0248 1C301BE5 		ldr	r3, [fp, #-28]
 1473 024c 013083E2 		add	r3, r3, #1
 1474 0250 1C300BE5 		str	r3, [fp, #-28]
 1475 0254 4E0000EA 		b	.L10
 1476              	.L20:
 289:../sintesisVoz.c **** 
 290:../sintesisVoz.c ****     	//Reemplazamos los ñ por N
 291:../sintesisVoz.c ****     	else if ( *txtIn == 'ñ' ) *txtOut++ = 'N';
 1477              		.loc 1 291 0 is_stmt 1
 1478 0258 18301BE5 		ldr	r3, [fp, #-24]
 1479 025c 0030D3E5 		ldrb	r3, [r3, #0]	@ zero_extendqisi2
 1480 0260 F10053E3 		cmp	r3, #241
 1481 0264 0600001A 		bne	.L21
 1482              		.loc 1 291 0 is_stmt 0 discriminator 1
 1483 0268 1C301BE5 		ldr	r3, [fp, #-28]
 1484 026c 4E20A0E3 		mov	r2, #78
 1485 0270 0020C3E5 		strb	r2, [r3, #0]
 1486 0274 1C301BE5 		ldr	r3, [fp, #-28]
 1487 0278 013083E2 		add	r3, r3, #1
 1488 027c 1C300BE5 		str	r3, [fp, #-28]
 1489 0280 430000EA 		b	.L10
 1490              	.L21:
 292:../sintesisVoz.c **** 
 293:../sintesisVoz.c ****     	//Reemplazamos numeros y letras mayúsculas por sus correspondientes minúsculas
 294:../sintesisVoz.c ****     	else if ( isupper(*txtIn ) || (*txtIn == '1' || *txtIn == '2' || *txtIn == '3' || *txtIn == '4
 1491              		.loc 1 294 0 is_stmt 1
 1492 0284 18301BE5 		ldr	r3, [fp, #-24]
 1493 0288 0030D3E5 		ldrb	r3, [r3, #0]	@ zero_extendqisi2
 1494 028c 0300A0E1 		mov	r0, r3
 1495 0290 FEFFFFEB 		bl	isupper
 1496 0294 0030A0E1 		mov	r3, r0
 1497 0298 000053E3 		cmp	r3, #0
 1498 029c 2700001A 		bne	.L22
 1499              		.loc 1 294 0 is_stmt 0 discriminator 1
 1500 02a0 18301BE5 		ldr	r3, [fp, #-24]
 1501 02a4 0030D3E5 		ldrb	r3, [r3, #0]	@ zero_extendqisi2
 1502 02a8 310053E3 		cmp	r3, #49
 1503 02ac 2300000A 		beq	.L22
 1504 02b0 18301BE5 		ldr	r3, [fp, #-24]
 1505 02b4 0030D3E5 		ldrb	r3, [r3, #0]	@ zero_extendqisi2
 1506 02b8 320053E3 		cmp	r3, #50
 1507 02bc 1F00000A 		beq	.L22
 1508 02c0 18301BE5 		ldr	r3, [fp, #-24]
 1509 02c4 0030D3E5 		ldrb	r3, [r3, #0]	@ zero_extendqisi2
 1510 02c8 330053E3 		cmp	r3, #51
 1511 02cc 1B00000A 		beq	.L22
 1512 02d0 18301BE5 		ldr	r3, [fp, #-24]
 1513 02d4 0030D3E5 		ldrb	r3, [r3, #0]	@ zero_extendqisi2
 1514 02d8 340053E3 		cmp	r3, #52
 1515 02dc 1700000A 		beq	.L22
 295:../sintesisVoz.c ****       		  || *txtIn == '5' || *txtIn == '6' || *txtIn == '7' || *txtIn == '8' || *txtIn == '9'
 1516              		.loc 1 295 0 is_stmt 1
 1517 02e0 18301BE5 		ldr	r3, [fp, #-24]
 1518 02e4 0030D3E5 		ldrb	r3, [r3, #0]	@ zero_extendqisi2
 1519 02e8 350053E3 		cmp	r3, #53
 1520 02ec 1300000A 		beq	.L22
 1521              		.loc 1 295 0 is_stmt 0 discriminator 1
 1522 02f0 18301BE5 		ldr	r3, [fp, #-24]
 1523 02f4 0030D3E5 		ldrb	r3, [r3, #0]	@ zero_extendqisi2
 1524 02f8 360053E3 		cmp	r3, #54
 1525 02fc 0F00000A 		beq	.L22
 1526 0300 18301BE5 		ldr	r3, [fp, #-24]
 1527 0304 0030D3E5 		ldrb	r3, [r3, #0]	@ zero_extendqisi2
 1528 0308 370053E3 		cmp	r3, #55
 1529 030c 0B00000A 		beq	.L22
 1530 0310 18301BE5 		ldr	r3, [fp, #-24]
 1531 0314 0030D3E5 		ldrb	r3, [r3, #0]	@ zero_extendqisi2
 1532 0318 380053E3 		cmp	r3, #56
 1533 031c 0700000A 		beq	.L22
 1534 0320 18301BE5 		ldr	r3, [fp, #-24]
 1535 0324 0030D3E5 		ldrb	r3, [r3, #0]	@ zero_extendqisi2
 1536 0328 390053E3 		cmp	r3, #57
 1537 032c 0300000A 		beq	.L22
 296:../sintesisVoz.c ****       		  || *txtIn == '0'))
 1538              		.loc 1 296 0 is_stmt 1
 1539 0330 18301BE5 		ldr	r3, [fp, #-24]
 1540 0334 0030D3E5 		ldrb	r3, [r3, #0]	@ zero_extendqisi2
 1541 0338 300053E3 		cmp	r3, #48
 1542 033c 0B00001A 		bne	.L23
 1543              	.L22:
 297:../sintesisVoz.c ****     				*txtOut++ = charMap[(uint8) (*txtIn + 32)];
 1544              		.loc 1 297 0
 1545 0340 18301BE5 		ldr	r3, [fp, #-24]
 1546 0344 0030D3E5 		ldrb	r3, [r3, #0]	@ zero_extendqisi2
 1547 0348 203083E2 		add	r3, r3, #32
 1548 034c FF3003E2 		and	r3, r3, #255
 1549 0350 7C209FE5 		ldr	r2, .L25
 1550 0354 0320D2E7 		ldrb	r2, [r2, r3]	@ zero_extendqisi2
 1551 0358 1C301BE5 		ldr	r3, [fp, #-28]
 1552 035c 0020C3E5 		strb	r2, [r3, #0]
 1553 0360 1C301BE5 		ldr	r3, [fp, #-28]
 1554 0364 013083E2 		add	r3, r3, #1
 1555 0368 1C300BE5 		str	r3, [fp, #-28]
 1556 036c 080000EA 		b	.L10
 1557              	.L23:
 298:../sintesisVoz.c **** 
 299:../sintesisVoz.c ****     	//Comprobamos resto de caracteres
 300:../sintesisVoz.c ****     	else *txtOut++ = charMap[(uint8) *txtIn];
 1558              		.loc 1 300 0
 1559 0370 18301BE5 		ldr	r3, [fp, #-24]
 1560 0374 0030D3E5 		ldrb	r3, [r3, #0]	@ zero_extendqisi2
 1561 0378 54209FE5 		ldr	r2, .L25
 1562 037c 0320D2E7 		ldrb	r2, [r2, r3]	@ zero_extendqisi2
 1563 0380 1C301BE5 		ldr	r3, [fp, #-28]
 1564 0384 0020C3E5 		strb	r2, [r3, #0]
 1565 0388 1C301BE5 		ldr	r3, [fp, #-28]
 1566 038c 013083E2 		add	r3, r3, #1
 1567 0390 1C300BE5 		str	r3, [fp, #-28]
 1568              	.L10:
 301:../sintesisVoz.c **** 
 302:../sintesisVoz.c ****     	ant = *txtIn;
 1569              		.loc 1 302 0
 1570 0394 18301BE5 		ldr	r3, [fp, #-24]
 1571 0398 0030D3E5 		ldrb	r3, [r3, #0]	@ zero_extendqisi2
 1572 039c 10300BE5 		str	r3, [fp, #-16]
 303:../sintesisVoz.c ****     	*txtIn++;
 1573              		.loc 1 303 0
 1574 03a0 18301BE5 		ldr	r3, [fp, #-24]
 1575 03a4 013083E2 		add	r3, r3, #1
 1576 03a8 18300BE5 		str	r3, [fp, #-24]
 1577              	.L7:
 1578              	.LBE2:
 279:../sintesisVoz.c ****     while( *txtIn ) {
 1579              		.loc 1 279 0 discriminator 1
 1580 03ac 18301BE5 		ldr	r3, [fp, #-24]
 1581 03b0 0030D3E5 		ldrb	r3, [r3, #0]	@ zero_extendqisi2
 1582 03b4 000053E3 		cmp	r3, #0
 1583 03b8 44FFFF1A 		bne	.L24
 304:../sintesisVoz.c ****     }
 305:../sintesisVoz.c ****     *txtOut = '\0';
 1584              		.loc 1 305 0
 1585 03bc 1C301BE5 		ldr	r3, [fp, #-28]
 1586 03c0 0020A0E3 		mov	r2, #0
 1587 03c4 0020C3E5 		strb	r2, [r3, #0]
 306:../sintesisVoz.c **** 
 307:../sintesisVoz.c **** }
 1588              		.loc 1 307 0
 1589 03c8 0CD04BE2 		sub	sp, fp, #12
 1590 03cc 00689DE8 		ldmfd	sp, {fp, sp, lr}
 1591 03d0 1EFF2FE1 		bx	lr
 1592              	.L26:
 1593              		.align	2
 1594              	.L25:
 1595 03d4 00000000 		.word	charMap.4175
 1596              		.cfi_endproc
 1597              	.LFE1:
 1599              		.align	2
 1601              	faseBilitera:
 1602              	.LFB2:
 308:../sintesisVoz.c **** 
 309:../sintesisVoz.c **** /*
 310:../sintesisVoz.c **** Asumiento que es un texto correcto en español, realiza las siguientes transformaciones:
 311:../sintesisVoz.c ****     - Elimina '-' (caracteres no pronunciables)
 312:../sintesisVoz.c ****     - Reemplaza los dígitos por una serie de letras fonéticas
 313:../sintesisVoz.c ****     - Reemplaza "ca", "co", "cu" por "ka", "ko", "ku"
 314:../sintesisVoz.c ****     - Remplaza "ce", "ci" por "ze", "zi"
 315:../sintesisVoz.c ****     - Reemplaza "cr", "cl" por "kr", "kl"
 316:../sintesisVoz.c ****     - Reemplaza "ch" por "H"
 317:../sintesisVoz.c ****     - Reemplaza "gue", "gui" por "ge", "gi"
 318:../sintesisVoz.c ****     - Reemplaza "ge", "gi" por "je", "ji"
 319:../sintesisVoz.c ****     - Reemplaza "gü" por "gu"
 320:../sintesisVoz.c ****     - Elimina "h"
 321:../sintesisVoz.c ****     - Reemplaza "ll" por "y"
 322:../sintesisVoz.c ****     - Reemplaza "que", "qui" por "ke", "ki"
 323:../sintesisVoz.c ****     - Reemplaza "rr" por "R"
 324:../sintesisVoz.c ****     - Reemplaza "y " por "i"
 325:../sintesisVoz.c ****     - Reemplaza " r" por "R"
 326:../sintesisVoz.c ****     - Reemplaza "w" por "gu"
 327:../sintesisVoz.c **** El texto de salida tiene un distinto número de caracteres que el texto de entrada
 328:../sintesisVoz.c **** */
 329:../sintesisVoz.c **** static void faseBilitera( char *txtIn, char *txtOut )
 330:../sintesisVoz.c **** {
 1603              		.loc 1 330 0
 1604              		.cfi_startproc
 1605              		@ Function supports interworking.
 1606              		@ args = 0, pretend = 0, frame = 8
 1607              		@ frame_needed = 1, uses_anonymous_args = 0
 1608 03d8 0DC0A0E1 		mov	ip, sp
 1609              	.LCFI4:
 1610              		.cfi_def_cfa_register 12
 1611 03dc 00D82DE9 		stmfd	sp!, {fp, ip, lr, pc}
 1612 03e0 04B04CE2 		sub	fp, ip, #4
 1613              		.cfi_offset 14, -8
 1614              		.cfi_offset 13, -12
 1615              		.cfi_offset 11, -16
 1616              	.LCFI5:
 1617              		.cfi_def_cfa 11, 4
 1618 03e4 08D04DE2 		sub	sp, sp, #8
 1619 03e8 10000BE5 		str	r0, [fp, #-16]
 1620 03ec 14100BE5 		str	r1, [fp, #-20]
 331:../sintesisVoz.c ****     while( *txtIn ) {
 1621              		.loc 1 331 0
 1622 03f0 4F0500EA 		b	.L28
 1623              	.L115:
 332:../sintesisVoz.c ****         switch( txtIn[0] ) {
 1624              		.loc 1 332 0
 1625 03f4 10301BE5 		ldr	r3, [fp, #-16]
 1626 03f8 0030D3E5 		ldrb	r3, [r3, #0]	@ zero_extendqisi2
 1627 03fc 2D3043E2 		sub	r3, r3, #45
 1628 0400 4C0053E3 		cmp	r3, #76
 1629 0404 03F19F97 		ldrls	pc, [pc, r3, asl #2]
 1630 0408 3F0500EA 		b	.L29
 1631              	.L49:
 1632 040c 08180000 		.word	.L30
 1633 0410 0C190000 		.word	.L29
 1634 0414 0C190000 		.word	.L29
 1635 0418 40050000 		.word	.L31
 1636 041c A4050000 		.word	.L32
 1637 0420 D0090000 		.word	.L33
 1638 0424 B80B0000 		.word	.L34
 1639 0428 D00D0000 		.word	.L35
 1640 042c 30100000 		.word	.L36
 1641 0430 90120000 		.word	.L37
 1642 0434 F4120000 		.word	.L38
 1643 0438 70130000 		.word	.L39
 1644 043c BC130000 		.word	.L40
 1645 0440 0C190000 		.word	.L29
 1646 0444 0C190000 		.word	.L29
 1647 0448 0C190000 		.word	.L29
 1648 044c 0C190000 		.word	.L29
 1649 0450 0C190000 		.word	.L29
 1650 0454 0C190000 		.word	.L29
 1651 0458 0C190000 		.word	.L29
 1652 045c 0C190000 		.word	.L29
 1653 0460 0C190000 		.word	.L29
 1654 0464 0C190000 		.word	.L29
 1655 0468 0C190000 		.word	.L29
 1656 046c 0C190000 		.word	.L29
 1657 0470 0C190000 		.word	.L29
 1658 0474 0C190000 		.word	.L29
 1659 0478 0C190000 		.word	.L29
 1660 047c 0C190000 		.word	.L29
 1661 0480 0C190000 		.word	.L29
 1662 0484 0C190000 		.word	.L29
 1663 0488 0C190000 		.word	.L29
 1664 048c 0C190000 		.word	.L29
 1665 0490 0C190000 		.word	.L29
 1666 0494 0C190000 		.word	.L29
 1667 0498 0C190000 		.word	.L29
 1668 049c 0C190000 		.word	.L29
 1669 04a0 0C190000 		.word	.L29
 1670 04a4 0C190000 		.word	.L29
 1671 04a8 0C190000 		.word	.L29
 1672 04ac 0C190000 		.word	.L29
 1673 04b0 0C190000 		.word	.L29
 1674 04b4 0C190000 		.word	.L29
 1675 04b8 0C190000 		.word	.L29
 1676 04bc 0C190000 		.word	.L29
 1677 04c0 0C190000 		.word	.L29
 1678 04c4 0C190000 		.word	.L29
 1679 04c8 0C190000 		.word	.L29
 1680 04cc 0C190000 		.word	.L29
 1681 04d0 0C190000 		.word	.L29
 1682 04d4 0C190000 		.word	.L29
 1683 04d8 0C190000 		.word	.L29
 1684 04dc 0C190000 		.word	.L29
 1685 04e0 0C190000 		.word	.L29
 1686 04e4 38140000 		.word	.L41
 1687 04e8 0C190000 		.word	.L29
 1688 04ec 0C190000 		.word	.L29
 1689 04f0 0C190000 		.word	.L29
 1690 04f4 04150000 		.word	.L42
 1691 04f8 0C190000 		.word	.L29
 1692 04fc 0C190000 		.word	.L29
 1693 0500 0C190000 		.word	.L29
 1694 0504 0C190000 		.word	.L29
 1695 0508 2C160000 		.word	.L43
 1696 050c 0C190000 		.word	.L29
 1697 0510 98180000 		.word	.L44
 1698 0514 0C190000 		.word	.L29
 1699 0518 0C190000 		.word	.L29
 1700 051c 88160000 		.word	.L45
 1701 0520 50170000 		.word	.L46
 1702 0524 0C190000 		.word	.L29
 1703 0528 0C190000 		.word	.L29
 1704 052c 0C190000 		.word	.L29
 1705 0530 0C190000 		.word	.L29
 1706 0534 64180000 		.word	.L47
 1707 0538 0C190000 		.word	.L29
 1708 053c AC170000 		.word	.L48
 1709              	.L31:
 333:../sintesisVoz.c ****         //Reemplazamos los dígitos por una serie de letras fonéticas
 334:../sintesisVoz.c ****         case '0':
 335:../sintesisVoz.c ****             *txtOut++ = 'z';
 1710              		.loc 1 335 0
 1711 0540 14301BE5 		ldr	r3, [fp, #-20]
 1712 0544 7A20A0E3 		mov	r2, #122
 1713 0548 0020C3E5 		strb	r2, [r3, #0]
 1714 054c 14301BE5 		ldr	r3, [fp, #-20]
 1715 0550 013083E2 		add	r3, r3, #1
 1716 0554 14300BE5 		str	r3, [fp, #-20]
 336:../sintesisVoz.c ****             *txtOut++ = 'e';
 1717              		.loc 1 336 0
 1718 0558 14301BE5 		ldr	r3, [fp, #-20]
 1719 055c 6520A0E3 		mov	r2, #101
 1720 0560 0020C3E5 		strb	r2, [r3, #0]
 1721 0564 14301BE5 		ldr	r3, [fp, #-20]
 1722 0568 013083E2 		add	r3, r3, #1
 1723 056c 14300BE5 		str	r3, [fp, #-20]
 337:../sintesisVoz.c ****             *txtOut++ = 'r';
 1724              		.loc 1 337 0
 1725 0570 14301BE5 		ldr	r3, [fp, #-20]
 1726 0574 7220A0E3 		mov	r2, #114
 1727 0578 0020C3E5 		strb	r2, [r3, #0]
 1728 057c 14301BE5 		ldr	r3, [fp, #-20]
 1729 0580 013083E2 		add	r3, r3, #1
 1730 0584 14300BE5 		str	r3, [fp, #-20]
 338:../sintesisVoz.c ****             *txtOut++ = 'o';
 1731              		.loc 1 338 0
 1732 0588 14301BE5 		ldr	r3, [fp, #-20]
 1733 058c 6F20A0E3 		mov	r2, #111
 1734 0590 0020C3E5 		strb	r2, [r3, #0]
 1735 0594 14301BE5 		ldr	r3, [fp, #-20]
 1736 0598 013083E2 		add	r3, r3, #1
 1737 059c 14300BE5 		str	r3, [fp, #-20]
 339:../sintesisVoz.c ****             break;
 1738              		.loc 1 339 0
 1739 05a0 E00400EA 		b	.L50
 1740              	.L32:
 340:../sintesisVoz.c ****         case '1':
 341:../sintesisVoz.c ****         		switch( txtIn[1] ) {
 1741              		.loc 1 341 0
 1742 05a4 10301BE5 		ldr	r3, [fp, #-16]
 1743 05a8 013083E2 		add	r3, r3, #1
 1744 05ac 0030D3E5 		ldrb	r3, [r3, #0]	@ zero_extendqisi2
 1745 05b0 313043E2 		sub	r3, r3, #49
 1746 05b4 040053E3 		cmp	r3, #4
 1747 05b8 03F19F97 		ldrls	pc, [pc, r3, asl #2]
 1748 05bc AE0000EA 		b	.L51
 1749              	.L57:
 1750 05c0 D4050000 		.word	.L52
 1751 05c4 44060000 		.word	.L53
 1752 05c8 B4060000 		.word	.L54
 1753 05cc 3C070000 		.word	.L55
 1754 05d0 F4070000 		.word	.L56
 1755              	.L52:
 342:../sintesisVoz.c ****             		case '1':
 343:../sintesisVoz.c ****                         *txtOut++ = 'o';
 1756              		.loc 1 343 0
 1757 05d4 14301BE5 		ldr	r3, [fp, #-20]
 1758 05d8 6F20A0E3 		mov	r2, #111
 1759 05dc 0020C3E5 		strb	r2, [r3, #0]
 1760 05e0 14301BE5 		ldr	r3, [fp, #-20]
 1761 05e4 013083E2 		add	r3, r3, #1
 1762 05e8 14300BE5 		str	r3, [fp, #-20]
 344:../sintesisVoz.c ****                         *txtOut++ = 'n';
 1763              		.loc 1 344 0
 1764 05ec 14301BE5 		ldr	r3, [fp, #-20]
 1765 05f0 6E20A0E3 		mov	r2, #110
 1766 05f4 0020C3E5 		strb	r2, [r3, #0]
 1767 05f8 14301BE5 		ldr	r3, [fp, #-20]
 1768 05fc 013083E2 		add	r3, r3, #1
 1769 0600 14300BE5 		str	r3, [fp, #-20]
 345:../sintesisVoz.c ****                         *txtOut++ = 'z';
 1770              		.loc 1 345 0
 1771 0604 14301BE5 		ldr	r3, [fp, #-20]
 1772 0608 7A20A0E3 		mov	r2, #122
 1773 060c 0020C3E5 		strb	r2, [r3, #0]
 1774 0610 14301BE5 		ldr	r3, [fp, #-20]
 1775 0614 013083E2 		add	r3, r3, #1
 1776 0618 14300BE5 		str	r3, [fp, #-20]
 346:../sintesisVoz.c ****                         *txtOut++ = 'e';
 1777              		.loc 1 346 0
 1778 061c 14301BE5 		ldr	r3, [fp, #-20]
 1779 0620 6520A0E3 		mov	r2, #101
 1780 0624 0020C3E5 		strb	r2, [r3, #0]
 1781 0628 14301BE5 		ldr	r3, [fp, #-20]
 1782 062c 013083E2 		add	r3, r3, #1
 1783 0630 14300BE5 		str	r3, [fp, #-20]
 347:../sintesisVoz.c ****                         txtIn++;
 1784              		.loc 1 347 0
 1785 0634 10301BE5 		ldr	r3, [fp, #-16]
 1786 0638 013083E2 		add	r3, r3, #1
 1787 063c 10300BE5 		str	r3, [fp, #-16]
 348:../sintesisVoz.c ****                         break;
 1788              		.loc 1 348 0
 1789 0640 E10000EA 		b	.L58
 1790              	.L53:
 349:../sintesisVoz.c ****             		case '2':
 350:../sintesisVoz.c ****                         *txtOut++ = 'd';
 1791              		.loc 1 350 0
 1792 0644 14301BE5 		ldr	r3, [fp, #-20]
 1793 0648 6420A0E3 		mov	r2, #100
 1794 064c 0020C3E5 		strb	r2, [r3, #0]
 1795 0650 14301BE5 		ldr	r3, [fp, #-20]
 1796 0654 013083E2 		add	r3, r3, #1
 1797 0658 14300BE5 		str	r3, [fp, #-20]
 351:../sintesisVoz.c ****                         *txtOut++ = 'o';
 1798              		.loc 1 351 0
 1799 065c 14301BE5 		ldr	r3, [fp, #-20]
 1800 0660 6F20A0E3 		mov	r2, #111
 1801 0664 0020C3E5 		strb	r2, [r3, #0]
 1802 0668 14301BE5 		ldr	r3, [fp, #-20]
 1803 066c 013083E2 		add	r3, r3, #1
 1804 0670 14300BE5 		str	r3, [fp, #-20]
 352:../sintesisVoz.c ****                         *txtOut++ = 'z';
 1805              		.loc 1 352 0
 1806 0674 14301BE5 		ldr	r3, [fp, #-20]
 1807 0678 7A20A0E3 		mov	r2, #122
 1808 067c 0020C3E5 		strb	r2, [r3, #0]
 1809 0680 14301BE5 		ldr	r3, [fp, #-20]
 1810 0684 013083E2 		add	r3, r3, #1
 1811 0688 14300BE5 		str	r3, [fp, #-20]
 353:../sintesisVoz.c ****                         *txtOut++ = 'e';
 1812              		.loc 1 353 0
 1813 068c 14301BE5 		ldr	r3, [fp, #-20]
 1814 0690 6520A0E3 		mov	r2, #101
 1815 0694 0020C3E5 		strb	r2, [r3, #0]
 1816 0698 14301BE5 		ldr	r3, [fp, #-20]
 1817 069c 013083E2 		add	r3, r3, #1
 1818 06a0 14300BE5 		str	r3, [fp, #-20]
 354:../sintesisVoz.c ****                         txtIn++;
 1819              		.loc 1 354 0
 1820 06a4 10301BE5 		ldr	r3, [fp, #-16]
 1821 06a8 013083E2 		add	r3, r3, #1
 1822 06ac 10300BE5 		str	r3, [fp, #-16]
 355:../sintesisVoz.c ****                         break;
 1823              		.loc 1 355 0
 1824 06b0 C50000EA 		b	.L58
 1825              	.L54:
 356:../sintesisVoz.c ****             		case '3':
 357:../sintesisVoz.c ****                         *txtOut++ = 't';
 1826              		.loc 1 357 0
 1827 06b4 14301BE5 		ldr	r3, [fp, #-20]
 1828 06b8 7420A0E3 		mov	r2, #116
 1829 06bc 0020C3E5 		strb	r2, [r3, #0]
 1830 06c0 14301BE5 		ldr	r3, [fp, #-20]
 1831 06c4 013083E2 		add	r3, r3, #1
 1832 06c8 14300BE5 		str	r3, [fp, #-20]
 358:../sintesisVoz.c ****                         *txtOut++ = 'r';
 1833              		.loc 1 358 0
 1834 06cc 14301BE5 		ldr	r3, [fp, #-20]
 1835 06d0 7220A0E3 		mov	r2, #114
 1836 06d4 0020C3E5 		strb	r2, [r3, #0]
 1837 06d8 14301BE5 		ldr	r3, [fp, #-20]
 1838 06dc 013083E2 		add	r3, r3, #1
 1839 06e0 14300BE5 		str	r3, [fp, #-20]
 359:../sintesisVoz.c ****                         *txtOut++ = 'e';
 1840              		.loc 1 359 0
 1841 06e4 14301BE5 		ldr	r3, [fp, #-20]
 1842 06e8 6520A0E3 		mov	r2, #101
 1843 06ec 0020C3E5 		strb	r2, [r3, #0]
 1844 06f0 14301BE5 		ldr	r3, [fp, #-20]
 1845 06f4 013083E2 		add	r3, r3, #1
 1846 06f8 14300BE5 		str	r3, [fp, #-20]
 360:../sintesisVoz.c ****                         *txtOut++ = 'z';
 1847              		.loc 1 360 0
 1848 06fc 14301BE5 		ldr	r3, [fp, #-20]
 1849 0700 7A20A0E3 		mov	r2, #122
 1850 0704 0020C3E5 		strb	r2, [r3, #0]
 1851 0708 14301BE5 		ldr	r3, [fp, #-20]
 1852 070c 013083E2 		add	r3, r3, #1
 1853 0710 14300BE5 		str	r3, [fp, #-20]
 361:../sintesisVoz.c ****                         *txtOut++ = 'e';
 1854              		.loc 1 361 0
 1855 0714 14301BE5 		ldr	r3, [fp, #-20]
 1856 0718 6520A0E3 		mov	r2, #101
 1857 071c 0020C3E5 		strb	r2, [r3, #0]
 1858 0720 14301BE5 		ldr	r3, [fp, #-20]
 1859 0724 013083E2 		add	r3, r3, #1
 1860 0728 14300BE5 		str	r3, [fp, #-20]
 362:../sintesisVoz.c ****                         txtIn++;
 1861              		.loc 1 362 0
 1862 072c 10301BE5 		ldr	r3, [fp, #-16]
 1863 0730 013083E2 		add	r3, r3, #1
 1864 0734 10300BE5 		str	r3, [fp, #-16]
 363:../sintesisVoz.c ****                         break;
 1865              		.loc 1 363 0
 1866 0738 A30000EA 		b	.L58
 1867              	.L55:
 364:../sintesisVoz.c ****             		case '4':
 365:../sintesisVoz.c ****                         *txtOut++ = 'k';
 1868              		.loc 1 365 0
 1869 073c 14301BE5 		ldr	r3, [fp, #-20]
 1870 0740 6B20A0E3 		mov	r2, #107
 1871 0744 0020C3E5 		strb	r2, [r3, #0]
 1872 0748 14301BE5 		ldr	r3, [fp, #-20]
 1873 074c 013083E2 		add	r3, r3, #1
 1874 0750 14300BE5 		str	r3, [fp, #-20]
 366:../sintesisVoz.c ****                         *txtOut++ = 'a';
 1875              		.loc 1 366 0
 1876 0754 14301BE5 		ldr	r3, [fp, #-20]
 1877 0758 6120A0E3 		mov	r2, #97
 1878 075c 0020C3E5 		strb	r2, [r3, #0]
 1879 0760 14301BE5 		ldr	r3, [fp, #-20]
 1880 0764 013083E2 		add	r3, r3, #1
 1881 0768 14300BE5 		str	r3, [fp, #-20]
 367:../sintesisVoz.c ****                         *txtOut++ = 't';
 1882              		.loc 1 367 0
 1883 076c 14301BE5 		ldr	r3, [fp, #-20]
 1884 0770 7420A0E3 		mov	r2, #116
 1885 0774 0020C3E5 		strb	r2, [r3, #0]
 1886 0778 14301BE5 		ldr	r3, [fp, #-20]
 1887 077c 013083E2 		add	r3, r3, #1
 1888 0780 14300BE5 		str	r3, [fp, #-20]
 368:../sintesisVoz.c ****                         *txtOut++ = 'o';
 1889              		.loc 1 368 0
 1890 0784 14301BE5 		ldr	r3, [fp, #-20]
 1891 0788 6F20A0E3 		mov	r2, #111
 1892 078c 0020C3E5 		strb	r2, [r3, #0]
 1893 0790 14301BE5 		ldr	r3, [fp, #-20]
 1894 0794 013083E2 		add	r3, r3, #1
 1895 0798 14300BE5 		str	r3, [fp, #-20]
 369:../sintesisVoz.c ****                         *txtOut++ = 'r';
 1896              		.loc 1 369 0
 1897 079c 14301BE5 		ldr	r3, [fp, #-20]
 1898 07a0 7220A0E3 		mov	r2, #114
 1899 07a4 0020C3E5 		strb	r2, [r3, #0]
 1900 07a8 14301BE5 		ldr	r3, [fp, #-20]
 1901 07ac 013083E2 		add	r3, r3, #1
 1902 07b0 14300BE5 		str	r3, [fp, #-20]
 370:../sintesisVoz.c ****                         *txtOut++ = 'z';
 1903              		.loc 1 370 0
 1904 07b4 14301BE5 		ldr	r3, [fp, #-20]
 1905 07b8 7A20A0E3 		mov	r2, #122
 1906 07bc 0020C3E5 		strb	r2, [r3, #0]
 1907 07c0 14301BE5 		ldr	r3, [fp, #-20]
 1908 07c4 013083E2 		add	r3, r3, #1
 1909 07c8 14300BE5 		str	r3, [fp, #-20]
 371:../sintesisVoz.c ****                         *txtOut++ = 'e';
 1910              		.loc 1 371 0
 1911 07cc 14301BE5 		ldr	r3, [fp, #-20]
 1912 07d0 6520A0E3 		mov	r2, #101
 1913 07d4 0020C3E5 		strb	r2, [r3, #0]
 1914 07d8 14301BE5 		ldr	r3, [fp, #-20]
 1915 07dc 013083E2 		add	r3, r3, #1
 1916 07e0 14300BE5 		str	r3, [fp, #-20]
 372:../sintesisVoz.c ****                         txtIn++;
 1917              		.loc 1 372 0
 1918 07e4 10301BE5 		ldr	r3, [fp, #-16]
 1919 07e8 013083E2 		add	r3, r3, #1
 1920 07ec 10300BE5 		str	r3, [fp, #-16]
 373:../sintesisVoz.c ****                         break;
 1921              		.loc 1 373 0
 1922 07f0 750000EA 		b	.L58
 1923              	.L56:
 374:../sintesisVoz.c ****             		case '5':
 375:../sintesisVoz.c ****                         *txtOut++ = 'k';
 1924              		.loc 1 375 0
 1925 07f4 14301BE5 		ldr	r3, [fp, #-20]
 1926 07f8 6B20A0E3 		mov	r2, #107
 1927 07fc 0020C3E5 		strb	r2, [r3, #0]
 1928 0800 14301BE5 		ldr	r3, [fp, #-20]
 1929 0804 013083E2 		add	r3, r3, #1
 1930 0808 14300BE5 		str	r3, [fp, #-20]
 376:../sintesisVoz.c ****                         *txtOut++ = 'i';
 1931              		.loc 1 376 0
 1932 080c 14301BE5 		ldr	r3, [fp, #-20]
 1933 0810 6920A0E3 		mov	r2, #105
 1934 0814 0020C3E5 		strb	r2, [r3, #0]
 1935 0818 14301BE5 		ldr	r3, [fp, #-20]
 1936 081c 013083E2 		add	r3, r3, #1
 1937 0820 14300BE5 		str	r3, [fp, #-20]
 377:../sintesisVoz.c ****                         *txtOut++ = 'n';
 1938              		.loc 1 377 0
 1939 0824 14301BE5 		ldr	r3, [fp, #-20]
 1940 0828 6E20A0E3 		mov	r2, #110
 1941 082c 0020C3E5 		strb	r2, [r3, #0]
 1942 0830 14301BE5 		ldr	r3, [fp, #-20]
 1943 0834 013083E2 		add	r3, r3, #1
 1944 0838 14300BE5 		str	r3, [fp, #-20]
 378:../sintesisVoz.c ****                         *txtOut++ = 'z';
 1945              		.loc 1 378 0
 1946 083c 14301BE5 		ldr	r3, [fp, #-20]
 1947 0840 7A20A0E3 		mov	r2, #122
 1948 0844 0020C3E5 		strb	r2, [r3, #0]
 1949 0848 14301BE5 		ldr	r3, [fp, #-20]
 1950 084c 013083E2 		add	r3, r3, #1
 1951 0850 14300BE5 		str	r3, [fp, #-20]
 379:../sintesisVoz.c ****                         *txtOut++ = 'e';
 1952              		.loc 1 379 0
 1953 0854 14301BE5 		ldr	r3, [fp, #-20]
 1954 0858 6520A0E3 		mov	r2, #101
 1955 085c 0020C3E5 		strb	r2, [r3, #0]
 1956 0860 14301BE5 		ldr	r3, [fp, #-20]
 1957 0864 013083E2 		add	r3, r3, #1
 1958 0868 14300BE5 		str	r3, [fp, #-20]
 380:../sintesisVoz.c ****                         txtIn++;
 1959              		.loc 1 380 0
 1960 086c 10301BE5 		ldr	r3, [fp, #-16]
 1961 0870 013083E2 		add	r3, r3, #1
 1962 0874 10300BE5 		str	r3, [fp, #-16]
 381:../sintesisVoz.c ****                         break;
 1963              		.loc 1 381 0
 1964 0878 530000EA 		b	.L58
 1965              	.L51:
 382:../sintesisVoz.c ****             		default:
 383:../sintesisVoz.c ****             			if(txtIn[1] == '0' || txtIn[1] == '6'
 1966              		.loc 1 383 0
 1967 087c 10301BE5 		ldr	r3, [fp, #-16]
 1968 0880 013083E2 		add	r3, r3, #1
 1969 0884 0030D3E5 		ldrb	r3, [r3, #0]	@ zero_extendqisi2
 1970 0888 300053E3 		cmp	r3, #48
 1971 088c 1300000A 		beq	.L59
 1972              		.loc 1 383 0 is_stmt 0 discriminator 1
 1973 0890 10301BE5 		ldr	r3, [fp, #-16]
 1974 0894 013083E2 		add	r3, r3, #1
 1975 0898 0030D3E5 		ldrb	r3, [r3, #0]	@ zero_extendqisi2
 1976 089c 360053E3 		cmp	r3, #54
 1977 08a0 0E00000A 		beq	.L59
 384:../sintesisVoz.c ****             			|| txtIn[1] == '7' || txtIn[1] == '8'
 1978              		.loc 1 384 0 is_stmt 1
 1979 08a4 10301BE5 		ldr	r3, [fp, #-16]
 1980 08a8 013083E2 		add	r3, r3, #1
 1981 08ac 0030D3E5 		ldrb	r3, [r3, #0]	@ zero_extendqisi2
 1982 08b0 370053E3 		cmp	r3, #55
 1983 08b4 0900000A 		beq	.L59
 1984              		.loc 1 384 0 is_stmt 0 discriminator 1
 1985 08b8 10301BE5 		ldr	r3, [fp, #-16]
 1986 08bc 013083E2 		add	r3, r3, #1
 1987 08c0 0030D3E5 		ldrb	r3, [r3, #0]	@ zero_extendqisi2
 1988 08c4 380053E3 		cmp	r3, #56
 1989 08c8 0400000A 		beq	.L59
 385:../sintesisVoz.c ****             		    || txtIn[1] == '9'){
 1990              		.loc 1 385 0 is_stmt 1
 1991 08cc 10301BE5 		ldr	r3, [fp, #-16]
 1992 08d0 013083E2 		add	r3, r3, #1
 1993 08d4 0030D3E5 		ldrb	r3, [r3, #0]	@ zero_extendqisi2
 1994 08d8 390053E3 		cmp	r3, #57
 1995 08dc 2700001A 		bne	.L60
 1996              	.L59:
 386:../sintesisVoz.c ****             				*txtOut++ = 'd';
 1997              		.loc 1 386 0
 1998 08e0 14301BE5 		ldr	r3, [fp, #-20]
 1999 08e4 6420A0E3 		mov	r2, #100
 2000 08e8 0020C3E5 		strb	r2, [r3, #0]
 2001 08ec 14301BE5 		ldr	r3, [fp, #-20]
 2002 08f0 013083E2 		add	r3, r3, #1
 2003 08f4 14300BE5 		str	r3, [fp, #-20]
 387:../sintesisVoz.c ****             				*txtOut++ = 'i';
 2004              		.loc 1 387 0
 2005 08f8 14301BE5 		ldr	r3, [fp, #-20]
 2006 08fc 6920A0E3 		mov	r2, #105
 2007 0900 0020C3E5 		strb	r2, [r3, #0]
 2008 0904 14301BE5 		ldr	r3, [fp, #-20]
 2009 0908 013083E2 		add	r3, r3, #1
 2010 090c 14300BE5 		str	r3, [fp, #-20]
 388:../sintesisVoz.c ****             				*txtOut++ = 'e';
 2011              		.loc 1 388 0
 2012 0910 14301BE5 		ldr	r3, [fp, #-20]
 2013 0914 6520A0E3 		mov	r2, #101
 2014 0918 0020C3E5 		strb	r2, [r3, #0]
 2015 091c 14301BE5 		ldr	r3, [fp, #-20]
 2016 0920 013083E2 		add	r3, r3, #1
 2017 0924 14300BE5 		str	r3, [fp, #-20]
 389:../sintesisVoz.c ****             				*txtOut++ = 'z';
 2018              		.loc 1 389 0
 2019 0928 14301BE5 		ldr	r3, [fp, #-20]
 2020 092c 7A20A0E3 		mov	r2, #122
 2021 0930 0020C3E5 		strb	r2, [r3, #0]
 2022 0934 14301BE5 		ldr	r3, [fp, #-20]
 2023 0938 013083E2 		add	r3, r3, #1
 2024 093c 14300BE5 		str	r3, [fp, #-20]
 390:../sintesisVoz.c ****             				if(txtIn[1] == '0') txtIn++;
 2025              		.loc 1 390 0
 2026 0940 10301BE5 		ldr	r3, [fp, #-16]
 2027 0944 013083E2 		add	r3, r3, #1
 2028 0948 0030D3E5 		ldrb	r3, [r3, #0]	@ zero_extendqisi2
 2029 094c 300053E3 		cmp	r3, #48
 2030 0950 0300001A 		bne	.L61
 2031              		.loc 1 390 0 is_stmt 0 discriminator 1
 2032 0954 10301BE5 		ldr	r3, [fp, #-16]
 2033 0958 013083E2 		add	r3, r3, #1
 2034 095c 10300BE5 		str	r3, [fp, #-16]
 2035 0960 050000EA 		b	.L62
 2036              	.L61:
 391:../sintesisVoz.c ****             				else *txtOut++ = 'i';
 2037              		.loc 1 391 0 is_stmt 1
 2038 0964 14301BE5 		ldr	r3, [fp, #-20]
 2039 0968 6920A0E3 		mov	r2, #105
 2040 096c 0020C3E5 		strb	r2, [r3, #0]
 2041 0970 14301BE5 		ldr	r3, [fp, #-20]
 2042 0974 013083E2 		add	r3, r3, #1
 2043 0978 14300BE5 		str	r3, [fp, #-20]
 2044              	.L62:
 390:../sintesisVoz.c ****             				if(txtIn[1] == '0') txtIn++;
 2045              		.loc 1 390 0
 2046 097c 110000EA 		b	.L63
 2047              	.L60:
 392:../sintesisVoz.c ****             			}
 393:../sintesisVoz.c ****             			else {
 394:../sintesisVoz.c ****             	            *txtOut++ = 'u';
 2048              		.loc 1 394 0
 2049 0980 14301BE5 		ldr	r3, [fp, #-20]
 2050 0984 7520A0E3 		mov	r2, #117
 2051 0988 0020C3E5 		strb	r2, [r3, #0]
 2052 098c 14301BE5 		ldr	r3, [fp, #-20]
 2053 0990 013083E2 		add	r3, r3, #1
 2054 0994 14300BE5 		str	r3, [fp, #-20]
 395:../sintesisVoz.c ****             	            *txtOut++ = 'n';
 2055              		.loc 1 395 0
 2056 0998 14301BE5 		ldr	r3, [fp, #-20]
 2057 099c 6E20A0E3 		mov	r2, #110
 2058 09a0 0020C3E5 		strb	r2, [r3, #0]
 2059 09a4 14301BE5 		ldr	r3, [fp, #-20]
 2060 09a8 013083E2 		add	r3, r3, #1
 2061 09ac 14300BE5 		str	r3, [fp, #-20]
 396:../sintesisVoz.c ****             	            *txtOut++ = 'o';
 2062              		.loc 1 396 0
 2063 09b0 14301BE5 		ldr	r3, [fp, #-20]
 2064 09b4 6F20A0E3 		mov	r2, #111
 2065 09b8 0020C3E5 		strb	r2, [r3, #0]
 2066 09bc 14301BE5 		ldr	r3, [fp, #-20]
 2067 09c0 013083E2 		add	r3, r3, #1
 2068 09c4 14300BE5 		str	r3, [fp, #-20]
 2069              	.L63:
 397:../sintesisVoz.c ****             			}
 398:../sintesisVoz.c ****                         break;
 2070              		.loc 1 398 0
 2071 09c8 0000A0E1 		mov	r0, r0	@ nop
 2072              	.L58:
 399:../sintesisVoz.c ****             	}
 400:../sintesisVoz.c ****             break;
 2073              		.loc 1 400 0
 2074 09cc D50300EA 		b	.L50
 2075              	.L33:
 401:../sintesisVoz.c ****         case '2':
 402:../sintesisVoz.c **** 			if(txtIn[1] == '0' || txtIn[1] == '1' || txtIn[1] == '2'
 2076              		.loc 1 402 0
 2077 09d0 10301BE5 		ldr	r3, [fp, #-16]
 2078 09d4 013083E2 		add	r3, r3, #1
 2079 09d8 0030D3E5 		ldrb	r3, [r3, #0]	@ zero_extendqisi2
 2080 09dc 300053E3 		cmp	r3, #48
 2081 09e0 2C00000A 		beq	.L64
 2082              		.loc 1 402 0 is_stmt 0 discriminator 1
 2083 09e4 10301BE5 		ldr	r3, [fp, #-16]
 2084 09e8 013083E2 		add	r3, r3, #1
 2085 09ec 0030D3E5 		ldrb	r3, [r3, #0]	@ zero_extendqisi2
 2086 09f0 310053E3 		cmp	r3, #49
 2087 09f4 2700000A 		beq	.L64
 2088 09f8 10301BE5 		ldr	r3, [fp, #-16]
 2089 09fc 013083E2 		add	r3, r3, #1
 2090 0a00 0030D3E5 		ldrb	r3, [r3, #0]	@ zero_extendqisi2
 2091 0a04 320053E3 		cmp	r3, #50
 2092 0a08 2200000A 		beq	.L64
 403:../sintesisVoz.c **** 			|| txtIn[1] == '3' || txtIn[1] == '4' || txtIn[1] == '5'
 2093              		.loc 1 403 0 is_stmt 1
 2094 0a0c 10301BE5 		ldr	r3, [fp, #-16]
 2095 0a10 013083E2 		add	r3, r3, #1
 2096 0a14 0030D3E5 		ldrb	r3, [r3, #0]	@ zero_extendqisi2
 2097 0a18 330053E3 		cmp	r3, #51
 2098 0a1c 1D00000A 		beq	.L64
 2099              		.loc 1 403 0 is_stmt 0 discriminator 1
 2100 0a20 10301BE5 		ldr	r3, [fp, #-16]
 2101 0a24 013083E2 		add	r3, r3, #1
 2102 0a28 0030D3E5 		ldrb	r3, [r3, #0]	@ zero_extendqisi2
 2103 0a2c 340053E3 		cmp	r3, #52
 2104 0a30 1800000A 		beq	.L64
 2105 0a34 10301BE5 		ldr	r3, [fp, #-16]
 2106 0a38 013083E2 		add	r3, r3, #1
 2107 0a3c 0030D3E5 		ldrb	r3, [r3, #0]	@ zero_extendqisi2
 2108 0a40 350053E3 		cmp	r3, #53
 2109 0a44 1300000A 		beq	.L64
 404:../sintesisVoz.c **** 		    || txtIn[1] == '6' || txtIn[1] == '7' || txtIn[1] == '8'
 2110              		.loc 1 404 0 is_stmt 1
 2111 0a48 10301BE5 		ldr	r3, [fp, #-16]
 2112 0a4c 013083E2 		add	r3, r3, #1
 2113 0a50 0030D3E5 		ldrb	r3, [r3, #0]	@ zero_extendqisi2
 2114 0a54 360053E3 		cmp	r3, #54
 2115 0a58 0E00000A 		beq	.L64
 2116              		.loc 1 404 0 is_stmt 0 discriminator 1
 2117 0a5c 10301BE5 		ldr	r3, [fp, #-16]
 2118 0a60 013083E2 		add	r3, r3, #1
 2119 0a64 0030D3E5 		ldrb	r3, [r3, #0]	@ zero_extendqisi2
 2120 0a68 370053E3 		cmp	r3, #55
 2121 0a6c 0900000A 		beq	.L64
 2122 0a70 10301BE5 		ldr	r3, [fp, #-16]
 2123 0a74 013083E2 		add	r3, r3, #1
 2124 0a78 0030D3E5 		ldrb	r3, [r3, #0]	@ zero_extendqisi2
 2125 0a7c 380053E3 		cmp	r3, #56
 2126 0a80 0400000A 		beq	.L64
 405:../sintesisVoz.c **** 		    || txtIn[1] == '9'){
 2127              		.loc 1 405 0 is_stmt 1
 2128 0a84 10301BE5 		ldr	r3, [fp, #-16]
 2129 0a88 013083E2 		add	r3, r3, #1
 2130 0a8c 0030D3E5 		ldrb	r3, [r3, #0]	@ zero_extendqisi2
 2131 0a90 390053E3 		cmp	r3, #57
 2132 0a94 3400001A 		bne	.L65
 2133              	.L64:
 406:../sintesisVoz.c **** 				*txtOut++ = 'b';
 2134              		.loc 1 406 0
 2135 0a98 14301BE5 		ldr	r3, [fp, #-20]
 2136 0a9c 6220A0E3 		mov	r2, #98
 2137 0aa0 0020C3E5 		strb	r2, [r3, #0]
 2138 0aa4 14301BE5 		ldr	r3, [fp, #-20]
 2139 0aa8 013083E2 		add	r3, r3, #1
 2140 0aac 14300BE5 		str	r3, [fp, #-20]
 407:../sintesisVoz.c **** 				*txtOut++ = 'e';
 2141              		.loc 1 407 0
 2142 0ab0 14301BE5 		ldr	r3, [fp, #-20]
 2143 0ab4 6520A0E3 		mov	r2, #101
 2144 0ab8 0020C3E5 		strb	r2, [r3, #0]
 2145 0abc 14301BE5 		ldr	r3, [fp, #-20]
 2146 0ac0 013083E2 		add	r3, r3, #1
 2147 0ac4 14300BE5 		str	r3, [fp, #-20]
 408:../sintesisVoz.c **** 				*txtOut++ = 'i';
 2148              		.loc 1 408 0
 2149 0ac8 14301BE5 		ldr	r3, [fp, #-20]
 2150 0acc 6920A0E3 		mov	r2, #105
 2151 0ad0 0020C3E5 		strb	r2, [r3, #0]
 2152 0ad4 14301BE5 		ldr	r3, [fp, #-20]
 2153 0ad8 013083E2 		add	r3, r3, #1
 2154 0adc 14300BE5 		str	r3, [fp, #-20]
 409:../sintesisVoz.c **** 				*txtOut++ = 'n';
 2155              		.loc 1 409 0
 2156 0ae0 14301BE5 		ldr	r3, [fp, #-20]
 2157 0ae4 6E20A0E3 		mov	r2, #110
 2158 0ae8 0020C3E5 		strb	r2, [r3, #0]
 2159 0aec 14301BE5 		ldr	r3, [fp, #-20]
 2160 0af0 013083E2 		add	r3, r3, #1
 2161 0af4 14300BE5 		str	r3, [fp, #-20]
 410:../sintesisVoz.c **** 				*txtOut++ = 't';
 2162              		.loc 1 410 0
 2163 0af8 14301BE5 		ldr	r3, [fp, #-20]
 2164 0afc 7420A0E3 		mov	r2, #116
 2165 0b00 0020C3E5 		strb	r2, [r3, #0]
 2166 0b04 14301BE5 		ldr	r3, [fp, #-20]
 2167 0b08 013083E2 		add	r3, r3, #1
 2168 0b0c 14300BE5 		str	r3, [fp, #-20]
 411:../sintesisVoz.c **** 				if(txtIn[1] == '0') {
 2169              		.loc 1 411 0
 2170 0b10 10301BE5 		ldr	r3, [fp, #-16]
 2171 0b14 013083E2 		add	r3, r3, #1
 2172 0b18 0030D3E5 		ldrb	r3, [r3, #0]	@ zero_extendqisi2
 2173 0b1c 300053E3 		cmp	r3, #48
 2174 0b20 0900001A 		bne	.L66
 412:../sintesisVoz.c **** 					*txtOut++ = 'e';
 2175              		.loc 1 412 0
 2176 0b24 14301BE5 		ldr	r3, [fp, #-20]
 2177 0b28 6520A0E3 		mov	r2, #101
 2178 0b2c 0020C3E5 		strb	r2, [r3, #0]
 2179 0b30 14301BE5 		ldr	r3, [fp, #-20]
 2180 0b34 013083E2 		add	r3, r3, #1
 2181 0b38 14300BE5 		str	r3, [fp, #-20]
 413:../sintesisVoz.c **** 					txtIn++;
 2182              		.loc 1 413 0
 2183 0b3c 10301BE5 		ldr	r3, [fp, #-16]
 2184 0b40 013083E2 		add	r3, r3, #1
 2185 0b44 10300BE5 		str	r3, [fp, #-16]
 2186 0b48 050000EA 		b	.L67
 2187              	.L66:
 414:../sintesisVoz.c **** 				}
 415:../sintesisVoz.c **** 				else *txtOut++ = 'i';
 2188              		.loc 1 415 0
 2189 0b4c 14301BE5 		ldr	r3, [fp, #-20]
 2190 0b50 6920A0E3 		mov	r2, #105
 2191 0b54 0020C3E5 		strb	r2, [r3, #0]
 2192 0b58 14301BE5 		ldr	r3, [fp, #-20]
 2193 0b5c 013083E2 		add	r3, r3, #1
 2194 0b60 14300BE5 		str	r3, [fp, #-20]
 2195              	.L67:
 411:../sintesisVoz.c **** 				if(txtIn[1] == '0') {
 2196              		.loc 1 411 0
 2197 0b64 0000A0E1 		mov	r0, r0	@ nop
 416:../sintesisVoz.c ****         	}
 417:../sintesisVoz.c **** 			else{
 418:../sintesisVoz.c **** 				*txtOut++ = 'd';
 419:../sintesisVoz.c **** 				*txtOut++ = 'o';
 420:../sintesisVoz.c **** 				*txtOut++ = 's';
 421:../sintesisVoz.c **** 			}
 422:../sintesisVoz.c ****         	break;
 2198              		.loc 1 422 0
 2199 0b68 6E0300EA 		b	.L50
 2200              	.L65:
 418:../sintesisVoz.c **** 				*txtOut++ = 'd';
 2201              		.loc 1 418 0
 2202 0b6c 14301BE5 		ldr	r3, [fp, #-20]
 2203 0b70 6420A0E3 		mov	r2, #100
 2204 0b74 0020C3E5 		strb	r2, [r3, #0]
 2205 0b78 14301BE5 		ldr	r3, [fp, #-20]
 2206 0b7c 013083E2 		add	r3, r3, #1
 2207 0b80 14300BE5 		str	r3, [fp, #-20]
 419:../sintesisVoz.c **** 				*txtOut++ = 'o';
 2208              		.loc 1 419 0
 2209 0b84 14301BE5 		ldr	r3, [fp, #-20]
 2210 0b88 6F20A0E3 		mov	r2, #111
 2211 0b8c 0020C3E5 		strb	r2, [r3, #0]
 2212 0b90 14301BE5 		ldr	r3, [fp, #-20]
 2213 0b94 013083E2 		add	r3, r3, #1
 2214 0b98 14300BE5 		str	r3, [fp, #-20]
 420:../sintesisVoz.c **** 				*txtOut++ = 's';
 2215              		.loc 1 420 0
 2216 0b9c 14301BE5 		ldr	r3, [fp, #-20]
 2217 0ba0 7320A0E3 		mov	r2, #115
 2218 0ba4 0020C3E5 		strb	r2, [r3, #0]
 2219 0ba8 14301BE5 		ldr	r3, [fp, #-20]
 2220 0bac 013083E2 		add	r3, r3, #1
 2221 0bb0 14300BE5 		str	r3, [fp, #-20]
 2222              		.loc 1 422 0
 2223 0bb4 5B0300EA 		b	.L50
 2224              	.L34:
 423:../sintesisVoz.c ****         case '3':
 424:../sintesisVoz.c **** 			if(txtIn[1] == '0' || txtIn[1] == '1' || txtIn[1] == '2'
 2225              		.loc 1 424 0
 2226 0bb8 10301BE5 		ldr	r3, [fp, #-16]
 2227 0bbc 013083E2 		add	r3, r3, #1
 2228 0bc0 0030D3E5 		ldrb	r3, [r3, #0]	@ zero_extendqisi2
 2229 0bc4 300053E3 		cmp	r3, #48
 2230 0bc8 2C00000A 		beq	.L69
 2231              		.loc 1 424 0 is_stmt 0 discriminator 1
 2232 0bcc 10301BE5 		ldr	r3, [fp, #-16]
 2233 0bd0 013083E2 		add	r3, r3, #1
 2234 0bd4 0030D3E5 		ldrb	r3, [r3, #0]	@ zero_extendqisi2
 2235 0bd8 310053E3 		cmp	r3, #49
 2236 0bdc 2700000A 		beq	.L69
 2237 0be0 10301BE5 		ldr	r3, [fp, #-16]
 2238 0be4 013083E2 		add	r3, r3, #1
 2239 0be8 0030D3E5 		ldrb	r3, [r3, #0]	@ zero_extendqisi2
 2240 0bec 320053E3 		cmp	r3, #50
 2241 0bf0 2200000A 		beq	.L69
 425:../sintesisVoz.c **** 			|| txtIn[1] == '3' || txtIn[1] == '4' || txtIn[1] == '5'
 2242              		.loc 1 425 0 is_stmt 1
 2243 0bf4 10301BE5 		ldr	r3, [fp, #-16]
 2244 0bf8 013083E2 		add	r3, r3, #1
 2245 0bfc 0030D3E5 		ldrb	r3, [r3, #0]	@ zero_extendqisi2
 2246 0c00 330053E3 		cmp	r3, #51
 2247 0c04 1D00000A 		beq	.L69
 2248              		.loc 1 425 0 is_stmt 0 discriminator 1
 2249 0c08 10301BE5 		ldr	r3, [fp, #-16]
 2250 0c0c 013083E2 		add	r3, r3, #1
 2251 0c10 0030D3E5 		ldrb	r3, [r3, #0]	@ zero_extendqisi2
 2252 0c14 340053E3 		cmp	r3, #52
 2253 0c18 1800000A 		beq	.L69
 2254 0c1c 10301BE5 		ldr	r3, [fp, #-16]
 2255 0c20 013083E2 		add	r3, r3, #1
 2256 0c24 0030D3E5 		ldrb	r3, [r3, #0]	@ zero_extendqisi2
 2257 0c28 350053E3 		cmp	r3, #53
 2258 0c2c 1300000A 		beq	.L69
 426:../sintesisVoz.c **** 		    || txtIn[1] == '6' || txtIn[1] == '7' || txtIn[1] == '8'
 2259              		.loc 1 426 0 is_stmt 1
 2260 0c30 10301BE5 		ldr	r3, [fp, #-16]
 2261 0c34 013083E2 		add	r3, r3, #1
 2262 0c38 0030D3E5 		ldrb	r3, [r3, #0]	@ zero_extendqisi2
 2263 0c3c 360053E3 		cmp	r3, #54
 2264 0c40 0E00000A 		beq	.L69
 2265              		.loc 1 426 0 is_stmt 0 discriminator 1
 2266 0c44 10301BE5 		ldr	r3, [fp, #-16]
 2267 0c48 013083E2 		add	r3, r3, #1
 2268 0c4c 0030D3E5 		ldrb	r3, [r3, #0]	@ zero_extendqisi2
 2269 0c50 370053E3 		cmp	r3, #55
 2270 0c54 0900000A 		beq	.L69
 2271 0c58 10301BE5 		ldr	r3, [fp, #-16]
 2272 0c5c 013083E2 		add	r3, r3, #1
 2273 0c60 0030D3E5 		ldrb	r3, [r3, #0]	@ zero_extendqisi2
 2274 0c64 380053E3 		cmp	r3, #56
 2275 0c68 0400000A 		beq	.L69
 427:../sintesisVoz.c **** 		    || txtIn[1] == '9'){
 2276              		.loc 1 427 0 is_stmt 1
 2277 0c6c 10301BE5 		ldr	r3, [fp, #-16]
 2278 0c70 013083E2 		add	r3, r3, #1
 2279 0c74 0030D3E5 		ldrb	r3, [r3, #0]	@ zero_extendqisi2
 2280 0c78 390053E3 		cmp	r3, #57
 2281 0c7c 3A00001A 		bne	.L70
 2282              	.L69:
 428:../sintesisVoz.c **** 				*txtOut++ = 't';
 2283              		.loc 1 428 0
 2284 0c80 14301BE5 		ldr	r3, [fp, #-20]
 2285 0c84 7420A0E3 		mov	r2, #116
 2286 0c88 0020C3E5 		strb	r2, [r3, #0]
 2287 0c8c 14301BE5 		ldr	r3, [fp, #-20]
 2288 0c90 013083E2 		add	r3, r3, #1
 2289 0c94 14300BE5 		str	r3, [fp, #-20]
 429:../sintesisVoz.c **** 				*txtOut++ = 'r';
 2290              		.loc 1 429 0
 2291 0c98 14301BE5 		ldr	r3, [fp, #-20]
 2292 0c9c 7220A0E3 		mov	r2, #114
 2293 0ca0 0020C3E5 		strb	r2, [r3, #0]
 2294 0ca4 14301BE5 		ldr	r3, [fp, #-20]
 2295 0ca8 013083E2 		add	r3, r3, #1
 2296 0cac 14300BE5 		str	r3, [fp, #-20]
 430:../sintesisVoz.c **** 				*txtOut++ = 'e';
 2297              		.loc 1 430 0
 2298 0cb0 14301BE5 		ldr	r3, [fp, #-20]
 2299 0cb4 6520A0E3 		mov	r2, #101
 2300 0cb8 0020C3E5 		strb	r2, [r3, #0]
 2301 0cbc 14301BE5 		ldr	r3, [fp, #-20]
 2302 0cc0 013083E2 		add	r3, r3, #1
 2303 0cc4 14300BE5 		str	r3, [fp, #-20]
 431:../sintesisVoz.c **** 				*txtOut++ = 'i';
 2304              		.loc 1 431 0
 2305 0cc8 14301BE5 		ldr	r3, [fp, #-20]
 2306 0ccc 6920A0E3 		mov	r2, #105
 2307 0cd0 0020C3E5 		strb	r2, [r3, #0]
 2308 0cd4 14301BE5 		ldr	r3, [fp, #-20]
 2309 0cd8 013083E2 		add	r3, r3, #1
 2310 0cdc 14300BE5 		str	r3, [fp, #-20]
 432:../sintesisVoz.c **** 				*txtOut++ = 'n';
 2311              		.loc 1 432 0
 2312 0ce0 14301BE5 		ldr	r3, [fp, #-20]
 2313 0ce4 6E20A0E3 		mov	r2, #110
 2314 0ce8 0020C3E5 		strb	r2, [r3, #0]
 2315 0cec 14301BE5 		ldr	r3, [fp, #-20]
 2316 0cf0 013083E2 		add	r3, r3, #1
 2317 0cf4 14300BE5 		str	r3, [fp, #-20]
 433:../sintesisVoz.c **** 				*txtOut++ = 't';
 2318              		.loc 1 433 0
 2319 0cf8 14301BE5 		ldr	r3, [fp, #-20]
 2320 0cfc 7420A0E3 		mov	r2, #116
 2321 0d00 0020C3E5 		strb	r2, [r3, #0]
 2322 0d04 14301BE5 		ldr	r3, [fp, #-20]
 2323 0d08 013083E2 		add	r3, r3, #1
 2324 0d0c 14300BE5 		str	r3, [fp, #-20]
 434:../sintesisVoz.c **** 				*txtOut++ = 'a';
 2325              		.loc 1 434 0
 2326 0d10 14301BE5 		ldr	r3, [fp, #-20]
 2327 0d14 6120A0E3 		mov	r2, #97
 2328 0d18 0020C3E5 		strb	r2, [r3, #0]
 2329 0d1c 14301BE5 		ldr	r3, [fp, #-20]
 2330 0d20 013083E2 		add	r3, r3, #1
 2331 0d24 14300BE5 		str	r3, [fp, #-20]
 435:../sintesisVoz.c **** 				if(txtIn[1] != '0') *txtOut++ = 'i';
 2332              		.loc 1 435 0
 2333 0d28 10301BE5 		ldr	r3, [fp, #-16]
 2334 0d2c 013083E2 		add	r3, r3, #1
 2335 0d30 0030D3E5 		ldrb	r3, [r3, #0]	@ zero_extendqisi2
 2336 0d34 300053E3 		cmp	r3, #48
 2337 0d38 0600000A 		beq	.L71
 2338              		.loc 1 435 0 is_stmt 0 discriminator 1
 2339 0d3c 14301BE5 		ldr	r3, [fp, #-20]
 2340 0d40 6920A0E3 		mov	r2, #105
 2341 0d44 0020C3E5 		strb	r2, [r3, #0]
 2342 0d48 14301BE5 		ldr	r3, [fp, #-20]
 2343 0d4c 013083E2 		add	r3, r3, #1
 2344 0d50 14300BE5 		str	r3, [fp, #-20]
 2345 0d54 020000EA 		b	.L72
 2346              	.L71:
 436:../sintesisVoz.c **** 				else txtIn++;
 2347              		.loc 1 436 0 is_stmt 1
 2348 0d58 10301BE5 		ldr	r3, [fp, #-16]
 2349 0d5c 013083E2 		add	r3, r3, #1
 2350 0d60 10300BE5 		str	r3, [fp, #-16]
 2351              	.L72:
 435:../sintesisVoz.c **** 				if(txtIn[1] != '0') *txtOut++ = 'i';
 2352              		.loc 1 435 0
 2353 0d64 0000A0E1 		mov	r0, r0	@ nop
 437:../sintesisVoz.c ****         	}
 438:../sintesisVoz.c **** 			else{
 439:../sintesisVoz.c **** 				*txtOut++ = 't';
 440:../sintesisVoz.c **** 				*txtOut++ = 'r';
 441:../sintesisVoz.c **** 				*txtOut++ = 'e';
 442:../sintesisVoz.c **** 				*txtOut++ = 's';
 443:../sintesisVoz.c **** 			}
 444:../sintesisVoz.c ****         	break;
 2354              		.loc 1 444 0
 2355 0d68 EE0200EA 		b	.L50
 2356              	.L70:
 439:../sintesisVoz.c **** 				*txtOut++ = 't';
 2357              		.loc 1 439 0
 2358 0d6c 14301BE5 		ldr	r3, [fp, #-20]
 2359 0d70 7420A0E3 		mov	r2, #116
 2360 0d74 0020C3E5 		strb	r2, [r3, #0]
 2361 0d78 14301BE5 		ldr	r3, [fp, #-20]
 2362 0d7c 013083E2 		add	r3, r3, #1
 2363 0d80 14300BE5 		str	r3, [fp, #-20]
 440:../sintesisVoz.c **** 				*txtOut++ = 'r';
 2364              		.loc 1 440 0
 2365 0d84 14301BE5 		ldr	r3, [fp, #-20]
 2366 0d88 7220A0E3 		mov	r2, #114
 2367 0d8c 0020C3E5 		strb	r2, [r3, #0]
 2368 0d90 14301BE5 		ldr	r3, [fp, #-20]
 2369 0d94 013083E2 		add	r3, r3, #1
 2370 0d98 14300BE5 		str	r3, [fp, #-20]
 441:../sintesisVoz.c **** 				*txtOut++ = 'e';
 2371              		.loc 1 441 0
 2372 0d9c 14301BE5 		ldr	r3, [fp, #-20]
 2373 0da0 6520A0E3 		mov	r2, #101
 2374 0da4 0020C3E5 		strb	r2, [r3, #0]
 2375 0da8 14301BE5 		ldr	r3, [fp, #-20]
 2376 0dac 013083E2 		add	r3, r3, #1
 2377 0db0 14300BE5 		str	r3, [fp, #-20]
 442:../sintesisVoz.c **** 				*txtOut++ = 's';
 2378              		.loc 1 442 0
 2379 0db4 14301BE5 		ldr	r3, [fp, #-20]
 2380 0db8 7320A0E3 		mov	r2, #115
 2381 0dbc 0020C3E5 		strb	r2, [r3, #0]
 2382 0dc0 14301BE5 		ldr	r3, [fp, #-20]
 2383 0dc4 013083E2 		add	r3, r3, #1
 2384 0dc8 14300BE5 		str	r3, [fp, #-20]
 2385              		.loc 1 444 0
 2386 0dcc D50200EA 		b	.L50
 2387              	.L35:
 445:../sintesisVoz.c ****         case '4':
 446:../sintesisVoz.c **** 			if(txtIn[1] == '0' || txtIn[1] == '1' || txtIn[1] == '2'
 2388              		.loc 1 446 0
 2389 0dd0 10301BE5 		ldr	r3, [fp, #-16]
 2390 0dd4 013083E2 		add	r3, r3, #1
 2391 0dd8 0030D3E5 		ldrb	r3, [r3, #0]	@ zero_extendqisi2
 2392 0ddc 300053E3 		cmp	r3, #48
 2393 0de0 2C00000A 		beq	.L74
 2394              		.loc 1 446 0 is_stmt 0 discriminator 1
 2395 0de4 10301BE5 		ldr	r3, [fp, #-16]
 2396 0de8 013083E2 		add	r3, r3, #1
 2397 0dec 0030D3E5 		ldrb	r3, [r3, #0]	@ zero_extendqisi2
 2398 0df0 310053E3 		cmp	r3, #49
 2399 0df4 2700000A 		beq	.L74
 2400 0df8 10301BE5 		ldr	r3, [fp, #-16]
 2401 0dfc 013083E2 		add	r3, r3, #1
 2402 0e00 0030D3E5 		ldrb	r3, [r3, #0]	@ zero_extendqisi2
 2403 0e04 320053E3 		cmp	r3, #50
 2404 0e08 2200000A 		beq	.L74
 447:../sintesisVoz.c **** 			|| txtIn[1] == '3' || txtIn[1] == '4' || txtIn[1] == '5'
 2405              		.loc 1 447 0 is_stmt 1
 2406 0e0c 10301BE5 		ldr	r3, [fp, #-16]
 2407 0e10 013083E2 		add	r3, r3, #1
 2408 0e14 0030D3E5 		ldrb	r3, [r3, #0]	@ zero_extendqisi2
 2409 0e18 330053E3 		cmp	r3, #51
 2410 0e1c 1D00000A 		beq	.L74
 2411              		.loc 1 447 0 is_stmt 0 discriminator 1
 2412 0e20 10301BE5 		ldr	r3, [fp, #-16]
 2413 0e24 013083E2 		add	r3, r3, #1
 2414 0e28 0030D3E5 		ldrb	r3, [r3, #0]	@ zero_extendqisi2
 2415 0e2c 340053E3 		cmp	r3, #52
 2416 0e30 1800000A 		beq	.L74
 2417 0e34 10301BE5 		ldr	r3, [fp, #-16]
 2418 0e38 013083E2 		add	r3, r3, #1
 2419 0e3c 0030D3E5 		ldrb	r3, [r3, #0]	@ zero_extendqisi2
 2420 0e40 350053E3 		cmp	r3, #53
 2421 0e44 1300000A 		beq	.L74
 448:../sintesisVoz.c **** 		    || txtIn[1] == '6' || txtIn[1] == '7' || txtIn[1] == '8'
 2422              		.loc 1 448 0 is_stmt 1
 2423 0e48 10301BE5 		ldr	r3, [fp, #-16]
 2424 0e4c 013083E2 		add	r3, r3, #1
 2425 0e50 0030D3E5 		ldrb	r3, [r3, #0]	@ zero_extendqisi2
 2426 0e54 360053E3 		cmp	r3, #54
 2427 0e58 0E00000A 		beq	.L74
 2428              		.loc 1 448 0 is_stmt 0 discriminator 1
 2429 0e5c 10301BE5 		ldr	r3, [fp, #-16]
 2430 0e60 013083E2 		add	r3, r3, #1
 2431 0e64 0030D3E5 		ldrb	r3, [r3, #0]	@ zero_extendqisi2
 2432 0e68 370053E3 		cmp	r3, #55
 2433 0e6c 0900000A 		beq	.L74
 2434 0e70 10301BE5 		ldr	r3, [fp, #-16]
 2435 0e74 013083E2 		add	r3, r3, #1
 2436 0e78 0030D3E5 		ldrb	r3, [r3, #0]	@ zero_extendqisi2
 2437 0e7c 380053E3 		cmp	r3, #56
 2438 0e80 0400000A 		beq	.L74
 449:../sintesisVoz.c **** 		    || txtIn[1] == '9'){
 2439              		.loc 1 449 0 is_stmt 1
 2440 0e84 10301BE5 		ldr	r3, [fp, #-16]
 2441 0e88 013083E2 		add	r3, r3, #1
 2442 0e8c 0030D3E5 		ldrb	r3, [r3, #0]	@ zero_extendqisi2
 2443 0e90 390053E3 		cmp	r3, #57
 2444 0e94 4000001A 		bne	.L75
 2445              	.L74:
 450:../sintesisVoz.c **** 				*txtOut++ = 'k';
 2446              		.loc 1 450 0
 2447 0e98 14301BE5 		ldr	r3, [fp, #-20]
 2448 0e9c 6B20A0E3 		mov	r2, #107
 2449 0ea0 0020C3E5 		strb	r2, [r3, #0]
 2450 0ea4 14301BE5 		ldr	r3, [fp, #-20]
 2451 0ea8 013083E2 		add	r3, r3, #1
 2452 0eac 14300BE5 		str	r3, [fp, #-20]
 451:../sintesisVoz.c **** 				*txtOut++ = 'u';
 2453              		.loc 1 451 0
 2454 0eb0 14301BE5 		ldr	r3, [fp, #-20]
 2455 0eb4 7520A0E3 		mov	r2, #117
 2456 0eb8 0020C3E5 		strb	r2, [r3, #0]
 2457 0ebc 14301BE5 		ldr	r3, [fp, #-20]
 2458 0ec0 013083E2 		add	r3, r3, #1
 2459 0ec4 14300BE5 		str	r3, [fp, #-20]
 452:../sintesisVoz.c **** 				*txtOut++ = 'a';
 2460              		.loc 1 452 0
 2461 0ec8 14301BE5 		ldr	r3, [fp, #-20]
 2462 0ecc 6120A0E3 		mov	r2, #97
 2463 0ed0 0020C3E5 		strb	r2, [r3, #0]
 2464 0ed4 14301BE5 		ldr	r3, [fp, #-20]
 2465 0ed8 013083E2 		add	r3, r3, #1
 2466 0edc 14300BE5 		str	r3, [fp, #-20]
 453:../sintesisVoz.c **** 				*txtOut++ = 'r';
 2467              		.loc 1 453 0
 2468 0ee0 14301BE5 		ldr	r3, [fp, #-20]
 2469 0ee4 7220A0E3 		mov	r2, #114
 2470 0ee8 0020C3E5 		strb	r2, [r3, #0]
 2471 0eec 14301BE5 		ldr	r3, [fp, #-20]
 2472 0ef0 013083E2 		add	r3, r3, #1
 2473 0ef4 14300BE5 		str	r3, [fp, #-20]
 454:../sintesisVoz.c **** 				*txtOut++ = 'e';
 2474              		.loc 1 454 0
 2475 0ef8 14301BE5 		ldr	r3, [fp, #-20]
 2476 0efc 6520A0E3 		mov	r2, #101
 2477 0f00 0020C3E5 		strb	r2, [r3, #0]
 2478 0f04 14301BE5 		ldr	r3, [fp, #-20]
 2479 0f08 013083E2 		add	r3, r3, #1
 2480 0f0c 14300BE5 		str	r3, [fp, #-20]
 455:../sintesisVoz.c **** 				*txtOut++ = 'n';
 2481              		.loc 1 455 0
 2482 0f10 14301BE5 		ldr	r3, [fp, #-20]
 2483 0f14 6E20A0E3 		mov	r2, #110
 2484 0f18 0020C3E5 		strb	r2, [r3, #0]
 2485 0f1c 14301BE5 		ldr	r3, [fp, #-20]
 2486 0f20 013083E2 		add	r3, r3, #1
 2487 0f24 14300BE5 		str	r3, [fp, #-20]
 456:../sintesisVoz.c **** 				*txtOut++ = 't';
 2488              		.loc 1 456 0
 2489 0f28 14301BE5 		ldr	r3, [fp, #-20]
 2490 0f2c 7420A0E3 		mov	r2, #116
 2491 0f30 0020C3E5 		strb	r2, [r3, #0]
 2492 0f34 14301BE5 		ldr	r3, [fp, #-20]
 2493 0f38 013083E2 		add	r3, r3, #1
 2494 0f3c 14300BE5 		str	r3, [fp, #-20]
 457:../sintesisVoz.c **** 				*txtOut++ = 'a';
 2495              		.loc 1 457 0
 2496 0f40 14301BE5 		ldr	r3, [fp, #-20]
 2497 0f44 6120A0E3 		mov	r2, #97
 2498 0f48 0020C3E5 		strb	r2, [r3, #0]
 2499 0f4c 14301BE5 		ldr	r3, [fp, #-20]
 2500 0f50 013083E2 		add	r3, r3, #1
 2501 0f54 14300BE5 		str	r3, [fp, #-20]
 458:../sintesisVoz.c **** 				if(txtIn[1] != '0') *txtOut++ = 'i';
 2502              		.loc 1 458 0
 2503 0f58 10301BE5 		ldr	r3, [fp, #-16]
 2504 0f5c 013083E2 		add	r3, r3, #1
 2505 0f60 0030D3E5 		ldrb	r3, [r3, #0]	@ zero_extendqisi2
 2506 0f64 300053E3 		cmp	r3, #48
 2507 0f68 0600000A 		beq	.L76
 2508              		.loc 1 458 0 is_stmt 0 discriminator 1
 2509 0f6c 14301BE5 		ldr	r3, [fp, #-20]
 2510 0f70 6920A0E3 		mov	r2, #105
 2511 0f74 0020C3E5 		strb	r2, [r3, #0]
 2512 0f78 14301BE5 		ldr	r3, [fp, #-20]
 2513 0f7c 013083E2 		add	r3, r3, #1
 2514 0f80 14300BE5 		str	r3, [fp, #-20]
 2515 0f84 020000EA 		b	.L77
 2516              	.L76:
 459:../sintesisVoz.c **** 				else txtIn++;
 2517              		.loc 1 459 0 is_stmt 1
 2518 0f88 10301BE5 		ldr	r3, [fp, #-16]
 2519 0f8c 013083E2 		add	r3, r3, #1
 2520 0f90 10300BE5 		str	r3, [fp, #-16]
 2521              	.L77:
 458:../sintesisVoz.c **** 				if(txtIn[1] != '0') *txtOut++ = 'i';
 2522              		.loc 1 458 0
 2523 0f94 0000A0E1 		mov	r0, r0	@ nop
 460:../sintesisVoz.c ****         	}
 461:../sintesisVoz.c **** 			else{
 462:../sintesisVoz.c **** 				*txtOut++ = 'k';
 463:../sintesisVoz.c **** 				*txtOut++ = 'u';
 464:../sintesisVoz.c **** 				*txtOut++ = 'a';
 465:../sintesisVoz.c **** 				*txtOut++ = 't';
 466:../sintesisVoz.c **** 				*txtOut++ = 'r';
 467:../sintesisVoz.c **** 				*txtOut++ = 'o';
 468:../sintesisVoz.c **** 			}
 469:../sintesisVoz.c ****         	break;
 2524              		.loc 1 469 0
 2525 0f98 620200EA 		b	.L50
 2526              	.L75:
 462:../sintesisVoz.c **** 				*txtOut++ = 'k';
 2527              		.loc 1 462 0
 2528 0f9c 14301BE5 		ldr	r3, [fp, #-20]
 2529 0fa0 6B20A0E3 		mov	r2, #107
 2530 0fa4 0020C3E5 		strb	r2, [r3, #0]
 2531 0fa8 14301BE5 		ldr	r3, [fp, #-20]
 2532 0fac 013083E2 		add	r3, r3, #1
 2533 0fb0 14300BE5 		str	r3, [fp, #-20]
 463:../sintesisVoz.c **** 				*txtOut++ = 'u';
 2534              		.loc 1 463 0
 2535 0fb4 14301BE5 		ldr	r3, [fp, #-20]
 2536 0fb8 7520A0E3 		mov	r2, #117
 2537 0fbc 0020C3E5 		strb	r2, [r3, #0]
 2538 0fc0 14301BE5 		ldr	r3, [fp, #-20]
 2539 0fc4 013083E2 		add	r3, r3, #1
 2540 0fc8 14300BE5 		str	r3, [fp, #-20]
 464:../sintesisVoz.c **** 				*txtOut++ = 'a';
 2541              		.loc 1 464 0
 2542 0fcc 14301BE5 		ldr	r3, [fp, #-20]
 2543 0fd0 6120A0E3 		mov	r2, #97
 2544 0fd4 0020C3E5 		strb	r2, [r3, #0]
 2545 0fd8 14301BE5 		ldr	r3, [fp, #-20]
 2546 0fdc 013083E2 		add	r3, r3, #1
 2547 0fe0 14300BE5 		str	r3, [fp, #-20]
 465:../sintesisVoz.c **** 				*txtOut++ = 't';
 2548              		.loc 1 465 0
 2549 0fe4 14301BE5 		ldr	r3, [fp, #-20]
 2550 0fe8 7420A0E3 		mov	r2, #116
 2551 0fec 0020C3E5 		strb	r2, [r3, #0]
 2552 0ff0 14301BE5 		ldr	r3, [fp, #-20]
 2553 0ff4 013083E2 		add	r3, r3, #1
 2554 0ff8 14300BE5 		str	r3, [fp, #-20]
 466:../sintesisVoz.c **** 				*txtOut++ = 'r';
 2555              		.loc 1 466 0
 2556 0ffc 14301BE5 		ldr	r3, [fp, #-20]
 2557 1000 7220A0E3 		mov	r2, #114
 2558 1004 0020C3E5 		strb	r2, [r3, #0]
 2559 1008 14301BE5 		ldr	r3, [fp, #-20]
 2560 100c 013083E2 		add	r3, r3, #1
 2561 1010 14300BE5 		str	r3, [fp, #-20]
 467:../sintesisVoz.c **** 				*txtOut++ = 'o';
 2562              		.loc 1 467 0
 2563 1014 14301BE5 		ldr	r3, [fp, #-20]
 2564 1018 6F20A0E3 		mov	r2, #111
 2565 101c 0020C3E5 		strb	r2, [r3, #0]
 2566 1020 14301BE5 		ldr	r3, [fp, #-20]
 2567 1024 013083E2 		add	r3, r3, #1
 2568 1028 14300BE5 		str	r3, [fp, #-20]
 2569              		.loc 1 469 0
 2570 102c 3D0200EA 		b	.L50
 2571              	.L36:
 470:../sintesisVoz.c ****         case '5':
 471:../sintesisVoz.c **** 			if(txtIn[1] == '0' || txtIn[1] == '1' || txtIn[1] == '2'
 2572              		.loc 1 471 0
 2573 1030 10301BE5 		ldr	r3, [fp, #-16]
 2574 1034 013083E2 		add	r3, r3, #1
 2575 1038 0030D3E5 		ldrb	r3, [r3, #0]	@ zero_extendqisi2
 2576 103c 300053E3 		cmp	r3, #48
 2577 1040 2C00000A 		beq	.L79
 2578              		.loc 1 471 0 is_stmt 0 discriminator 1
 2579 1044 10301BE5 		ldr	r3, [fp, #-16]
 2580 1048 013083E2 		add	r3, r3, #1
 2581 104c 0030D3E5 		ldrb	r3, [r3, #0]	@ zero_extendqisi2
 2582 1050 310053E3 		cmp	r3, #49
 2583 1054 2700000A 		beq	.L79
 2584 1058 10301BE5 		ldr	r3, [fp, #-16]
 2585 105c 013083E2 		add	r3, r3, #1
 2586 1060 0030D3E5 		ldrb	r3, [r3, #0]	@ zero_extendqisi2
 2587 1064 320053E3 		cmp	r3, #50
 2588 1068 2200000A 		beq	.L79
 472:../sintesisVoz.c **** 			|| txtIn[1] == '3' || txtIn[1] == '4' || txtIn[1] == '5'
 2589              		.loc 1 472 0 is_stmt 1
 2590 106c 10301BE5 		ldr	r3, [fp, #-16]
 2591 1070 013083E2 		add	r3, r3, #1
 2592 1074 0030D3E5 		ldrb	r3, [r3, #0]	@ zero_extendqisi2
 2593 1078 330053E3 		cmp	r3, #51
 2594 107c 1D00000A 		beq	.L79
 2595              		.loc 1 472 0 is_stmt 0 discriminator 1
 2596 1080 10301BE5 		ldr	r3, [fp, #-16]
 2597 1084 013083E2 		add	r3, r3, #1
 2598 1088 0030D3E5 		ldrb	r3, [r3, #0]	@ zero_extendqisi2
 2599 108c 340053E3 		cmp	r3, #52
 2600 1090 1800000A 		beq	.L79
 2601 1094 10301BE5 		ldr	r3, [fp, #-16]
 2602 1098 013083E2 		add	r3, r3, #1
 2603 109c 0030D3E5 		ldrb	r3, [r3, #0]	@ zero_extendqisi2
 2604 10a0 350053E3 		cmp	r3, #53
 2605 10a4 1300000A 		beq	.L79
 473:../sintesisVoz.c **** 		    || txtIn[1] == '6' || txtIn[1] == '7' || txtIn[1] == '8'
 2606              		.loc 1 473 0 is_stmt 1
 2607 10a8 10301BE5 		ldr	r3, [fp, #-16]
 2608 10ac 013083E2 		add	r3, r3, #1
 2609 10b0 0030D3E5 		ldrb	r3, [r3, #0]	@ zero_extendqisi2
 2610 10b4 360053E3 		cmp	r3, #54
 2611 10b8 0E00000A 		beq	.L79
 2612              		.loc 1 473 0 is_stmt 0 discriminator 1
 2613 10bc 10301BE5 		ldr	r3, [fp, #-16]
 2614 10c0 013083E2 		add	r3, r3, #1
 2615 10c4 0030D3E5 		ldrb	r3, [r3, #0]	@ zero_extendqisi2
 2616 10c8 370053E3 		cmp	r3, #55
 2617 10cc 0900000A 		beq	.L79
 2618 10d0 10301BE5 		ldr	r3, [fp, #-16]
 2619 10d4 013083E2 		add	r3, r3, #1
 2620 10d8 0030D3E5 		ldrb	r3, [r3, #0]	@ zero_extendqisi2
 2621 10dc 380053E3 		cmp	r3, #56
 2622 10e0 0400000A 		beq	.L79
 474:../sintesisVoz.c **** 		    || txtIn[1] == '9'){
 2623              		.loc 1 474 0 is_stmt 1
 2624 10e4 10301BE5 		ldr	r3, [fp, #-16]
 2625 10e8 013083E2 		add	r3, r3, #1
 2626 10ec 0030D3E5 		ldrb	r3, [r3, #0]	@ zero_extendqisi2
 2627 10f0 390053E3 		cmp	r3, #57
 2628 10f4 4600001A 		bne	.L80
 2629              	.L79:
 475:../sintesisVoz.c **** 				*txtOut++ = 'z';
 2630              		.loc 1 475 0
 2631 10f8 14301BE5 		ldr	r3, [fp, #-20]
 2632 10fc 7A20A0E3 		mov	r2, #122
 2633 1100 0020C3E5 		strb	r2, [r3, #0]
 2634 1104 14301BE5 		ldr	r3, [fp, #-20]
 2635 1108 013083E2 		add	r3, r3, #1
 2636 110c 14300BE5 		str	r3, [fp, #-20]
 476:../sintesisVoz.c **** 				*txtOut++ = 'i';
 2637              		.loc 1 476 0
 2638 1110 14301BE5 		ldr	r3, [fp, #-20]
 2639 1114 6920A0E3 		mov	r2, #105
 2640 1118 0020C3E5 		strb	r2, [r3, #0]
 2641 111c 14301BE5 		ldr	r3, [fp, #-20]
 2642 1120 013083E2 		add	r3, r3, #1
 2643 1124 14300BE5 		str	r3, [fp, #-20]
 477:../sintesisVoz.c **** 				*txtOut++ = 'n';
 2644              		.loc 1 477 0
 2645 1128 14301BE5 		ldr	r3, [fp, #-20]
 2646 112c 6E20A0E3 		mov	r2, #110
 2647 1130 0020C3E5 		strb	r2, [r3, #0]
 2648 1134 14301BE5 		ldr	r3, [fp, #-20]
 2649 1138 013083E2 		add	r3, r3, #1
 2650 113c 14300BE5 		str	r3, [fp, #-20]
 478:../sintesisVoz.c **** 				*txtOut++ = 'k';
 2651              		.loc 1 478 0
 2652 1140 14301BE5 		ldr	r3, [fp, #-20]
 2653 1144 6B20A0E3 		mov	r2, #107
 2654 1148 0020C3E5 		strb	r2, [r3, #0]
 2655 114c 14301BE5 		ldr	r3, [fp, #-20]
 2656 1150 013083E2 		add	r3, r3, #1
 2657 1154 14300BE5 		str	r3, [fp, #-20]
 479:../sintesisVoz.c **** 				*txtOut++ = 'u';
 2658              		.loc 1 479 0
 2659 1158 14301BE5 		ldr	r3, [fp, #-20]
 2660 115c 7520A0E3 		mov	r2, #117
 2661 1160 0020C3E5 		strb	r2, [r3, #0]
 2662 1164 14301BE5 		ldr	r3, [fp, #-20]
 2663 1168 013083E2 		add	r3, r3, #1
 2664 116c 14300BE5 		str	r3, [fp, #-20]
 480:../sintesisVoz.c **** 				*txtOut++ = 'e';
 2665              		.loc 1 480 0
 2666 1170 14301BE5 		ldr	r3, [fp, #-20]
 2667 1174 6520A0E3 		mov	r2, #101
 2668 1178 0020C3E5 		strb	r2, [r3, #0]
 2669 117c 14301BE5 		ldr	r3, [fp, #-20]
 2670 1180 013083E2 		add	r3, r3, #1
 2671 1184 14300BE5 		str	r3, [fp, #-20]
 481:../sintesisVoz.c **** 				*txtOut++ = 'n';
 2672              		.loc 1 481 0
 2673 1188 14301BE5 		ldr	r3, [fp, #-20]
 2674 118c 6E20A0E3 		mov	r2, #110
 2675 1190 0020C3E5 		strb	r2, [r3, #0]
 2676 1194 14301BE5 		ldr	r3, [fp, #-20]
 2677 1198 013083E2 		add	r3, r3, #1
 2678 119c 14300BE5 		str	r3, [fp, #-20]
 482:../sintesisVoz.c **** 				*txtOut++ = 't';
 2679              		.loc 1 482 0
 2680 11a0 14301BE5 		ldr	r3, [fp, #-20]
 2681 11a4 7420A0E3 		mov	r2, #116
 2682 11a8 0020C3E5 		strb	r2, [r3, #0]
 2683 11ac 14301BE5 		ldr	r3, [fp, #-20]
 2684 11b0 013083E2 		add	r3, r3, #1
 2685 11b4 14300BE5 		str	r3, [fp, #-20]
 483:../sintesisVoz.c **** 				*txtOut++ = 'a';
 2686              		.loc 1 483 0
 2687 11b8 14301BE5 		ldr	r3, [fp, #-20]
 2688 11bc 6120A0E3 		mov	r2, #97
 2689 11c0 0020C3E5 		strb	r2, [r3, #0]
 2690 11c4 14301BE5 		ldr	r3, [fp, #-20]
 2691 11c8 013083E2 		add	r3, r3, #1
 2692 11cc 14300BE5 		str	r3, [fp, #-20]
 484:../sintesisVoz.c **** 				if(txtIn[1] != '0') *txtOut++ = 'i';
 2693              		.loc 1 484 0
 2694 11d0 10301BE5 		ldr	r3, [fp, #-16]
 2695 11d4 013083E2 		add	r3, r3, #1
 2696 11d8 0030D3E5 		ldrb	r3, [r3, #0]	@ zero_extendqisi2
 2697 11dc 300053E3 		cmp	r3, #48
 2698 11e0 0600000A 		beq	.L81
 2699              		.loc 1 484 0 is_stmt 0 discriminator 1
 2700 11e4 14301BE5 		ldr	r3, [fp, #-20]
 2701 11e8 6920A0E3 		mov	r2, #105
 2702 11ec 0020C3E5 		strb	r2, [r3, #0]
 2703 11f0 14301BE5 		ldr	r3, [fp, #-20]
 2704 11f4 013083E2 		add	r3, r3, #1
 2705 11f8 14300BE5 		str	r3, [fp, #-20]
 2706 11fc 020000EA 		b	.L82
 2707              	.L81:
 485:../sintesisVoz.c **** 				else txtIn++;
 2708              		.loc 1 485 0 is_stmt 1
 2709 1200 10301BE5 		ldr	r3, [fp, #-16]
 2710 1204 013083E2 		add	r3, r3, #1
 2711 1208 10300BE5 		str	r3, [fp, #-16]
 2712              	.L82:
 484:../sintesisVoz.c **** 				if(txtIn[1] != '0') *txtOut++ = 'i';
 2713              		.loc 1 484 0
 2714 120c 0000A0E1 		mov	r0, r0	@ nop
 486:../sintesisVoz.c ****         	}
 487:../sintesisVoz.c **** 			else{
 488:../sintesisVoz.c **** 				*txtOut++ = 'z';
 489:../sintesisVoz.c **** 				*txtOut++ = 'i';
 490:../sintesisVoz.c **** 				*txtOut++ = 'n';
 491:../sintesisVoz.c **** 				*txtOut++ = 'k';
 492:../sintesisVoz.c **** 				*txtOut++ = 'o';
 493:../sintesisVoz.c **** 			}
 494:../sintesisVoz.c ****         	break;
 2715              		.loc 1 494 0
 2716 1210 C40100EA 		b	.L50
 2717              	.L80:
 488:../sintesisVoz.c **** 				*txtOut++ = 'z';
 2718              		.loc 1 488 0
 2719 1214 14301BE5 		ldr	r3, [fp, #-20]
 2720 1218 7A20A0E3 		mov	r2, #122
 2721 121c 0020C3E5 		strb	r2, [r3, #0]
 2722 1220 14301BE5 		ldr	r3, [fp, #-20]
 2723 1224 013083E2 		add	r3, r3, #1
 2724 1228 14300BE5 		str	r3, [fp, #-20]
 489:../sintesisVoz.c **** 				*txtOut++ = 'i';
 2725              		.loc 1 489 0
 2726 122c 14301BE5 		ldr	r3, [fp, #-20]
 2727 1230 6920A0E3 		mov	r2, #105
 2728 1234 0020C3E5 		strb	r2, [r3, #0]
 2729 1238 14301BE5 		ldr	r3, [fp, #-20]
 2730 123c 013083E2 		add	r3, r3, #1
 2731 1240 14300BE5 		str	r3, [fp, #-20]
 490:../sintesisVoz.c **** 				*txtOut++ = 'n';
 2732              		.loc 1 490 0
 2733 1244 14301BE5 		ldr	r3, [fp, #-20]
 2734 1248 6E20A0E3 		mov	r2, #110
 2735 124c 0020C3E5 		strb	r2, [r3, #0]
 2736 1250 14301BE5 		ldr	r3, [fp, #-20]
 2737 1254 013083E2 		add	r3, r3, #1
 2738 1258 14300BE5 		str	r3, [fp, #-20]
 491:../sintesisVoz.c **** 				*txtOut++ = 'k';
 2739              		.loc 1 491 0
 2740 125c 14301BE5 		ldr	r3, [fp, #-20]
 2741 1260 6B20A0E3 		mov	r2, #107
 2742 1264 0020C3E5 		strb	r2, [r3, #0]
 2743 1268 14301BE5 		ldr	r3, [fp, #-20]
 2744 126c 013083E2 		add	r3, r3, #1
 2745 1270 14300BE5 		str	r3, [fp, #-20]
 492:../sintesisVoz.c **** 				*txtOut++ = 'o';
 2746              		.loc 1 492 0
 2747 1274 14301BE5 		ldr	r3, [fp, #-20]
 2748 1278 6F20A0E3 		mov	r2, #111
 2749 127c 0020C3E5 		strb	r2, [r3, #0]
 2750 1280 14301BE5 		ldr	r3, [fp, #-20]
 2751 1284 013083E2 		add	r3, r3, #1
 2752 1288 14300BE5 		str	r3, [fp, #-20]
 2753              		.loc 1 494 0
 2754 128c A50100EA 		b	.L50
 2755              	.L37:
 495:../sintesisVoz.c ****         case '6':
 496:../sintesisVoz.c ****             *txtOut++ = 's';
 2756              		.loc 1 496 0
 2757 1290 14301BE5 		ldr	r3, [fp, #-20]
 2758 1294 7320A0E3 		mov	r2, #115
 2759 1298 0020C3E5 		strb	r2, [r3, #0]
 2760 129c 14301BE5 		ldr	r3, [fp, #-20]
 2761 12a0 013083E2 		add	r3, r3, #1
 2762 12a4 14300BE5 		str	r3, [fp, #-20]
 497:../sintesisVoz.c ****             *txtOut++ = 'e';
 2763              		.loc 1 497 0
 2764 12a8 14301BE5 		ldr	r3, [fp, #-20]
 2765 12ac 6520A0E3 		mov	r2, #101
 2766 12b0 0020C3E5 		strb	r2, [r3, #0]
 2767 12b4 14301BE5 		ldr	r3, [fp, #-20]
 2768 12b8 013083E2 		add	r3, r3, #1
 2769 12bc 14300BE5 		str	r3, [fp, #-20]
 498:../sintesisVoz.c ****             *txtOut++ = 'i';
 2770              		.loc 1 498 0
 2771 12c0 14301BE5 		ldr	r3, [fp, #-20]
 2772 12c4 6920A0E3 		mov	r2, #105
 2773 12c8 0020C3E5 		strb	r2, [r3, #0]
 2774 12cc 14301BE5 		ldr	r3, [fp, #-20]
 2775 12d0 013083E2 		add	r3, r3, #1
 2776 12d4 14300BE5 		str	r3, [fp, #-20]
 499:../sintesisVoz.c ****             *txtOut++ = 's';
 2777              		.loc 1 499 0
 2778 12d8 14301BE5 		ldr	r3, [fp, #-20]
 2779 12dc 7320A0E3 		mov	r2, #115
 2780 12e0 0020C3E5 		strb	r2, [r3, #0]
 2781 12e4 14301BE5 		ldr	r3, [fp, #-20]
 2782 12e8 013083E2 		add	r3, r3, #1
 2783 12ec 14300BE5 		str	r3, [fp, #-20]
 500:../sintesisVoz.c ****             break;
 2784              		.loc 1 500 0
 2785 12f0 8C0100EA 		b	.L50
 2786              	.L38:
 501:../sintesisVoz.c ****         case '7':
 502:../sintesisVoz.c ****             *txtOut++ = 's';
 2787              		.loc 1 502 0
 2788 12f4 14301BE5 		ldr	r3, [fp, #-20]
 2789 12f8 7320A0E3 		mov	r2, #115
 2790 12fc 0020C3E5 		strb	r2, [r3, #0]
 2791 1300 14301BE5 		ldr	r3, [fp, #-20]
 2792 1304 013083E2 		add	r3, r3, #1
 2793 1308 14300BE5 		str	r3, [fp, #-20]
 503:../sintesisVoz.c ****             *txtOut++ = 'i';
 2794              		.loc 1 503 0
 2795 130c 14301BE5 		ldr	r3, [fp, #-20]
 2796 1310 6920A0E3 		mov	r2, #105
 2797 1314 0020C3E5 		strb	r2, [r3, #0]
 2798 1318 14301BE5 		ldr	r3, [fp, #-20]
 2799 131c 013083E2 		add	r3, r3, #1
 2800 1320 14300BE5 		str	r3, [fp, #-20]
 504:../sintesisVoz.c ****             *txtOut++ = 'e';
 2801              		.loc 1 504 0
 2802 1324 14301BE5 		ldr	r3, [fp, #-20]
 2803 1328 6520A0E3 		mov	r2, #101
 2804 132c 0020C3E5 		strb	r2, [r3, #0]
 2805 1330 14301BE5 		ldr	r3, [fp, #-20]
 2806 1334 013083E2 		add	r3, r3, #1
 2807 1338 14300BE5 		str	r3, [fp, #-20]
 505:../sintesisVoz.c ****             *txtOut++ = 't';
 2808              		.loc 1 505 0
 2809 133c 14301BE5 		ldr	r3, [fp, #-20]
 2810 1340 7420A0E3 		mov	r2, #116
 2811 1344 0020C3E5 		strb	r2, [r3, #0]
 2812 1348 14301BE5 		ldr	r3, [fp, #-20]
 2813 134c 013083E2 		add	r3, r3, #1
 2814 1350 14300BE5 		str	r3, [fp, #-20]
 506:../sintesisVoz.c ****             *txtOut++ = 'e';
 2815              		.loc 1 506 0
 2816 1354 14301BE5 		ldr	r3, [fp, #-20]
 2817 1358 6520A0E3 		mov	r2, #101
 2818 135c 0020C3E5 		strb	r2, [r3, #0]
 2819 1360 14301BE5 		ldr	r3, [fp, #-20]
 2820 1364 013083E2 		add	r3, r3, #1
 2821 1368 14300BE5 		str	r3, [fp, #-20]
 507:../sintesisVoz.c ****             break;
 2822              		.loc 1 507 0
 2823 136c 6D0100EA 		b	.L50
 2824              	.L39:
 508:../sintesisVoz.c ****         case '8':
 509:../sintesisVoz.c ****             *txtOut++ = 'o';
 2825              		.loc 1 509 0
 2826 1370 14301BE5 		ldr	r3, [fp, #-20]
 2827 1374 6F20A0E3 		mov	r2, #111
 2828 1378 0020C3E5 		strb	r2, [r3, #0]
 2829 137c 14301BE5 		ldr	r3, [fp, #-20]
 2830 1380 013083E2 		add	r3, r3, #1
 2831 1384 14300BE5 		str	r3, [fp, #-20]
 510:../sintesisVoz.c ****             *txtOut++ = 'H';
 2832              		.loc 1 510 0
 2833 1388 14301BE5 		ldr	r3, [fp, #-20]
 2834 138c 4820A0E3 		mov	r2, #72
 2835 1390 0020C3E5 		strb	r2, [r3, #0]
 2836 1394 14301BE5 		ldr	r3, [fp, #-20]
 2837 1398 013083E2 		add	r3, r3, #1
 2838 139c 14300BE5 		str	r3, [fp, #-20]
 511:../sintesisVoz.c ****             *txtOut++ = 'o';
 2839              		.loc 1 511 0
 2840 13a0 14301BE5 		ldr	r3, [fp, #-20]
 2841 13a4 6F20A0E3 		mov	r2, #111
 2842 13a8 0020C3E5 		strb	r2, [r3, #0]
 2843 13ac 14301BE5 		ldr	r3, [fp, #-20]
 2844 13b0 013083E2 		add	r3, r3, #1
 2845 13b4 14300BE5 		str	r3, [fp, #-20]
 512:../sintesisVoz.c ****             break;
 2846              		.loc 1 512 0
 2847 13b8 5A0100EA 		b	.L50
 2848              	.L40:
 513:../sintesisVoz.c ****         case '9':
 514:../sintesisVoz.c ****             *txtOut++ = 'n';
 2849              		.loc 1 514 0
 2850 13bc 14301BE5 		ldr	r3, [fp, #-20]
 2851 13c0 6E20A0E3 		mov	r2, #110
 2852 13c4 0020C3E5 		strb	r2, [r3, #0]
 2853 13c8 14301BE5 		ldr	r3, [fp, #-20]
 2854 13cc 013083E2 		add	r3, r3, #1
 2855 13d0 14300BE5 		str	r3, [fp, #-20]
 515:../sintesisVoz.c ****             *txtOut++ = 'u';
 2856              		.loc 1 515 0
 2857 13d4 14301BE5 		ldr	r3, [fp, #-20]
 2858 13d8 7520A0E3 		mov	r2, #117
 2859 13dc 0020C3E5 		strb	r2, [r3, #0]
 2860 13e0 14301BE5 		ldr	r3, [fp, #-20]
 2861 13e4 013083E2 		add	r3, r3, #1
 2862 13e8 14300BE5 		str	r3, [fp, #-20]
 516:../sintesisVoz.c ****             *txtOut++ = 'e';
 2863              		.loc 1 516 0
 2864 13ec 14301BE5 		ldr	r3, [fp, #-20]
 2865 13f0 6520A0E3 		mov	r2, #101
 2866 13f4 0020C3E5 		strb	r2, [r3, #0]
 2867 13f8 14301BE5 		ldr	r3, [fp, #-20]
 2868 13fc 013083E2 		add	r3, r3, #1
 2869 1400 14300BE5 		str	r3, [fp, #-20]
 517:../sintesisVoz.c ****             *txtOut++ = 'b';
 2870              		.loc 1 517 0
 2871 1404 14301BE5 		ldr	r3, [fp, #-20]
 2872 1408 6220A0E3 		mov	r2, #98
 2873 140c 0020C3E5 		strb	r2, [r3, #0]
 2874 1410 14301BE5 		ldr	r3, [fp, #-20]
 2875 1414 013083E2 		add	r3, r3, #1
 2876 1418 14300BE5 		str	r3, [fp, #-20]
 518:../sintesisVoz.c ****             *txtOut++ = 'e';
 2877              		.loc 1 518 0
 2878 141c 14301BE5 		ldr	r3, [fp, #-20]
 2879 1420 6520A0E3 		mov	r2, #101
 2880 1424 0020C3E5 		strb	r2, [r3, #0]
 2881 1428 14301BE5 		ldr	r3, [fp, #-20]
 2882 142c 013083E2 		add	r3, r3, #1
 2883 1430 14300BE5 		str	r3, [fp, #-20]
 519:../sintesisVoz.c ****             break;
 2884              		.loc 1 519 0
 2885 1434 3B0100EA 		b	.L50
 2886              	.L41:
 520:../sintesisVoz.c ****         case 'c':
 521:../sintesisVoz.c ****             switch( txtIn[1] ) {
 2887              		.loc 1 521 0
 2888 1438 10301BE5 		ldr	r3, [fp, #-16]
 2889 143c 013083E2 		add	r3, r3, #1
 2890 1440 0030D3E5 		ldrb	r3, [r3, #0]	@ zero_extendqisi2
 2891 1444 613043E2 		sub	r3, r3, #97
 2892 1448 140053E3 		cmp	r3, #20
 2893 144c 2400008A 		bhi	.L84
 2894 1450 04259FE5 		ldr	r2, .L119
 2895 1454 1223A0E1 		mov	r2, r2, asl r3
 2896 1458 000052E3 		cmp	r2, #0
 2897 145c 080000BA 		blt	.L85
 2898 1460 2225A0E3 		mov	r2, #142606336
 2899 1464 1223A0E1 		mov	r2, r2, asl r3
 2900 1468 000052E3 		cmp	r2, #0
 2901 146c 0B0000BA 		blt	.L86
 2902 1470 0124A0E3 		mov	r2, #16777216
 2903 1474 1233A0E1 		mov	r3, r2, asl r3
 2904 1478 000053E3 		cmp	r3, #0
 2905 147c 180000AA 		bge	.L84
 2906 1480 0D0000EA 		b	.L87
 2907              	.L85:
 522:../sintesisVoz.c ****             //Reemplazamos "ca", "co", "cu" por "ka", "ko", "ku"
 523:../sintesisVoz.c ****             case 'a':
 524:../sintesisVoz.c ****             case 'o':
 525:../sintesisVoz.c ****             case 'u':
 526:../sintesisVoz.c ****                 *txtOut++ = 'k';
 2908              		.loc 1 526 0
 2909 1484 14301BE5 		ldr	r3, [fp, #-20]
 2910 1488 6B20A0E3 		mov	r2, #107
 2911 148c 0020C3E5 		strb	r2, [r3, #0]
 2912 1490 14301BE5 		ldr	r3, [fp, #-20]
 2913 1494 013083E2 		add	r3, r3, #1
 2914 1498 14300BE5 		str	r3, [fp, #-20]
 527:../sintesisVoz.c ****                 break;
 2915              		.loc 1 527 0
 2916 149c 170000EA 		b	.L88
 2917              	.L86:
 528:../sintesisVoz.c ****             //Remplazamos "ce", "ci" por "ze", "zi"
 529:../sintesisVoz.c ****             case 'e':
 530:../sintesisVoz.c ****             case 'i':
 531:../sintesisVoz.c ****                 *txtOut++ = 'z';
 2918              		.loc 1 531 0
 2919 14a0 14301BE5 		ldr	r3, [fp, #-20]
 2920 14a4 7A20A0E3 		mov	r2, #122
 2921 14a8 0020C3E5 		strb	r2, [r3, #0]
 2922 14ac 14301BE5 		ldr	r3, [fp, #-20]
 2923 14b0 013083E2 		add	r3, r3, #1
 2924 14b4 14300BE5 		str	r3, [fp, #-20]
 532:../sintesisVoz.c ****                 break;
 2925              		.loc 1 532 0
 2926 14b8 100000EA 		b	.L88
 2927              	.L87:
 533:../sintesisVoz.c ****             //Reemplazamos "ch" por "H"
 534:../sintesisVoz.c ****             case 'h':
 535:../sintesisVoz.c ****                 *txtOut++ = 'H';
 2928              		.loc 1 535 0
 2929 14bc 14301BE5 		ldr	r3, [fp, #-20]
 2930 14c0 4820A0E3 		mov	r2, #72
 2931 14c4 0020C3E5 		strb	r2, [r3, #0]
 2932 14c8 14301BE5 		ldr	r3, [fp, #-20]
 2933 14cc 013083E2 		add	r3, r3, #1
 2934 14d0 14300BE5 		str	r3, [fp, #-20]
 536:../sintesisVoz.c ****                 txtIn++;
 2935              		.loc 1 536 0
 2936 14d4 10301BE5 		ldr	r3, [fp, #-16]
 2937 14d8 013083E2 		add	r3, r3, #1
 2938 14dc 10300BE5 		str	r3, [fp, #-16]
 537:../sintesisVoz.c ****                 break;
 2939              		.loc 1 537 0
 2940 14e0 060000EA 		b	.L88
 2941              	.L84:
 538:../sintesisVoz.c ****             //Reemplazamos "cr", "cl" por "kr", "kl"
 539:../sintesisVoz.c ****             default:
 540:../sintesisVoz.c ****                 *txtOut++ = 'k';
 2942              		.loc 1 540 0
 2943 14e4 14301BE5 		ldr	r3, [fp, #-20]
 2944 14e8 6B20A0E3 		mov	r2, #107
 2945 14ec 0020C3E5 		strb	r2, [r3, #0]
 2946 14f0 14301BE5 		ldr	r3, [fp, #-20]
 2947 14f4 013083E2 		add	r3, r3, #1
 2948 14f8 14300BE5 		str	r3, [fp, #-20]
 541:../sintesisVoz.c ****             }
 542:../sintesisVoz.c ****             break;
 2949              		.loc 1 542 0
 2950 14fc 090100EA 		b	.L50
 2951              	.L88:
 2952 1500 080100EA 		b	.L50
 2953              	.L42:
 543:../sintesisVoz.c **** 		case 'g':
 544:../sintesisVoz.c ****             switch( txtIn[1] ) {
 2954              		.loc 1 544 0
 2955 1504 10301BE5 		ldr	r3, [fp, #-16]
 2956 1508 013083E2 		add	r3, r3, #1
 2957 150c 0030D3E5 		ldrb	r3, [r3, #0]	@ zero_extendqisi2
 2958 1510 690053E3 		cmp	r3, #105
 2959 1514 2300000A 		beq	.L90
 2960 1518 690053E3 		cmp	r3, #105
 2961 151c 020000CA 		bgt	.L93
 2962 1520 650053E3 		cmp	r3, #101
 2963 1524 1F00000A 		beq	.L90
 2964 1528 360000EA 		b	.L89
 2965              	.L93:
 2966 152c 750053E3 		cmp	r3, #117
 2967 1530 0200000A 		beq	.L91
 2968 1534 FC0053E3 		cmp	r3, #252
 2969 1538 2100000A 		beq	.L92
 2970 153c 310000EA 		b	.L89
 2971              	.L91:
 545:../sintesisVoz.c ****             //Reemplazamos "gue", "gui" por "ge", "gi"
 546:../sintesisVoz.c ****             case 'u':
 547:../sintesisVoz.c ****                 switch( txtIn[2] ) {
 2972              		.loc 1 547 0
 2973 1540 10301BE5 		ldr	r3, [fp, #-16]
 2974 1544 023083E2 		add	r3, r3, #2
 2975 1548 0030D3E5 		ldrb	r3, [r3, #0]	@ zero_extendqisi2
 2976 154c 650053E3 		cmp	r3, #101
 2977 1550 0100000A 		beq	.L95
 2978 1554 690053E3 		cmp	r3, #105
 2979 1558 0A00001A 		bne	.L116
 2980              	.L95:
 548:../sintesisVoz.c ****                 case 'e':
 549:../sintesisVoz.c ****                 case 'i':
 550:../sintesisVoz.c ****                 	*txtOut++ = *txtIn;
 2981              		.loc 1 550 0
 2982 155c 10301BE5 		ldr	r3, [fp, #-16]
 2983 1560 0020D3E5 		ldrb	r2, [r3, #0]	@ zero_extendqisi2
 2984 1564 14301BE5 		ldr	r3, [fp, #-20]
 2985 1568 0020C3E5 		strb	r2, [r3, #0]
 2986 156c 14301BE5 		ldr	r3, [fp, #-20]
 2987 1570 013083E2 		add	r3, r3, #1
 2988 1574 14300BE5 		str	r3, [fp, #-20]
 551:../sintesisVoz.c ****                 	*txtIn++;
 2989              		.loc 1 551 0
 2990 1578 10301BE5 		ldr	r3, [fp, #-16]
 2991 157c 013083E2 		add	r3, r3, #1
 2992 1580 10300BE5 		str	r3, [fp, #-16]
 552:../sintesisVoz.c ****                     break;
 2993              		.loc 1 552 0
 2994 1584 060000EA 		b	.L96
 2995              	.L116:
 553:../sintesisVoz.c ****                 default:
 554:../sintesisVoz.c ****                 	*txtOut++ = *txtIn;
 2996              		.loc 1 554 0
 2997 1588 10301BE5 		ldr	r3, [fp, #-16]
 2998 158c 0020D3E5 		ldrb	r2, [r3, #0]	@ zero_extendqisi2
 2999 1590 14301BE5 		ldr	r3, [fp, #-20]
 3000 1594 0020C3E5 		strb	r2, [r3, #0]
 3001 1598 14301BE5 		ldr	r3, [fp, #-20]
 3002 159c 013083E2 		add	r3, r3, #1
 3003 15a0 14300BE5 		str	r3, [fp, #-20]
 3004              	.L96:
 555:../sintesisVoz.c ****                 }
 556:../sintesisVoz.c ****                 break;
 3005              		.loc 1 556 0
 3006 15a4 1F0000EA 		b	.L97
 3007              	.L90:
 557:../sintesisVoz.c ****             //Reemplazamos "ge", "gi" por "je", "ji"
 558:../sintesisVoz.c **** 			case 'e':
 559:../sintesisVoz.c **** 			case 'i':
 560:../sintesisVoz.c **** 				*txtOut++ = 'j';
 3008              		.loc 1 560 0
 3009 15a8 14301BE5 		ldr	r3, [fp, #-20]
 3010 15ac 6A20A0E3 		mov	r2, #106
 3011 15b0 0020C3E5 		strb	r2, [r3, #0]
 3012 15b4 14301BE5 		ldr	r3, [fp, #-20]
 3013 15b8 013083E2 		add	r3, r3, #1
 3014 15bc 14300BE5 		str	r3, [fp, #-20]
 561:../sintesisVoz.c **** 				break;
 3015              		.loc 1 561 0
 3016 15c0 180000EA 		b	.L97
 3017              	.L92:
 562:../sintesisVoz.c **** 		    //Reemplazamos "gü" por "gu"
 563:../sintesisVoz.c **** 			case 'ü':
 564:../sintesisVoz.c **** 				*txtOut++ = *txtIn;
 3018              		.loc 1 564 0
 3019 15c4 10301BE5 		ldr	r3, [fp, #-16]
 3020 15c8 0020D3E5 		ldrb	r2, [r3, #0]	@ zero_extendqisi2
 3021 15cc 14301BE5 		ldr	r3, [fp, #-20]
 3022 15d0 0020C3E5 		strb	r2, [r3, #0]
 3023 15d4 14301BE5 		ldr	r3, [fp, #-20]
 3024 15d8 013083E2 		add	r3, r3, #1
 3025 15dc 14300BE5 		str	r3, [fp, #-20]
 565:../sintesisVoz.c **** 				*txtOut++ = 'u';
 3026              		.loc 1 565 0
 3027 15e0 14301BE5 		ldr	r3, [fp, #-20]
 3028 15e4 7520A0E3 		mov	r2, #117
 3029 15e8 0020C3E5 		strb	r2, [r3, #0]
 3030 15ec 14301BE5 		ldr	r3, [fp, #-20]
 3031 15f0 013083E2 		add	r3, r3, #1
 3032 15f4 14300BE5 		str	r3, [fp, #-20]
 566:../sintesisVoz.c **** 				*txtIn++;
 3033              		.loc 1 566 0
 3034 15f8 10301BE5 		ldr	r3, [fp, #-16]
 3035 15fc 013083E2 		add	r3, r3, #1
 3036 1600 10300BE5 		str	r3, [fp, #-16]
 567:../sintesisVoz.c **** 				break;
 3037              		.loc 1 567 0
 3038 1604 070000EA 		b	.L97
 3039              	.L89:
 568:../sintesisVoz.c ****             default:
 569:../sintesisVoz.c ****             	*txtOut++ = *txtIn;
 3040              		.loc 1 569 0
 3041 1608 10301BE5 		ldr	r3, [fp, #-16]
 3042 160c 0020D3E5 		ldrb	r2, [r3, #0]	@ zero_extendqisi2
 3043 1610 14301BE5 		ldr	r3, [fp, #-20]
 3044 1614 0020C3E5 		strb	r2, [r3, #0]
 3045 1618 14301BE5 		ldr	r3, [fp, #-20]
 3046 161c 013083E2 		add	r3, r3, #1
 3047 1620 14300BE5 		str	r3, [fp, #-20]
 570:../sintesisVoz.c ****             }
 571:../sintesisVoz.c **** 			break;
 3048              		.loc 1 571 0
 3049 1624 BF0000EA 		b	.L50
 3050              	.L97:
 3051 1628 BE0000EA 		b	.L50
 3052              	.L43:
 572:../sintesisVoz.c **** 		//Reemplazamos "ll" por "y"
 573:../sintesisVoz.c **** 		case 'l':
 574:../sintesisVoz.c **** 			if(txtIn[1] == 'l') {
 3053              		.loc 1 574 0
 3054 162c 10301BE5 		ldr	r3, [fp, #-16]
 3055 1630 013083E2 		add	r3, r3, #1
 3056 1634 0030D3E5 		ldrb	r3, [r3, #0]	@ zero_extendqisi2
 3057 1638 6C0053E3 		cmp	r3, #108
 3058 163c 0900001A 		bne	.L98
 575:../sintesisVoz.c **** 				*txtOut++ = 'y';
 3059              		.loc 1 575 0
 3060 1640 14301BE5 		ldr	r3, [fp, #-20]
 3061 1644 7920A0E3 		mov	r2, #121
 3062 1648 0020C3E5 		strb	r2, [r3, #0]
 3063 164c 14301BE5 		ldr	r3, [fp, #-20]
 3064 1650 013083E2 		add	r3, r3, #1
 3065 1654 14300BE5 		str	r3, [fp, #-20]
 576:../sintesisVoz.c **** 				*txtIn++;
 3066              		.loc 1 576 0
 3067 1658 10301BE5 		ldr	r3, [fp, #-16]
 3068 165c 013083E2 		add	r3, r3, #1
 3069 1660 10300BE5 		str	r3, [fp, #-16]
 577:../sintesisVoz.c **** 			}
 578:../sintesisVoz.c **** 			else *txtOut++ = *txtIn;
 579:../sintesisVoz.c **** 			break;
 3070              		.loc 1 579 0
 3071 1664 AF0000EA 		b	.L50
 3072              	.L98:
 578:../sintesisVoz.c **** 			else *txtOut++ = *txtIn;
 3073              		.loc 1 578 0
 3074 1668 10301BE5 		ldr	r3, [fp, #-16]
 3075 166c 0020D3E5 		ldrb	r2, [r3, #0]	@ zero_extendqisi2
 3076 1670 14301BE5 		ldr	r3, [fp, #-20]
 3077 1674 0020C3E5 		strb	r2, [r3, #0]
 3078 1678 14301BE5 		ldr	r3, [fp, #-20]
 3079 167c 013083E2 		add	r3, r3, #1
 3080 1680 14300BE5 		str	r3, [fp, #-20]
 3081              		.loc 1 579 0
 3082 1684 A70000EA 		b	.L50
 3083              	.L45:
 580:../sintesisVoz.c **** 		//Reemplazamos "que", "qui" por "ke", "ki"
 581:../sintesisVoz.c **** 		case 'q':
 582:../sintesisVoz.c ****             switch( txtIn[1] ) {
 3084              		.loc 1 582 0
 3085 1688 10301BE5 		ldr	r3, [fp, #-16]
 3086 168c 013083E2 		add	r3, r3, #1
 3087 1690 0030D3E5 		ldrb	r3, [r3, #0]	@ zero_extendqisi2
 3088 1694 750053E3 		cmp	r3, #117
 3089 1698 2400001A 		bne	.L117
 3090              	.L101:
 583:../sintesisVoz.c ****             case 'u':
 584:../sintesisVoz.c ****                 switch( txtIn[2] ) {
 3091              		.loc 1 584 0
 3092 169c 10301BE5 		ldr	r3, [fp, #-16]
 3093 16a0 023083E2 		add	r3, r3, #2
 3094 16a4 0030D3E5 		ldrb	r3, [r3, #0]	@ zero_extendqisi2
 3095 16a8 650053E3 		cmp	r3, #101
 3096 16ac 0200000A 		beq	.L103
 3097 16b0 690053E3 		cmp	r3, #105
 3098 16b4 0A00000A 		beq	.L104
 3099 16b8 130000EA 		b	.L118
 3100              	.L103:
 585:../sintesisVoz.c ****                 case 'e':
 586:../sintesisVoz.c ****                 	*txtOut++ = 'k';
 3101              		.loc 1 586 0
 3102 16bc 14301BE5 		ldr	r3, [fp, #-20]
 3103 16c0 6B20A0E3 		mov	r2, #107
 3104 16c4 0020C3E5 		strb	r2, [r3, #0]
 3105 16c8 14301BE5 		ldr	r3, [fp, #-20]
 3106 16cc 013083E2 		add	r3, r3, #1
 3107 16d0 14300BE5 		str	r3, [fp, #-20]
 587:../sintesisVoz.c ****                 	*txtIn++;
 3108              		.loc 1 587 0
 3109 16d4 10301BE5 		ldr	r3, [fp, #-16]
 3110 16d8 013083E2 		add	r3, r3, #1
 3111 16dc 10300BE5 		str	r3, [fp, #-16]
 588:../sintesisVoz.c ****                     break;
 3112              		.loc 1 588 0
 3113 16e0 100000EA 		b	.L105
 3114              	.L104:
 589:../sintesisVoz.c ****                 case 'i':
 590:../sintesisVoz.c ****                 	*txtOut++ = 'k';
 3115              		.loc 1 590 0
 3116 16e4 14301BE5 		ldr	r3, [fp, #-20]
 3117 16e8 6B20A0E3 		mov	r2, #107
 3118 16ec 0020C3E5 		strb	r2, [r3, #0]
 3119 16f0 14301BE5 		ldr	r3, [fp, #-20]
 3120 16f4 013083E2 		add	r3, r3, #1
 3121 16f8 14300BE5 		str	r3, [fp, #-20]
 591:../sintesisVoz.c ****                 	*txtIn++;
 3122              		.loc 1 591 0
 3123 16fc 10301BE5 		ldr	r3, [fp, #-16]
 3124 1700 013083E2 		add	r3, r3, #1
 3125 1704 10300BE5 		str	r3, [fp, #-16]
 592:../sintesisVoz.c ****                     break;
 3126              		.loc 1 592 0
 3127 1708 060000EA 		b	.L105
 3128              	.L118:
 593:../sintesisVoz.c ****                 default:
 594:../sintesisVoz.c ****                 	*txtOut++ = *txtIn;
 3129              		.loc 1 594 0
 3130 170c 10301BE5 		ldr	r3, [fp, #-16]
 3131 1710 0020D3E5 		ldrb	r2, [r3, #0]	@ zero_extendqisi2
 3132 1714 14301BE5 		ldr	r3, [fp, #-20]
 3133 1718 0020C3E5 		strb	r2, [r3, #0]
 3134 171c 14301BE5 		ldr	r3, [fp, #-20]
 3135 1720 013083E2 		add	r3, r3, #1
 3136 1724 14300BE5 		str	r3, [fp, #-20]
 3137              	.L105:
 595:../sintesisVoz.c ****                 }
 596:../sintesisVoz.c ****                 break;
 3138              		.loc 1 596 0
 3139 1728 0000A0E1 		mov	r0, r0	@ nop
 597:../sintesisVoz.c ****             default:
 598:../sintesisVoz.c ****             	*txtOut++ = *txtIn;
 599:../sintesisVoz.c ****             }
 600:../sintesisVoz.c **** 			break;
 3140              		.loc 1 600 0
 3141 172c 7D0000EA 		b	.L50
 3142              	.L117:
 598:../sintesisVoz.c ****             	*txtOut++ = *txtIn;
 3143              		.loc 1 598 0
 3144 1730 10301BE5 		ldr	r3, [fp, #-16]
 3145 1734 0020D3E5 		ldrb	r2, [r3, #0]	@ zero_extendqisi2
 3146 1738 14301BE5 		ldr	r3, [fp, #-20]
 3147 173c 0020C3E5 		strb	r2, [r3, #0]
 3148 1740 14301BE5 		ldr	r3, [fp, #-20]
 3149 1744 013083E2 		add	r3, r3, #1
 3150 1748 14300BE5 		str	r3, [fp, #-20]
 3151              		.loc 1 600 0
 3152 174c 750000EA 		b	.L50
 3153              	.L46:
 601:../sintesisVoz.c **** 		//Reemplazamos "rr" por "R"
 602:../sintesisVoz.c **** 		case 'r':
 603:../sintesisVoz.c **** 			if(txtIn[1] == 'r'){
 3154              		.loc 1 603 0
 3155 1750 10301BE5 		ldr	r3, [fp, #-16]
 3156 1754 013083E2 		add	r3, r3, #1
 3157 1758 0030D3E5 		ldrb	r3, [r3, #0]	@ zero_extendqisi2
 3158 175c 720053E3 		cmp	r3, #114
 3159 1760 0900001A 		bne	.L107
 604:../sintesisVoz.c **** 				*txtOut++ = 'R';
 3160              		.loc 1 604 0
 3161 1764 14301BE5 		ldr	r3, [fp, #-20]
 3162 1768 5220A0E3 		mov	r2, #82
 3163 176c 0020C3E5 		strb	r2, [r3, #0]
 3164 1770 14301BE5 		ldr	r3, [fp, #-20]
 3165 1774 013083E2 		add	r3, r3, #1
 3166 1778 14300BE5 		str	r3, [fp, #-20]
 605:../sintesisVoz.c **** 				*txtIn++;
 3167              		.loc 1 605 0
 3168 177c 10301BE5 		ldr	r3, [fp, #-16]
 3169 1780 013083E2 		add	r3, r3, #1
 3170 1784 10300BE5 		str	r3, [fp, #-16]
 606:../sintesisVoz.c **** 			}
 607:../sintesisVoz.c **** 			else *txtOut++ = *txtIn;
 608:../sintesisVoz.c **** 			break;
 3171              		.loc 1 608 0
 3172 1788 660000EA 		b	.L50
 3173              	.L107:
 607:../sintesisVoz.c **** 			else *txtOut++ = *txtIn;
 3174              		.loc 1 607 0
 3175 178c 10301BE5 		ldr	r3, [fp, #-16]
 3176 1790 0020D3E5 		ldrb	r2, [r3, #0]	@ zero_extendqisi2
 3177 1794 14301BE5 		ldr	r3, [fp, #-20]
 3178 1798 0020C3E5 		strb	r2, [r3, #0]
 3179 179c 14301BE5 		ldr	r3, [fp, #-20]
 3180 17a0 013083E2 		add	r3, r3, #1
 3181 17a4 14300BE5 		str	r3, [fp, #-20]
 3182              		.loc 1 608 0
 3183 17a8 5E0000EA 		b	.L50
 3184              	.L48:
 609:../sintesisVoz.c **** 		//Reemplaza "y " por "i"
 610:../sintesisVoz.c **** 		case 'y':
 611:../sintesisVoz.c **** 			if(txtIn[1] == '-'){
 3185              		.loc 1 611 0
 3186 17ac 10301BE5 		ldr	r3, [fp, #-16]
 3187 17b0 013083E2 		add	r3, r3, #1
 3188 17b4 0030D3E5 		ldrb	r3, [r3, #0]	@ zero_extendqisi2
 3189 17b8 2D0053E3 		cmp	r3, #45
 3190 17bc 0900001A 		bne	.L109
 612:../sintesisVoz.c **** 				*txtOut++ = 'i';
 3191              		.loc 1 612 0
 3192 17c0 14301BE5 		ldr	r3, [fp, #-20]
 3193 17c4 6920A0E3 		mov	r2, #105
 3194 17c8 0020C3E5 		strb	r2, [r3, #0]
 3195 17cc 14301BE5 		ldr	r3, [fp, #-20]
 3196 17d0 013083E2 		add	r3, r3, #1
 3197 17d4 14300BE5 		str	r3, [fp, #-20]
 613:../sintesisVoz.c **** 				*txtIn++;
 3198              		.loc 1 613 0
 3199 17d8 10301BE5 		ldr	r3, [fp, #-16]
 3200 17dc 013083E2 		add	r3, r3, #1
 3201 17e0 10300BE5 		str	r3, [fp, #-16]
 614:../sintesisVoz.c **** 			}
 615:../sintesisVoz.c **** 			else *txtOut++ = *txtIn;
 616:../sintesisVoz.c **** 			break;
 3202              		.loc 1 616 0
 3203 17e4 4F0000EA 		b	.L50
 3204              	.L109:
 615:../sintesisVoz.c **** 			else *txtOut++ = *txtIn;
 3205              		.loc 1 615 0
 3206 17e8 10301BE5 		ldr	r3, [fp, #-16]
 3207 17ec 0020D3E5 		ldrb	r2, [r3, #0]	@ zero_extendqisi2
 3208 17f0 14301BE5 		ldr	r3, [fp, #-20]
 3209 17f4 0020C3E5 		strb	r2, [r3, #0]
 3210 17f8 14301BE5 		ldr	r3, [fp, #-20]
 3211 17fc 013083E2 		add	r3, r3, #1
 3212 1800 14300BE5 		str	r3, [fp, #-20]
 3213              		.loc 1 616 0
 3214 1804 470000EA 		b	.L50
 3215              	.L30:
 617:../sintesisVoz.c **** 		//Reemplaza " r" por "R"
 618:../sintesisVoz.c **** 		case '-':
 619:../sintesisVoz.c **** 			if(txtIn[1] == 'r'){
 3216              		.loc 1 619 0
 3217 1808 10301BE5 		ldr	r3, [fp, #-16]
 3218 180c 013083E2 		add	r3, r3, #1
 3219 1810 0030D3E5 		ldrb	r3, [r3, #0]	@ zero_extendqisi2
 3220 1814 720053E3 		cmp	r3, #114
 3221 1818 0900001A 		bne	.L111
 620:../sintesisVoz.c **** 				*txtOut++ = 'R';
 3222              		.loc 1 620 0
 3223 181c 14301BE5 		ldr	r3, [fp, #-20]
 3224 1820 5220A0E3 		mov	r2, #82
 3225 1824 0020C3E5 		strb	r2, [r3, #0]
 3226 1828 14301BE5 		ldr	r3, [fp, #-20]
 3227 182c 013083E2 		add	r3, r3, #1
 3228 1830 14300BE5 		str	r3, [fp, #-20]
 621:../sintesisVoz.c **** 				*txtIn++;
 3229              		.loc 1 621 0
 3230 1834 10301BE5 		ldr	r3, [fp, #-16]
 3231 1838 013083E2 		add	r3, r3, #1
 3232 183c 10300BE5 		str	r3, [fp, #-16]
 622:../sintesisVoz.c **** 			}
 623:../sintesisVoz.c **** 			else *txtOut++ = *txtIn;
 624:../sintesisVoz.c **** 			break;
 3233              		.loc 1 624 0
 3234 1840 380000EA 		b	.L50
 3235              	.L111:
 623:../sintesisVoz.c **** 			else *txtOut++ = *txtIn;
 3236              		.loc 1 623 0
 3237 1844 10301BE5 		ldr	r3, [fp, #-16]
 3238 1848 0020D3E5 		ldrb	r2, [r3, #0]	@ zero_extendqisi2
 3239 184c 14301BE5 		ldr	r3, [fp, #-20]
 3240 1850 0020C3E5 		strb	r2, [r3, #0]
 3241 1854 14301BE5 		ldr	r3, [fp, #-20]
 3242 1858 013083E2 		add	r3, r3, #1
 3243 185c 14300BE5 		str	r3, [fp, #-20]
 3244              		.loc 1 624 0
 3245 1860 300000EA 		b	.L50
 3246              	.L47:
 625:../sintesisVoz.c **** 		//Reemplaza "w" por "gu"
 626:../sintesisVoz.c **** 		case 'w':
 627:../sintesisVoz.c **** 			*txtOut++ = 'g';
 3247              		.loc 1 627 0
 3248 1864 14301BE5 		ldr	r3, [fp, #-20]
 3249 1868 6720A0E3 		mov	r2, #103
 3250 186c 0020C3E5 		strb	r2, [r3, #0]
 3251 1870 14301BE5 		ldr	r3, [fp, #-20]
 3252 1874 013083E2 		add	r3, r3, #1
 3253 1878 14300BE5 		str	r3, [fp, #-20]
 628:../sintesisVoz.c **** 			*txtOut++ = 'u';
 3254              		.loc 1 628 0
 3255 187c 14301BE5 		ldr	r3, [fp, #-20]
 3256 1880 7520A0E3 		mov	r2, #117
 3257 1884 0020C3E5 		strb	r2, [r3, #0]
 3258 1888 14301BE5 		ldr	r3, [fp, #-20]
 3259 188c 013083E2 		add	r3, r3, #1
 3260 1890 14300BE5 		str	r3, [fp, #-20]
 629:../sintesisVoz.c **** 			break;
 3261              		.loc 1 629 0
 3262 1894 230000EA 		b	.L50
 3263              	.L44:
 630:../sintesisVoz.c **** 		//Reemplaza "nr" por "nR"
 631:../sintesisVoz.c **** 		case 'n':
 632:../sintesisVoz.c **** 			if(txtIn[1] == 'r'){
 3264              		.loc 1 632 0
 3265 1898 10301BE5 		ldr	r3, [fp, #-16]
 3266 189c 013083E2 		add	r3, r3, #1
 3267 18a0 0030D3E5 		ldrb	r3, [r3, #0]	@ zero_extendqisi2
 3268 18a4 720053E3 		cmp	r3, #114
 3269 18a8 0F00001A 		bne	.L113
 633:../sintesisVoz.c **** 				*txtOut++ = 'n';
 3270              		.loc 1 633 0
 3271 18ac 14301BE5 		ldr	r3, [fp, #-20]
 3272 18b0 6E20A0E3 		mov	r2, #110
 3273 18b4 0020C3E5 		strb	r2, [r3, #0]
 3274 18b8 14301BE5 		ldr	r3, [fp, #-20]
 3275 18bc 013083E2 		add	r3, r3, #1
 3276 18c0 14300BE5 		str	r3, [fp, #-20]
 634:../sintesisVoz.c **** 				*txtOut++ = 'R';
 3277              		.loc 1 634 0
 3278 18c4 14301BE5 		ldr	r3, [fp, #-20]
 3279 18c8 5220A0E3 		mov	r2, #82
 3280 18cc 0020C3E5 		strb	r2, [r3, #0]
 3281 18d0 14301BE5 		ldr	r3, [fp, #-20]
 3282 18d4 013083E2 		add	r3, r3, #1
 3283 18d8 14300BE5 		str	r3, [fp, #-20]
 635:../sintesisVoz.c **** 				*txtIn++;
 3284              		.loc 1 635 0
 3285 18dc 10301BE5 		ldr	r3, [fp, #-16]
 3286 18e0 013083E2 		add	r3, r3, #1
 3287 18e4 10300BE5 		str	r3, [fp, #-16]
 636:../sintesisVoz.c **** 			}
 637:../sintesisVoz.c **** 			else *txtOut++ = *txtIn;
 638:../sintesisVoz.c **** 			break;
 3288              		.loc 1 638 0
 3289 18e8 0E0000EA 		b	.L50
 3290              	.L113:
 637:../sintesisVoz.c **** 			else *txtOut++ = *txtIn;
 3291              		.loc 1 637 0
 3292 18ec 10301BE5 		ldr	r3, [fp, #-16]
 3293 18f0 0020D3E5 		ldrb	r2, [r3, #0]	@ zero_extendqisi2
 3294 18f4 14301BE5 		ldr	r3, [fp, #-20]
 3295 18f8 0020C3E5 		strb	r2, [r3, #0]
 3296 18fc 14301BE5 		ldr	r3, [fp, #-20]
 3297 1900 013083E2 		add	r3, r3, #1
 3298 1904 14300BE5 		str	r3, [fp, #-20]
 3299              		.loc 1 638 0
 3300 1908 060000EA 		b	.L50
 3301              	.L29:
 639:../sintesisVoz.c **** 		default:
 640:../sintesisVoz.c ****             *txtOut++ = *txtIn;
 3302              		.loc 1 640 0
 3303 190c 10301BE5 		ldr	r3, [fp, #-16]
 3304 1910 0020D3E5 		ldrb	r2, [r3, #0]	@ zero_extendqisi2
 3305 1914 14301BE5 		ldr	r3, [fp, #-20]
 3306 1918 0020C3E5 		strb	r2, [r3, #0]
 3307 191c 14301BE5 		ldr	r3, [fp, #-20]
 3308 1920 013083E2 		add	r3, r3, #1
 3309 1924 14300BE5 		str	r3, [fp, #-20]
 3310              	.L50:
 641:../sintesisVoz.c ****         }
 642:../sintesisVoz.c ****         *txtIn++;
 3311              		.loc 1 642 0
 3312 1928 10301BE5 		ldr	r3, [fp, #-16]
 3313 192c 013083E2 		add	r3, r3, #1
 3314 1930 10300BE5 		str	r3, [fp, #-16]
 3315              	.L28:
 331:../sintesisVoz.c ****     while( *txtIn ) {
 3316              		.loc 1 331 0 discriminator 1
 3317 1934 10301BE5 		ldr	r3, [fp, #-16]
 3318 1938 0030D3E5 		ldrb	r3, [r3, #0]	@ zero_extendqisi2
 3319 193c 000053E3 		cmp	r3, #0
 3320 1940 ABFAFF1A 		bne	.L115
 643:../sintesisVoz.c ****     }
 644:../sintesisVoz.c ****     *txtOut = '\0';
 3321              		.loc 1 644 0
 3322 1944 14301BE5 		ldr	r3, [fp, #-20]
 3323 1948 0020A0E3 		mov	r2, #0
 3324 194c 0020C3E5 		strb	r2, [r3, #0]
 645:../sintesisVoz.c **** }
 3325              		.loc 1 645 0
 3326 1950 0CD04BE2 		sub	sp, fp, #12
 3327 1954 00689DE8 		ldmfd	sp, {fp, sp, lr}
 3328 1958 1EFF2FE1 		bx	lr
 3329              	.L120:
 3330              		.align	2
 3331              	.L119:
 3332 195c 00080280 		.word	-2147350528
 3333              		.cfi_endproc
 3334              	.LFE2:
 3336              		.align	2
 3338              	getSyllableId:
 3339              	.LFB3:
 646:../sintesisVoz.c **** 
 647:../sintesisVoz.c **** /*
 648:../sintesisVoz.c **** Asumiento que es un texto correcto en español, extrae una sílaba del texto y devuelve su identifica
 649:../sintesisVoz.c **** */
 650:../sintesisVoz.c **** static char *getSyllableId( char *txt, syllableId_t *id )
 651:../sintesisVoz.c **** {
 3340              		.loc 1 651 0
 3341              		.cfi_startproc
 3342              		@ Function supports interworking.
 3343              		@ args = 0, pretend = 0, frame = 8
 3344              		@ frame_needed = 1, uses_anonymous_args = 0
 3345 1960 0DC0A0E1 		mov	ip, sp
 3346              	.LCFI6:
 3347              		.cfi_def_cfa_register 12
 3348 1964 00D82DE9 		stmfd	sp!, {fp, ip, lr, pc}
 3349 1968 04B04CE2 		sub	fp, ip, #4
 3350              		.cfi_offset 14, -8
 3351              		.cfi_offset 13, -12
 3352              		.cfi_offset 11, -16
 3353              	.LCFI7:
 3354              		.cfi_def_cfa 11, 4
 3355 196c 08D04DE2 		sub	sp, sp, #8
 3356 1970 10000BE5 		str	r0, [fp, #-16]
 3357 1974 14100BE5 		str	r1, [fp, #-20]
 652:../sintesisVoz.c ****     if( !*txt )
 3358              		.loc 1 652 0
 3359 1978 10301BE5 		ldr	r3, [fp, #-16]
 3360 197c 0030D3E5 		ldrb	r3, [r3, #0]	@ zero_extendqisi2
 3361 1980 000053E3 		cmp	r3, #0
 3362 1984 0100001A 		bne	.L122
 653:../sintesisVoz.c ****         return NULL;
 3363              		.loc 1 653 0
 3364 1988 0030A0E3 		mov	r3, #0
 3365 198c AF0700EA 		b	.L123
 3366              	.L122:
 654:../sintesisVoz.c ****     else if( esPuntuacion( txt[0] ) ) {                                                  // mudos (
 3367              		.loc 1 654 0
 3368 1990 10301BE5 		ldr	r3, [fp, #-16]
 3369 1994 0030D3E5 		ldrb	r3, [r3, #0]	@ zero_extendqisi2
 3370 1998 0300A0E1 		mov	r0, r3
 3371 199c AF0700EB 		bl	esPuntuacion
 3372 19a0 0030A0E1 		mov	r3, r0
 3373 19a4 000053E3 		cmp	r3, #0
 3374 19a8 1700000A 		beq	.L124
 655:../sintesisVoz.c ****         switch( txt[0] ) {
 3375              		.loc 1 655 0
 3376 19ac 10301BE5 		ldr	r3, [fp, #-16]
 3377 19b0 0030D3E5 		ldrb	r3, [r3, #0]	@ zero_extendqisi2
 3378 19b4 2D0053E3 		cmp	r3, #45
 3379 19b8 0400000A 		beq	.L127
 3380 19bc 2E0053E3 		cmp	r3, #46
 3381 19c0 0A00000A 		beq	.L128
 3382 19c4 2C0053E3 		cmp	r3, #44
 3383 19c8 0400000A 		beq	.L126
 3384 19cc 0B0000EA 		b	.L125
 3385              	.L127:
 656:../sintesisVoz.c ****         case '-': *id = espacio; break;
 3386              		.loc 1 656 0
 3387 19d0 14301BE5 		ldr	r3, [fp, #-20]
 3388 19d4 4C20E0E3 		mvn	r2, #76
 3389 19d8 0020C3E5 		strb	r2, [r3, #0]
 3390 19dc 070000EA 		b	.L125
 3391              	.L126:
 657:../sintesisVoz.c ****         case ',': *id = coma; break;
 3392              		.loc 1 657 0
 3393 19e0 14301BE5 		ldr	r3, [fp, #-20]
 3394 19e4 4B20E0E3 		mvn	r2, #75
 3395 19e8 0020C3E5 		strb	r2, [r3, #0]
 3396 19ec 030000EA 		b	.L125
 3397              	.L128:
 658:../sintesisVoz.c ****         case '.': *id = punto; break;
 3398              		.loc 1 658 0
 3399 19f0 14301BE5 		ldr	r3, [fp, #-20]
 3400 19f4 4A20E0E3 		mvn	r2, #74
 3401 19f8 0020C3E5 		strb	r2, [r3, #0]
 3402 19fc 0000A0E1 		mov	r0, r0	@ nop
 3403              	.L125:
 659:../sintesisVoz.c ****         }
 660:../sintesisVoz.c ****         return txt+1;
 3404              		.loc 1 660 0
 3405 1a00 10301BE5 		ldr	r3, [fp, #-16]
 3406 1a04 013083E2 		add	r3, r3, #1
 3407 1a08 900700EA 		b	.L123
 3408              	.L124:
 661:../sintesisVoz.c ****     } else if( esVocal( txt[0] ) ) {                                                     // vocales
 3409              		.loc 1 661 0
 3410 1a0c 10301BE5 		ldr	r3, [fp, #-16]
 3411 1a10 0030D3E5 		ldrb	r3, [r3, #0]	@ zero_extendqisi2
 3412 1a14 0300A0E1 		mov	r0, r3
 3413 1a18 A10700EB 		bl	esVocal
 3414 1a1c 0030A0E1 		mov	r3, r0
 3415 1a20 000053E3 		cmp	r3, #0
 3416 1a24 3100000A 		beq	.L129
 662:../sintesisVoz.c ****     	switch( txt[0] ) {
 3417              		.loc 1 662 0
 3418 1a28 10301BE5 		ldr	r3, [fp, #-16]
 3419 1a2c 0030D3E5 		ldrb	r3, [r3, #0]	@ zero_extendqisi2
 3420 1a30 613043E2 		sub	r3, r3, #97
 3421 1a34 140053E3 		cmp	r3, #20
 3422 1a38 03F19F97 		ldrls	pc, [pc, r3, asl #2]
 3423 1a3c 280000EA 		b	.L130
 3424              	.L136:
 3425 1a40 941A0000 		.word	.L131
 3426 1a44 E41A0000 		.word	.L130
 3427 1a48 E41A0000 		.word	.L130
 3428 1a4c E41A0000 		.word	.L130
 3429 1a50 A41A0000 		.word	.L132
 3430 1a54 E41A0000 		.word	.L130
 3431 1a58 E41A0000 		.word	.L130
 3432 1a5c E41A0000 		.word	.L130
 3433 1a60 B41A0000 		.word	.L133
 3434 1a64 E41A0000 		.word	.L130
 3435 1a68 E41A0000 		.word	.L130
 3436 1a6c E41A0000 		.word	.L130
 3437 1a70 E41A0000 		.word	.L130
 3438 1a74 E41A0000 		.word	.L130
 3439 1a78 C41A0000 		.word	.L134
 3440 1a7c E41A0000 		.word	.L130
 3441 1a80 E41A0000 		.word	.L130
 3442 1a84 E41A0000 		.word	.L130
 3443 1a88 E41A0000 		.word	.L130
 3444 1a8c E41A0000 		.word	.L130
 3445 1a90 D41A0000 		.word	.L135
 3446              	.L131:
 663:../sintesisVoz.c **** 			case 'a': *id = a; break;
 3447              		.loc 1 663 0
 3448 1a94 14301BE5 		ldr	r3, [fp, #-20]
 3449 1a98 0020A0E3 		mov	r2, #0
 3450 1a9c 0020C3E5 		strb	r2, [r3, #0]
 3451 1aa0 0F0000EA 		b	.L130
 3452              	.L132:
 664:../sintesisVoz.c **** 			case 'e': *id = e; break;
 3453              		.loc 1 664 0
 3454 1aa4 14301BE5 		ldr	r3, [fp, #-20]
 3455 1aa8 0120A0E3 		mov	r2, #1
 3456 1aac 0020C3E5 		strb	r2, [r3, #0]
 3457 1ab0 0B0000EA 		b	.L130
 3458              	.L133:
 665:../sintesisVoz.c **** 			case 'i': *id = i; break;
 3459              		.loc 1 665 0
 3460 1ab4 14301BE5 		ldr	r3, [fp, #-20]
 3461 1ab8 0220A0E3 		mov	r2, #2
 3462 1abc 0020C3E5 		strb	r2, [r3, #0]
 3463 1ac0 070000EA 		b	.L130
 3464              	.L134:
 666:../sintesisVoz.c **** 			case 'o': *id = o; break;
 3465              		.loc 1 666 0
 3466 1ac4 14301BE5 		ldr	r3, [fp, #-20]
 3467 1ac8 0320A0E3 		mov	r2, #3
 3468 1acc 0020C3E5 		strb	r2, [r3, #0]
 3469 1ad0 030000EA 		b	.L130
 3470              	.L135:
 667:../sintesisVoz.c **** 			case 'u': *id = u; break;
 3471              		.loc 1 667 0
 3472 1ad4 14301BE5 		ldr	r3, [fp, #-20]
 3473 1ad8 0420A0E3 		mov	r2, #4
 3474 1adc 0020C3E5 		strb	r2, [r3, #0]
 3475 1ae0 0000A0E1 		mov	r0, r0	@ nop
 3476              	.L130:
 668:../sintesisVoz.c ****     	}
 669:../sintesisVoz.c ****     	return txt+1;
 3477              		.loc 1 669 0
 3478 1ae4 10301BE5 		ldr	r3, [fp, #-16]
 3479 1ae8 013083E2 		add	r3, r3, #1
 3480 1aec 570700EA 		b	.L123
 3481              	.L129:
 670:../sintesisVoz.c ****     } else if( esConsonante( txt[0] ) && esVocal( txt[1] ) ) {                           // consont
 3482              		.loc 1 670 0
 3483 1af0 10301BE5 		ldr	r3, [fp, #-16]
 3484 1af4 0030D3E5 		ldrb	r3, [r3, #0]	@ zero_extendqisi2
 3485 1af8 0300A0E1 		mov	r0, r3
 3486 1afc 7E0700EB 		bl	esConsonante
 3487 1b00 0030A0E1 		mov	r3, r0
 3488 1b04 000053E3 		cmp	r3, #0
 3489 1b08 0B04000A 		beq	.L137
 3490              		.loc 1 670 0 is_stmt 0 discriminator 1
 3491 1b0c 10301BE5 		ldr	r3, [fp, #-16]
 3492 1b10 013083E2 		add	r3, r3, #1
 3493 1b14 0030D3E5 		ldrb	r3, [r3, #0]	@ zero_extendqisi2
 3494 1b18 0300A0E1 		mov	r0, r3
 3495 1b1c 600700EB 		bl	esVocal
 3496 1b20 0030A0E1 		mov	r3, r0
 3497 1b24 000053E3 		cmp	r3, #0
 3498 1b28 0304000A 		beq	.L137
 671:../sintesisVoz.c ****         switch( txt[0] ) {
 3499              		.loc 1 671 0 is_stmt 1
 3500 1b2c 10301BE5 		ldr	r3, [fp, #-16]
 3501 1b30 0030D3E5 		ldrb	r3, [r3, #0]	@ zero_extendqisi2
 3502 1b34 483043E2 		sub	r3, r3, #72
 3503 1b38 320053E3 		cmp	r3, #50
 3504 1b3c 03F19F97 		ldrls	pc, [pc, r3, asl #2]
 3505 1b40 FA0300EA 		b	.L138
 3506              	.L158:
 3507 1b44 D8290000 		.word	.L139
 3508 1b48 302B0000 		.word	.L138
 3509 1b4c 302B0000 		.word	.L138
 3510 1b50 302B0000 		.word	.L138
 3511 1b54 302B0000 		.word	.L138
 3512 1b58 302B0000 		.word	.L138
 3513 1b5c F4220000 		.word	.L140
 3514 1b60 302B0000 		.word	.L138
 3515 1b64 302B0000 		.word	.L138
 3516 1b68 302B0000 		.word	.L138
 3517 1b6c 40250000 		.word	.L141
 3518 1b70 302B0000 		.word	.L138
 3519 1b74 302B0000 		.word	.L138
 3520 1b78 302B0000 		.word	.L138
 3521 1b7c 302B0000 		.word	.L138
 3522 1b80 302B0000 		.word	.L138
 3523 1b84 302B0000 		.word	.L138
 3524 1b88 302B0000 		.word	.L138
 3525 1b8c 302B0000 		.word	.L138
 3526 1b90 302B0000 		.word	.L138
 3527 1b94 302B0000 		.word	.L138
 3528 1b98 302B0000 		.word	.L138
 3529 1b9c 302B0000 		.word	.L138
 3530 1ba0 302B0000 		.word	.L138
 3531 1ba4 302B0000 		.word	.L138
 3532 1ba8 302B0000 		.word	.L138
 3533 1bac 101C0000 		.word	.L142
 3534 1bb0 302B0000 		.word	.L138
 3535 1bb4 D41C0000 		.word	.L143
 3536 1bb8 302B0000 		.word	.L138
 3537 1bbc 981D0000 		.word	.L144
 3538 1bc0 5C1E0000 		.word	.L145
 3539 1bc4 302B0000 		.word	.L138
 3540 1bc8 302B0000 		.word	.L138
 3541 1bcc 201F0000 		.word	.L146
 3542 1bd0 E41F0000 		.word	.L147
 3543 1bd4 A8200000 		.word	.L148
 3544 1bd8 6C210000 		.word	.L149
 3545 1bdc 30220000 		.word	.L150
 3546 1be0 302B0000 		.word	.L138
 3547 1be4 B8230000 		.word	.L151
 3548 1be8 302B0000 		.word	.L138
 3549 1bec 7C240000 		.word	.L152
 3550 1bf0 04260000 		.word	.L153
 3551 1bf4 C8260000 		.word	.L154
 3552 1bf8 302B0000 		.word	.L138
 3553 1bfc 302B0000 		.word	.L138
 3554 1c00 302B0000 		.word	.L138
 3555 1c04 8C270000 		.word	.L155
 3556 1c08 50280000 		.word	.L156
 3557 1c0c 14290000 		.word	.L157
 3558              	.L142:
 672:../sintesisVoz.c ****         case 'b':
 673:../sintesisVoz.c ****             switch( txt[1] ) {
 3559              		.loc 1 673 0
 3560 1c10 10301BE5 		ldr	r3, [fp, #-16]
 3561 1c14 013083E2 		add	r3, r3, #1
 3562 1c18 0030D3E5 		ldrb	r3, [r3, #0]	@ zero_extendqisi2
 3563 1c1c 613043E2 		sub	r3, r3, #97
 3564 1c20 140053E3 		cmp	r3, #20
 3565 1c24 03F19F97 		ldrls	pc, [pc, r3, asl #2]
 3566 1c28 9B0300EA 		b	.L415
 3567              	.L165:
 3568 1c2c 801C0000 		.word	.L160
 3569 1c30 9C2A0000 		.word	.L415
 3570 1c34 9C2A0000 		.word	.L415
 3571 1c38 9C2A0000 		.word	.L415
 3572 1c3c 901C0000 		.word	.L161
 3573 1c40 9C2A0000 		.word	.L415
 3574 1c44 9C2A0000 		.word	.L415
 3575 1c48 9C2A0000 		.word	.L415
 3576 1c4c A01C0000 		.word	.L162
 3577 1c50 9C2A0000 		.word	.L415
 3578 1c54 9C2A0000 		.word	.L415
 3579 1c58 9C2A0000 		.word	.L415
 3580 1c5c 9C2A0000 		.word	.L415
 3581 1c60 9C2A0000 		.word	.L415
 3582 1c64 B01C0000 		.word	.L163
 3583 1c68 9C2A0000 		.word	.L415
 3584 1c6c 9C2A0000 		.word	.L415
 3585 1c70 9C2A0000 		.word	.L415
 3586 1c74 9C2A0000 		.word	.L415
 3587 1c78 9C2A0000 		.word	.L415
 3588 1c7c C01C0000 		.word	.L164
 3589              	.L160:
 674:../sintesisVoz.c ****             case 'a': *id = ba; break;
 3590              		.loc 1 674 0
 3591 1c80 14301BE5 		ldr	r3, [fp, #-20]
 3592 1c84 1820A0E3 		mov	r2, #24
 3593 1c88 0020C3E5 		strb	r2, [r3, #0]
 3594 1c8c 0F0000EA 		b	.L159
 3595              	.L161:
 675:../sintesisVoz.c ****             case 'e': *id = be; break;
 3596              		.loc 1 675 0
 3597 1c90 14301BE5 		ldr	r3, [fp, #-20]
 3598 1c94 1920A0E3 		mov	r2, #25
 3599 1c98 0020C3E5 		strb	r2, [r3, #0]
 3600 1c9c 0B0000EA 		b	.L159
 3601              	.L162:
 676:../sintesisVoz.c ****             case 'i': *id = bi; break;
 3602              		.loc 1 676 0
 3603 1ca0 14301BE5 		ldr	r3, [fp, #-20]
 3604 1ca4 1A20A0E3 		mov	r2, #26
 3605 1ca8 0020C3E5 		strb	r2, [r3, #0]
 3606 1cac 070000EA 		b	.L159
 3607              	.L163:
 677:../sintesisVoz.c ****             case 'o': *id = bo; break;
 3608              		.loc 1 677 0
 3609 1cb0 14301BE5 		ldr	r3, [fp, #-20]
 3610 1cb4 1B20A0E3 		mov	r2, #27
 3611 1cb8 0020C3E5 		strb	r2, [r3, #0]
 3612 1cbc 030000EA 		b	.L159
 3613              	.L164:
 678:../sintesisVoz.c ****             case 'u': *id = bu; break;
 3614              		.loc 1 678 0
 3615 1cc0 14301BE5 		ldr	r3, [fp, #-20]
 3616 1cc4 1C20A0E3 		mov	r2, #28
 3617 1cc8 0020C3E5 		strb	r2, [r3, #0]
 3618 1ccc 0000A0E1 		mov	r0, r0	@ nop
 3619              	.L159:
 679:../sintesisVoz.c ****             }
 680:../sintesisVoz.c ****             break;
 3620              		.loc 1 680 0
 3621 1cd0 960300EA 		b	.L138
 3622              	.L143:
 681:../sintesisVoz.c **** 		case 'd':
 682:../sintesisVoz.c **** 			switch( txt[1] ) {
 3623              		.loc 1 682 0
 3624 1cd4 10301BE5 		ldr	r3, [fp, #-16]
 3625 1cd8 013083E2 		add	r3, r3, #1
 3626 1cdc 0030D3E5 		ldrb	r3, [r3, #0]	@ zero_extendqisi2
 3627 1ce0 613043E2 		sub	r3, r3, #97
 3628 1ce4 140053E3 		cmp	r3, #20
 3629 1ce8 03F19F97 		ldrls	pc, [pc, r3, asl #2]
 3630 1cec 6C0300EA 		b	.L416
 3631              	.L172:
 3632 1cf0 441D0000 		.word	.L167
 3633 1cf4 A42A0000 		.word	.L416
 3634 1cf8 A42A0000 		.word	.L416
 3635 1cfc A42A0000 		.word	.L416
 3636 1d00 541D0000 		.word	.L168
 3637 1d04 A42A0000 		.word	.L416
 3638 1d08 A42A0000 		.word	.L416
 3639 1d0c A42A0000 		.word	.L416
 3640 1d10 641D0000 		.word	.L169
 3641 1d14 A42A0000 		.word	.L416
 3642 1d18 A42A0000 		.word	.L416
 3643 1d1c A42A0000 		.word	.L416
 3644 1d20 A42A0000 		.word	.L416
 3645 1d24 A42A0000 		.word	.L416
 3646 1d28 741D0000 		.word	.L170
 3647 1d2c A42A0000 		.word	.L416
 3648 1d30 A42A0000 		.word	.L416
 3649 1d34 A42A0000 		.word	.L416
 3650 1d38 A42A0000 		.word	.L416
 3651 1d3c A42A0000 		.word	.L416
 3652 1d40 841D0000 		.word	.L171
 3653              	.L167:
 683:../sintesisVoz.c **** 			case 'a': *id = da; break;
 3654              		.loc 1 683 0
 3655 1d44 14301BE5 		ldr	r3, [fp, #-20]
 3656 1d48 1D20A0E3 		mov	r2, #29
 3657 1d4c 0020C3E5 		strb	r2, [r3, #0]
 3658 1d50 0F0000EA 		b	.L166
 3659              	.L168:
 684:../sintesisVoz.c **** 			case 'e': *id = de; break;
 3660              		.loc 1 684 0
 3661 1d54 14301BE5 		ldr	r3, [fp, #-20]
 3662 1d58 1E20A0E3 		mov	r2, #30
 3663 1d5c 0020C3E5 		strb	r2, [r3, #0]
 3664 1d60 0B0000EA 		b	.L166
 3665              	.L169:
 685:../sintesisVoz.c **** 			case 'i': *id = di; break;
 3666              		.loc 1 685 0
 3667 1d64 14301BE5 		ldr	r3, [fp, #-20]
 3668 1d68 1F20A0E3 		mov	r2, #31
 3669 1d6c 0020C3E5 		strb	r2, [r3, #0]
 3670 1d70 070000EA 		b	.L166
 3671              	.L170:
 686:../sintesisVoz.c **** 			case 'o': *id = Do; break;
 3672              		.loc 1 686 0
 3673 1d74 14301BE5 		ldr	r3, [fp, #-20]
 3674 1d78 2020A0E3 		mov	r2, #32
 3675 1d7c 0020C3E5 		strb	r2, [r3, #0]
 3676 1d80 030000EA 		b	.L166
 3677              	.L171:
 687:../sintesisVoz.c **** 			case 'u': *id = du; break;
 3678              		.loc 1 687 0
 3679 1d84 14301BE5 		ldr	r3, [fp, #-20]
 3680 1d88 2120A0E3 		mov	r2, #33
 3681 1d8c 0020C3E5 		strb	r2, [r3, #0]
 3682 1d90 0000A0E1 		mov	r0, r0	@ nop
 3683              	.L166:
 688:../sintesisVoz.c **** 			}
 689:../sintesisVoz.c **** 			break;
 3684              		.loc 1 689 0
 3685 1d94 650300EA 		b	.L138
 3686              	.L144:
 690:../sintesisVoz.c **** 		case 'f':
 691:../sintesisVoz.c **** 			switch( txt[1] ) {
 3687              		.loc 1 691 0
 3688 1d98 10301BE5 		ldr	r3, [fp, #-16]
 3689 1d9c 013083E2 		add	r3, r3, #1
 3690 1da0 0030D3E5 		ldrb	r3, [r3, #0]	@ zero_extendqisi2
 3691 1da4 613043E2 		sub	r3, r3, #97
 3692 1da8 140053E3 		cmp	r3, #20
 3693 1dac 03F19F97 		ldrls	pc, [pc, r3, asl #2]
 3694 1db0 3D0300EA 		b	.L417
 3695              	.L179:
 3696 1db4 081E0000 		.word	.L174
 3697 1db8 AC2A0000 		.word	.L417
 3698 1dbc AC2A0000 		.word	.L417
 3699 1dc0 AC2A0000 		.word	.L417
 3700 1dc4 181E0000 		.word	.L175
 3701 1dc8 AC2A0000 		.word	.L417
 3702 1dcc AC2A0000 		.word	.L417
 3703 1dd0 AC2A0000 		.word	.L417
 3704 1dd4 281E0000 		.word	.L176
 3705 1dd8 AC2A0000 		.word	.L417
 3706 1ddc AC2A0000 		.word	.L417
 3707 1de0 AC2A0000 		.word	.L417
 3708 1de4 AC2A0000 		.word	.L417
 3709 1de8 AC2A0000 		.word	.L417
 3710 1dec 381E0000 		.word	.L177
 3711 1df0 AC2A0000 		.word	.L417
 3712 1df4 AC2A0000 		.word	.L417
 3713 1df8 AC2A0000 		.word	.L417
 3714 1dfc AC2A0000 		.word	.L417
 3715 1e00 AC2A0000 		.word	.L417
 3716 1e04 481E0000 		.word	.L178
 3717              	.L174:
 692:../sintesisVoz.c **** 			case 'a': *id = fa; break;
 3718              		.loc 1 692 0
 3719 1e08 14301BE5 		ldr	r3, [fp, #-20]
 3720 1e0c 2220A0E3 		mov	r2, #34
 3721 1e10 0020C3E5 		strb	r2, [r3, #0]
 3722 1e14 0F0000EA 		b	.L173
 3723              	.L175:
 693:../sintesisVoz.c **** 			case 'e': *id = fe; break;
 3724              		.loc 1 693 0
 3725 1e18 14301BE5 		ldr	r3, [fp, #-20]
 3726 1e1c 2320A0E3 		mov	r2, #35
 3727 1e20 0020C3E5 		strb	r2, [r3, #0]
 3728 1e24 0B0000EA 		b	.L173
 3729              	.L176:
 694:../sintesisVoz.c **** 			case 'i': *id = fi; break;
 3730              		.loc 1 694 0
 3731 1e28 14301BE5 		ldr	r3, [fp, #-20]
 3732 1e2c 2420A0E3 		mov	r2, #36
 3733 1e30 0020C3E5 		strb	r2, [r3, #0]
 3734 1e34 070000EA 		b	.L173
 3735              	.L177:
 695:../sintesisVoz.c **** 			case 'o': *id = fo; break;
 3736              		.loc 1 695 0
 3737 1e38 14301BE5 		ldr	r3, [fp, #-20]
 3738 1e3c 2520A0E3 		mov	r2, #37
 3739 1e40 0020C3E5 		strb	r2, [r3, #0]
 3740 1e44 030000EA 		b	.L173
 3741              	.L178:
 696:../sintesisVoz.c **** 			case 'u': *id = fu; break;
 3742              		.loc 1 696 0
 3743 1e48 14301BE5 		ldr	r3, [fp, #-20]
 3744 1e4c 2620A0E3 		mov	r2, #38
 3745 1e50 0020C3E5 		strb	r2, [r3, #0]
 3746 1e54 0000A0E1 		mov	r0, r0	@ nop
 3747              	.L173:
 697:../sintesisVoz.c **** 			}
 698:../sintesisVoz.c **** 			break;
 3748              		.loc 1 698 0
 3749 1e58 340300EA 		b	.L138
 3750              	.L145:
 699:../sintesisVoz.c **** 		case 'g':
 700:../sintesisVoz.c **** 			switch( txt[1] ) {
 3751              		.loc 1 700 0
 3752 1e5c 10301BE5 		ldr	r3, [fp, #-16]
 3753 1e60 013083E2 		add	r3, r3, #1
 3754 1e64 0030D3E5 		ldrb	r3, [r3, #0]	@ zero_extendqisi2
 3755 1e68 613043E2 		sub	r3, r3, #97
 3756 1e6c 140053E3 		cmp	r3, #20
 3757 1e70 03F19F97 		ldrls	pc, [pc, r3, asl #2]
 3758 1e74 0E0300EA 		b	.L418
 3759              	.L186:
 3760 1e78 CC1E0000 		.word	.L181
 3761 1e7c B42A0000 		.word	.L418
 3762 1e80 B42A0000 		.word	.L418
 3763 1e84 B42A0000 		.word	.L418
 3764 1e88 DC1E0000 		.word	.L182
 3765 1e8c B42A0000 		.word	.L418
 3766 1e90 B42A0000 		.word	.L418
 3767 1e94 B42A0000 		.word	.L418
 3768 1e98 EC1E0000 		.word	.L183
 3769 1e9c B42A0000 		.word	.L418
 3770 1ea0 B42A0000 		.word	.L418
 3771 1ea4 B42A0000 		.word	.L418
 3772 1ea8 B42A0000 		.word	.L418
 3773 1eac B42A0000 		.word	.L418
 3774 1eb0 FC1E0000 		.word	.L184
 3775 1eb4 B42A0000 		.word	.L418
 3776 1eb8 B42A0000 		.word	.L418
 3777 1ebc B42A0000 		.word	.L418
 3778 1ec0 B42A0000 		.word	.L418
 3779 1ec4 B42A0000 		.word	.L418
 3780 1ec8 0C1F0000 		.word	.L185
 3781              	.L181:
 701:../sintesisVoz.c **** 			case 'a': *id = ga; break;
 3782              		.loc 1 701 0
 3783 1ecc 14301BE5 		ldr	r3, [fp, #-20]
 3784 1ed0 2720A0E3 		mov	r2, #39
 3785 1ed4 0020C3E5 		strb	r2, [r3, #0]
 3786 1ed8 0F0000EA 		b	.L180
 3787              	.L182:
 702:../sintesisVoz.c **** 			case 'e': *id = ge; break;
 3788              		.loc 1 702 0
 3789 1edc 14301BE5 		ldr	r3, [fp, #-20]
 3790 1ee0 2820A0E3 		mov	r2, #40
 3791 1ee4 0020C3E5 		strb	r2, [r3, #0]
 3792 1ee8 0B0000EA 		b	.L180
 3793              	.L183:
 703:../sintesisVoz.c **** 			case 'i': *id = gi; break;
 3794              		.loc 1 703 0
 3795 1eec 14301BE5 		ldr	r3, [fp, #-20]
 3796 1ef0 2920A0E3 		mov	r2, #41
 3797 1ef4 0020C3E5 		strb	r2, [r3, #0]
 3798 1ef8 070000EA 		b	.L180
 3799              	.L184:
 704:../sintesisVoz.c **** 			case 'o': *id = go; break;
 3800              		.loc 1 704 0
 3801 1efc 14301BE5 		ldr	r3, [fp, #-20]
 3802 1f00 2A20A0E3 		mov	r2, #42
 3803 1f04 0020C3E5 		strb	r2, [r3, #0]
 3804 1f08 030000EA 		b	.L180
 3805              	.L185:
 705:../sintesisVoz.c **** 			case 'u': *id = gu; break;
 3806              		.loc 1 705 0
 3807 1f0c 14301BE5 		ldr	r3, [fp, #-20]
 3808 1f10 2B20A0E3 		mov	r2, #43
 3809 1f14 0020C3E5 		strb	r2, [r3, #0]
 3810 1f18 0000A0E1 		mov	r0, r0	@ nop
 3811              	.L180:
 706:../sintesisVoz.c **** 			}
 707:../sintesisVoz.c **** 			break;
 3812              		.loc 1 707 0
 3813 1f1c 030300EA 		b	.L138
 3814              	.L146:
 708:../sintesisVoz.c **** 		case 'j':
 709:../sintesisVoz.c **** 			switch( txt[1] ) {
 3815              		.loc 1 709 0
 3816 1f20 10301BE5 		ldr	r3, [fp, #-16]
 3817 1f24 013083E2 		add	r3, r3, #1
 3818 1f28 0030D3E5 		ldrb	r3, [r3, #0]	@ zero_extendqisi2
 3819 1f2c 613043E2 		sub	r3, r3, #97
 3820 1f30 140053E3 		cmp	r3, #20
 3821 1f34 03F19F97 		ldrls	pc, [pc, r3, asl #2]
 3822 1f38 DF0200EA 		b	.L419
 3823              	.L193:
 3824 1f3c 901F0000 		.word	.L188
 3825 1f40 BC2A0000 		.word	.L419
 3826 1f44 BC2A0000 		.word	.L419
 3827 1f48 BC2A0000 		.word	.L419
 3828 1f4c A01F0000 		.word	.L189
 3829 1f50 BC2A0000 		.word	.L419
 3830 1f54 BC2A0000 		.word	.L419
 3831 1f58 BC2A0000 		.word	.L419
 3832 1f5c B01F0000 		.word	.L190
 3833 1f60 BC2A0000 		.word	.L419
 3834 1f64 BC2A0000 		.word	.L419
 3835 1f68 BC2A0000 		.word	.L419
 3836 1f6c BC2A0000 		.word	.L419
 3837 1f70 BC2A0000 		.word	.L419
 3838 1f74 C01F0000 		.word	.L191
 3839 1f78 BC2A0000 		.word	.L419
 3840 1f7c BC2A0000 		.word	.L419
 3841 1f80 BC2A0000 		.word	.L419
 3842 1f84 BC2A0000 		.word	.L419
 3843 1f88 BC2A0000 		.word	.L419
 3844 1f8c D01F0000 		.word	.L192
 3845              	.L188:
 710:../sintesisVoz.c **** 			case 'a': *id = ja; break;
 3846              		.loc 1 710 0
 3847 1f90 14301BE5 		ldr	r3, [fp, #-20]
 3848 1f94 2C20A0E3 		mov	r2, #44
 3849 1f98 0020C3E5 		strb	r2, [r3, #0]
 3850 1f9c 0F0000EA 		b	.L187
 3851              	.L189:
 711:../sintesisVoz.c **** 			case 'e': *id = je; break;
 3852              		.loc 1 711 0
 3853 1fa0 14301BE5 		ldr	r3, [fp, #-20]
 3854 1fa4 2D20A0E3 		mov	r2, #45
 3855 1fa8 0020C3E5 		strb	r2, [r3, #0]
 3856 1fac 0B0000EA 		b	.L187
 3857              	.L190:
 712:../sintesisVoz.c **** 			case 'i': *id = ji; break;
 3858              		.loc 1 712 0
 3859 1fb0 14301BE5 		ldr	r3, [fp, #-20]
 3860 1fb4 2E20A0E3 		mov	r2, #46
 3861 1fb8 0020C3E5 		strb	r2, [r3, #0]
 3862 1fbc 070000EA 		b	.L187
 3863              	.L191:
 713:../sintesisVoz.c **** 			case 'o': *id = jo; break;
 3864              		.loc 1 713 0
 3865 1fc0 14301BE5 		ldr	r3, [fp, #-20]
 3866 1fc4 2F20A0E3 		mov	r2, #47
 3867 1fc8 0020C3E5 		strb	r2, [r3, #0]
 3868 1fcc 030000EA 		b	.L187
 3869              	.L192:
 714:../sintesisVoz.c **** 			case 'u': *id = ju; break;
 3870              		.loc 1 714 0
 3871 1fd0 14301BE5 		ldr	r3, [fp, #-20]
 3872 1fd4 3020A0E3 		mov	r2, #48
 3873 1fd8 0020C3E5 		strb	r2, [r3, #0]
 3874 1fdc 0000A0E1 		mov	r0, r0	@ nop
 3875              	.L187:
 715:../sintesisVoz.c **** 			}
 716:../sintesisVoz.c **** 			break;
 3876              		.loc 1 716 0
 3877 1fe0 D20200EA 		b	.L138
 3878              	.L147:
 717:../sintesisVoz.c **** 		case 'k':
 718:../sintesisVoz.c **** 			switch( txt[1] ) {
 3879              		.loc 1 718 0
 3880 1fe4 10301BE5 		ldr	r3, [fp, #-16]
 3881 1fe8 013083E2 		add	r3, r3, #1
 3882 1fec 0030D3E5 		ldrb	r3, [r3, #0]	@ zero_extendqisi2
 3883 1ff0 613043E2 		sub	r3, r3, #97
 3884 1ff4 140053E3 		cmp	r3, #20
 3885 1ff8 03F19F97 		ldrls	pc, [pc, r3, asl #2]
 3886 1ffc B00200EA 		b	.L420
 3887              	.L200:
 3888 2000 54200000 		.word	.L195
 3889 2004 C42A0000 		.word	.L420
 3890 2008 C42A0000 		.word	.L420
 3891 200c C42A0000 		.word	.L420
 3892 2010 64200000 		.word	.L196
 3893 2014 C42A0000 		.word	.L420
 3894 2018 C42A0000 		.word	.L420
 3895 201c C42A0000 		.word	.L420
 3896 2020 74200000 		.word	.L197
 3897 2024 C42A0000 		.word	.L420
 3898 2028 C42A0000 		.word	.L420
 3899 202c C42A0000 		.word	.L420
 3900 2030 C42A0000 		.word	.L420
 3901 2034 C42A0000 		.word	.L420
 3902 2038 84200000 		.word	.L198
 3903 203c C42A0000 		.word	.L420
 3904 2040 C42A0000 		.word	.L420
 3905 2044 C42A0000 		.word	.L420
 3906 2048 C42A0000 		.word	.L420
 3907 204c C42A0000 		.word	.L420
 3908 2050 94200000 		.word	.L199
 3909              	.L195:
 719:../sintesisVoz.c **** 			case 'a': *id = ka; break;
 3910              		.loc 1 719 0
 3911 2054 14301BE5 		ldr	r3, [fp, #-20]
 3912 2058 3120A0E3 		mov	r2, #49
 3913 205c 0020C3E5 		strb	r2, [r3, #0]
 3914 2060 0F0000EA 		b	.L194
 3915              	.L196:
 720:../sintesisVoz.c **** 			case 'e': *id = ke; break;
 3916              		.loc 1 720 0
 3917 2064 14301BE5 		ldr	r3, [fp, #-20]
 3918 2068 3220A0E3 		mov	r2, #50
 3919 206c 0020C3E5 		strb	r2, [r3, #0]
 3920 2070 0B0000EA 		b	.L194
 3921              	.L197:
 721:../sintesisVoz.c **** 			case 'i': *id = ki; break;
 3922              		.loc 1 721 0
 3923 2074 14301BE5 		ldr	r3, [fp, #-20]
 3924 2078 3320A0E3 		mov	r2, #51
 3925 207c 0020C3E5 		strb	r2, [r3, #0]
 3926 2080 070000EA 		b	.L194
 3927              	.L198:
 722:../sintesisVoz.c **** 			case 'o': *id = ko; break;
 3928              		.loc 1 722 0
 3929 2084 14301BE5 		ldr	r3, [fp, #-20]
 3930 2088 3420A0E3 		mov	r2, #52
 3931 208c 0020C3E5 		strb	r2, [r3, #0]
 3932 2090 030000EA 		b	.L194
 3933              	.L199:
 723:../sintesisVoz.c **** 			case 'u': *id = ku; break;
 3934              		.loc 1 723 0
 3935 2094 14301BE5 		ldr	r3, [fp, #-20]
 3936 2098 3520A0E3 		mov	r2, #53
 3937 209c 0020C3E5 		strb	r2, [r3, #0]
 3938 20a0 0000A0E1 		mov	r0, r0	@ nop
 3939              	.L194:
 724:../sintesisVoz.c **** 			}
 725:../sintesisVoz.c **** 			break;
 3940              		.loc 1 725 0
 3941 20a4 A10200EA 		b	.L138
 3942              	.L148:
 726:../sintesisVoz.c **** 		case 'l':
 727:../sintesisVoz.c **** 			switch( txt[1] ) {
 3943              		.loc 1 727 0
 3944 20a8 10301BE5 		ldr	r3, [fp, #-16]
 3945 20ac 013083E2 		add	r3, r3, #1
 3946 20b0 0030D3E5 		ldrb	r3, [r3, #0]	@ zero_extendqisi2
 3947 20b4 613043E2 		sub	r3, r3, #97
 3948 20b8 140053E3 		cmp	r3, #20
 3949 20bc 03F19F97 		ldrls	pc, [pc, r3, asl #2]
 3950 20c0 810200EA 		b	.L421
 3951              	.L207:
 3952 20c4 18210000 		.word	.L202
 3953 20c8 CC2A0000 		.word	.L421
 3954 20cc CC2A0000 		.word	.L421
 3955 20d0 CC2A0000 		.word	.L421
 3956 20d4 28210000 		.word	.L203
 3957 20d8 CC2A0000 		.word	.L421
 3958 20dc CC2A0000 		.word	.L421
 3959 20e0 CC2A0000 		.word	.L421
 3960 20e4 38210000 		.word	.L204
 3961 20e8 CC2A0000 		.word	.L421
 3962 20ec CC2A0000 		.word	.L421
 3963 20f0 CC2A0000 		.word	.L421
 3964 20f4 CC2A0000 		.word	.L421
 3965 20f8 CC2A0000 		.word	.L421
 3966 20fc 48210000 		.word	.L205
 3967 2100 CC2A0000 		.word	.L421
 3968 2104 CC2A0000 		.word	.L421
 3969 2108 CC2A0000 		.word	.L421
 3970 210c CC2A0000 		.word	.L421
 3971 2110 CC2A0000 		.word	.L421
 3972 2114 58210000 		.word	.L206
 3973              	.L202:
 728:../sintesisVoz.c **** 			case 'a': *id = la; break;
 3974              		.loc 1 728 0
 3975 2118 14301BE5 		ldr	r3, [fp, #-20]
 3976 211c 3620A0E3 		mov	r2, #54
 3977 2120 0020C3E5 		strb	r2, [r3, #0]
 3978 2124 0F0000EA 		b	.L201
 3979              	.L203:
 729:../sintesisVoz.c **** 			case 'e': *id = le; break;
 3980              		.loc 1 729 0
 3981 2128 14301BE5 		ldr	r3, [fp, #-20]
 3982 212c 3720A0E3 		mov	r2, #55
 3983 2130 0020C3E5 		strb	r2, [r3, #0]
 3984 2134 0B0000EA 		b	.L201
 3985              	.L204:
 730:../sintesisVoz.c **** 			case 'i': *id = li; break;
 3986              		.loc 1 730 0
 3987 2138 14301BE5 		ldr	r3, [fp, #-20]
 3988 213c 3820A0E3 		mov	r2, #56
 3989 2140 0020C3E5 		strb	r2, [r3, #0]
 3990 2144 070000EA 		b	.L201
 3991              	.L205:
 731:../sintesisVoz.c **** 			case 'o': *id = lo; break;
 3992              		.loc 1 731 0
 3993 2148 14301BE5 		ldr	r3, [fp, #-20]
 3994 214c 3920A0E3 		mov	r2, #57
 3995 2150 0020C3E5 		strb	r2, [r3, #0]
 3996 2154 030000EA 		b	.L201
 3997              	.L206:
 732:../sintesisVoz.c **** 			case 'u': *id = lu; break;
 3998              		.loc 1 732 0
 3999 2158 14301BE5 		ldr	r3, [fp, #-20]
 4000 215c 3A20A0E3 		mov	r2, #58
 4001 2160 0020C3E5 		strb	r2, [r3, #0]
 4002 2164 0000A0E1 		mov	r0, r0	@ nop
 4003              	.L201:
 733:../sintesisVoz.c **** 			}
 734:../sintesisVoz.c **** 			break;
 4004              		.loc 1 734 0
 4005 2168 700200EA 		b	.L138
 4006              	.L149:
 735:../sintesisVoz.c **** 		case 'm':
 736:../sintesisVoz.c **** 			switch( txt[1] ) {
 4007              		.loc 1 736 0
 4008 216c 10301BE5 		ldr	r3, [fp, #-16]
 4009 2170 013083E2 		add	r3, r3, #1
 4010 2174 0030D3E5 		ldrb	r3, [r3, #0]	@ zero_extendqisi2
 4011 2178 613043E2 		sub	r3, r3, #97
 4012 217c 140053E3 		cmp	r3, #20
 4013 2180 03F19F97 		ldrls	pc, [pc, r3, asl #2]
 4014 2184 520200EA 		b	.L422
 4015              	.L214:
 4016 2188 DC210000 		.word	.L209
 4017 218c D42A0000 		.word	.L422
 4018 2190 D42A0000 		.word	.L422
 4019 2194 D42A0000 		.word	.L422
 4020 2198 EC210000 		.word	.L210
 4021 219c D42A0000 		.word	.L422
 4022 21a0 D42A0000 		.word	.L422
 4023 21a4 D42A0000 		.word	.L422
 4024 21a8 FC210000 		.word	.L211
 4025 21ac D42A0000 		.word	.L422
 4026 21b0 D42A0000 		.word	.L422
 4027 21b4 D42A0000 		.word	.L422
 4028 21b8 D42A0000 		.word	.L422
 4029 21bc D42A0000 		.word	.L422
 4030 21c0 0C220000 		.word	.L212
 4031 21c4 D42A0000 		.word	.L422
 4032 21c8 D42A0000 		.word	.L422
 4033 21cc D42A0000 		.word	.L422
 4034 21d0 D42A0000 		.word	.L422
 4035 21d4 D42A0000 		.word	.L422
 4036 21d8 1C220000 		.word	.L213
 4037              	.L209:
 737:../sintesisVoz.c **** 			case 'a': *id = ma; break;
 4038              		.loc 1 737 0
 4039 21dc 14301BE5 		ldr	r3, [fp, #-20]
 4040 21e0 3B20A0E3 		mov	r2, #59
 4041 21e4 0020C3E5 		strb	r2, [r3, #0]
 4042 21e8 0F0000EA 		b	.L208
 4043              	.L210:
 738:../sintesisVoz.c **** 			case 'e': *id = me; break;
 4044              		.loc 1 738 0
 4045 21ec 14301BE5 		ldr	r3, [fp, #-20]
 4046 21f0 3C20A0E3 		mov	r2, #60
 4047 21f4 0020C3E5 		strb	r2, [r3, #0]
 4048 21f8 0B0000EA 		b	.L208
 4049              	.L211:
 739:../sintesisVoz.c **** 			case 'i': *id = mi; break;
 4050              		.loc 1 739 0
 4051 21fc 14301BE5 		ldr	r3, [fp, #-20]
 4052 2200 3D20A0E3 		mov	r2, #61
 4053 2204 0020C3E5 		strb	r2, [r3, #0]
 4054 2208 070000EA 		b	.L208
 4055              	.L212:
 740:../sintesisVoz.c **** 			case 'o': *id = mo; break;
 4056              		.loc 1 740 0
 4057 220c 14301BE5 		ldr	r3, [fp, #-20]
 4058 2210 3E20A0E3 		mov	r2, #62
 4059 2214 0020C3E5 		strb	r2, [r3, #0]
 4060 2218 030000EA 		b	.L208
 4061              	.L213:
 741:../sintesisVoz.c **** 			case 'u': *id = mu; break;
 4062              		.loc 1 741 0
 4063 221c 14301BE5 		ldr	r3, [fp, #-20]
 4064 2220 3F20A0E3 		mov	r2, #63
 4065 2224 0020C3E5 		strb	r2, [r3, #0]
 4066 2228 0000A0E1 		mov	r0, r0	@ nop
 4067              	.L208:
 742:../sintesisVoz.c **** 			}
 743:../sintesisVoz.c **** 			break;
 4068              		.loc 1 743 0
 4069 222c 3F0200EA 		b	.L138
 4070              	.L150:
 744:../sintesisVoz.c **** 		case 'n':
 745:../sintesisVoz.c **** 			switch( txt[1] ) {
 4071              		.loc 1 745 0
 4072 2230 10301BE5 		ldr	r3, [fp, #-16]
 4073 2234 013083E2 		add	r3, r3, #1
 4074 2238 0030D3E5 		ldrb	r3, [r3, #0]	@ zero_extendqisi2
 4075 223c 613043E2 		sub	r3, r3, #97
 4076 2240 140053E3 		cmp	r3, #20
 4077 2244 03F19F97 		ldrls	pc, [pc, r3, asl #2]
 4078 2248 230200EA 		b	.L423
 4079              	.L221:
 4080 224c A0220000 		.word	.L216
 4081 2250 DC2A0000 		.word	.L423
 4082 2254 DC2A0000 		.word	.L423
 4083 2258 DC2A0000 		.word	.L423
 4084 225c B0220000 		.word	.L217
 4085 2260 DC2A0000 		.word	.L423
 4086 2264 DC2A0000 		.word	.L423
 4087 2268 DC2A0000 		.word	.L423
 4088 226c C0220000 		.word	.L218
 4089 2270 DC2A0000 		.word	.L423
 4090 2274 DC2A0000 		.word	.L423
 4091 2278 DC2A0000 		.word	.L423
 4092 227c DC2A0000 		.word	.L423
 4093 2280 DC2A0000 		.word	.L423
 4094 2284 D0220000 		.word	.L219
 4095 2288 DC2A0000 		.word	.L423
 4096 228c DC2A0000 		.word	.L423
 4097 2290 DC2A0000 		.word	.L423
 4098 2294 DC2A0000 		.word	.L423
 4099 2298 DC2A0000 		.word	.L423
 4100 229c E0220000 		.word	.L220
 4101              	.L216:
 746:../sintesisVoz.c **** 			case 'a': *id = na; break;
 4102              		.loc 1 746 0
 4103 22a0 14301BE5 		ldr	r3, [fp, #-20]
 4104 22a4 4020A0E3 		mov	r2, #64
 4105 22a8 0020C3E5 		strb	r2, [r3, #0]
 4106 22ac 0F0000EA 		b	.L215
 4107              	.L217:
 747:../sintesisVoz.c **** 			case 'e': *id = ne; break;
 4108              		.loc 1 747 0
 4109 22b0 14301BE5 		ldr	r3, [fp, #-20]
 4110 22b4 4120A0E3 		mov	r2, #65
 4111 22b8 0020C3E5 		strb	r2, [r3, #0]
 4112 22bc 0B0000EA 		b	.L215
 4113              	.L218:
 748:../sintesisVoz.c **** 			case 'i': *id = ni; break;
 4114              		.loc 1 748 0
 4115 22c0 14301BE5 		ldr	r3, [fp, #-20]
 4116 22c4 4220A0E3 		mov	r2, #66
 4117 22c8 0020C3E5 		strb	r2, [r3, #0]
 4118 22cc 070000EA 		b	.L215
 4119              	.L219:
 749:../sintesisVoz.c **** 			case 'o': *id = no; break;
 4120              		.loc 1 749 0
 4121 22d0 14301BE5 		ldr	r3, [fp, #-20]
 4122 22d4 4320A0E3 		mov	r2, #67
 4123 22d8 0020C3E5 		strb	r2, [r3, #0]
 4124 22dc 030000EA 		b	.L215
 4125              	.L220:
 750:../sintesisVoz.c **** 			case 'u': *id = nu; break;
 4126              		.loc 1 750 0
 4127 22e0 14301BE5 		ldr	r3, [fp, #-20]
 4128 22e4 4420A0E3 		mov	r2, #68
 4129 22e8 0020C3E5 		strb	r2, [r3, #0]
 4130 22ec 0000A0E1 		mov	r0, r0	@ nop
 4131              	.L215:
 751:../sintesisVoz.c **** 			}
 752:../sintesisVoz.c **** 			break;
 4132              		.loc 1 752 0
 4133 22f0 0E0200EA 		b	.L138
 4134              	.L140:
 753:../sintesisVoz.c **** 		case 'N':
 754:../sintesisVoz.c **** 			switch( txt[1] ) {
 4135              		.loc 1 754 0
 4136 22f4 10301BE5 		ldr	r3, [fp, #-16]
 4137 22f8 013083E2 		add	r3, r3, #1
 4138 22fc 0030D3E5 		ldrb	r3, [r3, #0]	@ zero_extendqisi2
 4139 2300 613043E2 		sub	r3, r3, #97
 4140 2304 140053E3 		cmp	r3, #20
 4141 2308 03F19F97 		ldrls	pc, [pc, r3, asl #2]
 4142 230c F40100EA 		b	.L424
 4143              	.L228:
 4144 2310 64230000 		.word	.L223
 4145 2314 E42A0000 		.word	.L424
 4146 2318 E42A0000 		.word	.L424
 4147 231c E42A0000 		.word	.L424
 4148 2320 74230000 		.word	.L224
 4149 2324 E42A0000 		.word	.L424
 4150 2328 E42A0000 		.word	.L424
 4151 232c E42A0000 		.word	.L424
 4152 2330 84230000 		.word	.L225
 4153 2334 E42A0000 		.word	.L424
 4154 2338 E42A0000 		.word	.L424
 4155 233c E42A0000 		.word	.L424
 4156 2340 E42A0000 		.word	.L424
 4157 2344 E42A0000 		.word	.L424
 4158 2348 94230000 		.word	.L226
 4159 234c E42A0000 		.word	.L424
 4160 2350 E42A0000 		.word	.L424
 4161 2354 E42A0000 		.word	.L424
 4162 2358 E42A0000 		.word	.L424
 4163 235c E42A0000 		.word	.L424
 4164 2360 A4230000 		.word	.L227
 4165              	.L223:
 755:../sintesisVoz.c **** 			case 'a': *id = Na; break;
 4166              		.loc 1 755 0
 4167 2364 14301BE5 		ldr	r3, [fp, #-20]
 4168 2368 4520A0E3 		mov	r2, #69
 4169 236c 0020C3E5 		strb	r2, [r3, #0]
 4170 2370 0F0000EA 		b	.L222
 4171              	.L224:
 756:../sintesisVoz.c **** 			case 'e': *id = Ne; break;
 4172              		.loc 1 756 0
 4173 2374 14301BE5 		ldr	r3, [fp, #-20]
 4174 2378 4620A0E3 		mov	r2, #70
 4175 237c 0020C3E5 		strb	r2, [r3, #0]
 4176 2380 0B0000EA 		b	.L222
 4177              	.L225:
 757:../sintesisVoz.c **** 			case 'i': *id = Ni; break;
 4178              		.loc 1 757 0
 4179 2384 14301BE5 		ldr	r3, [fp, #-20]
 4180 2388 4720A0E3 		mov	r2, #71
 4181 238c 0020C3E5 		strb	r2, [r3, #0]
 4182 2390 070000EA 		b	.L222
 4183              	.L226:
 758:../sintesisVoz.c **** 			case 'o': *id = No; break;
 4184              		.loc 1 758 0
 4185 2394 14301BE5 		ldr	r3, [fp, #-20]
 4186 2398 4820A0E3 		mov	r2, #72
 4187 239c 0020C3E5 		strb	r2, [r3, #0]
 4188 23a0 030000EA 		b	.L222
 4189              	.L227:
 759:../sintesisVoz.c **** 			case 'u': *id = Nu; break;
 4190              		.loc 1 759 0
 4191 23a4 14301BE5 		ldr	r3, [fp, #-20]
 4192 23a8 4920A0E3 		mov	r2, #73
 4193 23ac 0020C3E5 		strb	r2, [r3, #0]
 4194 23b0 0000A0E1 		mov	r0, r0	@ nop
 4195              	.L222:
 760:../sintesisVoz.c **** 			}
 761:../sintesisVoz.c **** 			break;
 4196              		.loc 1 761 0
 4197 23b4 DD0100EA 		b	.L138
 4198              	.L151:
 762:../sintesisVoz.c **** 		case 'p':
 763:../sintesisVoz.c **** 			switch( txt[1] ) {
 4199              		.loc 1 763 0
 4200 23b8 10301BE5 		ldr	r3, [fp, #-16]
 4201 23bc 013083E2 		add	r3, r3, #1
 4202 23c0 0030D3E5 		ldrb	r3, [r3, #0]	@ zero_extendqisi2
 4203 23c4 613043E2 		sub	r3, r3, #97
 4204 23c8 140053E3 		cmp	r3, #20
 4205 23cc 03F19F97 		ldrls	pc, [pc, r3, asl #2]
 4206 23d0 C50100EA 		b	.L425
 4207              	.L235:
 4208 23d4 28240000 		.word	.L230
 4209 23d8 EC2A0000 		.word	.L425
 4210 23dc EC2A0000 		.word	.L425
 4211 23e0 EC2A0000 		.word	.L425
 4212 23e4 38240000 		.word	.L231
 4213 23e8 EC2A0000 		.word	.L425
 4214 23ec EC2A0000 		.word	.L425
 4215 23f0 EC2A0000 		.word	.L425
 4216 23f4 48240000 		.word	.L232
 4217 23f8 EC2A0000 		.word	.L425
 4218 23fc EC2A0000 		.word	.L425
 4219 2400 EC2A0000 		.word	.L425
 4220 2404 EC2A0000 		.word	.L425
 4221 2408 EC2A0000 		.word	.L425
 4222 240c 58240000 		.word	.L233
 4223 2410 EC2A0000 		.word	.L425
 4224 2414 EC2A0000 		.word	.L425
 4225 2418 EC2A0000 		.word	.L425
 4226 241c EC2A0000 		.word	.L425
 4227 2420 EC2A0000 		.word	.L425
 4228 2424 68240000 		.word	.L234
 4229              	.L230:
 764:../sintesisVoz.c **** 			case 'a': *id = pa; break;
 4230              		.loc 1 764 0
 4231 2428 14301BE5 		ldr	r3, [fp, #-20]
 4232 242c 4A20A0E3 		mov	r2, #74
 4233 2430 0020C3E5 		strb	r2, [r3, #0]
 4234 2434 0F0000EA 		b	.L229
 4235              	.L231:
 765:../sintesisVoz.c **** 			case 'e': *id = pe; break;
 4236              		.loc 1 765 0
 4237 2438 14301BE5 		ldr	r3, [fp, #-20]
 4238 243c 4B20A0E3 		mov	r2, #75
 4239 2440 0020C3E5 		strb	r2, [r3, #0]
 4240 2444 0B0000EA 		b	.L229
 4241              	.L232:
 766:../sintesisVoz.c **** 			case 'i': *id = pi; break;
 4242              		.loc 1 766 0
 4243 2448 14301BE5 		ldr	r3, [fp, #-20]
 4244 244c 4C20A0E3 		mov	r2, #76
 4245 2450 0020C3E5 		strb	r2, [r3, #0]
 4246 2454 070000EA 		b	.L229
 4247              	.L233:
 767:../sintesisVoz.c **** 			case 'o': *id = po; break;
 4248              		.loc 1 767 0
 4249 2458 14301BE5 		ldr	r3, [fp, #-20]
 4250 245c 4D20A0E3 		mov	r2, #77
 4251 2460 0020C3E5 		strb	r2, [r3, #0]
 4252 2464 030000EA 		b	.L229
 4253              	.L234:
 768:../sintesisVoz.c **** 			case 'u': *id = pu; break;
 4254              		.loc 1 768 0
 4255 2468 14301BE5 		ldr	r3, [fp, #-20]
 4256 246c 4E20A0E3 		mov	r2, #78
 4257 2470 0020C3E5 		strb	r2, [r3, #0]
 4258 2474 0000A0E1 		mov	r0, r0	@ nop
 4259              	.L229:
 769:../sintesisVoz.c **** 			}
 770:../sintesisVoz.c **** 			break;
 4260              		.loc 1 770 0
 4261 2478 AC0100EA 		b	.L138
 4262              	.L152:
 771:../sintesisVoz.c **** 		case 'r':
 772:../sintesisVoz.c **** 			switch( txt[1] ) {
 4263              		.loc 1 772 0
 4264 247c 10301BE5 		ldr	r3, [fp, #-16]
 4265 2480 013083E2 		add	r3, r3, #1
 4266 2484 0030D3E5 		ldrb	r3, [r3, #0]	@ zero_extendqisi2
 4267 2488 613043E2 		sub	r3, r3, #97
 4268 248c 140053E3 		cmp	r3, #20
 4269 2490 03F19F97 		ldrls	pc, [pc, r3, asl #2]
 4270 2494 960100EA 		b	.L426
 4271              	.L242:
 4272 2498 EC240000 		.word	.L237
 4273 249c F42A0000 		.word	.L426
 4274 24a0 F42A0000 		.word	.L426
 4275 24a4 F42A0000 		.word	.L426
 4276 24a8 FC240000 		.word	.L238
 4277 24ac F42A0000 		.word	.L426
 4278 24b0 F42A0000 		.word	.L426
 4279 24b4 F42A0000 		.word	.L426
 4280 24b8 0C250000 		.word	.L239
 4281 24bc F42A0000 		.word	.L426
 4282 24c0 F42A0000 		.word	.L426
 4283 24c4 F42A0000 		.word	.L426
 4284 24c8 F42A0000 		.word	.L426
 4285 24cc F42A0000 		.word	.L426
 4286 24d0 1C250000 		.word	.L240
 4287 24d4 F42A0000 		.word	.L426
 4288 24d8 F42A0000 		.word	.L426
 4289 24dc F42A0000 		.word	.L426
 4290 24e0 F42A0000 		.word	.L426
 4291 24e4 F42A0000 		.word	.L426
 4292 24e8 2C250000 		.word	.L241
 4293              	.L237:
 773:../sintesisVoz.c **** 			case 'a': *id = ra; break;
 4294              		.loc 1 773 0
 4295 24ec 14301BE5 		ldr	r3, [fp, #-20]
 4296 24f0 4F20A0E3 		mov	r2, #79
 4297 24f4 0020C3E5 		strb	r2, [r3, #0]
 4298 24f8 0F0000EA 		b	.L236
 4299              	.L238:
 774:../sintesisVoz.c **** 			case 'e': *id = re; break;
 4300              		.loc 1 774 0
 4301 24fc 14301BE5 		ldr	r3, [fp, #-20]
 4302 2500 5020A0E3 		mov	r2, #80
 4303 2504 0020C3E5 		strb	r2, [r3, #0]
 4304 2508 0B0000EA 		b	.L236
 4305              	.L239:
 775:../sintesisVoz.c **** 			case 'i': *id = ri; break;
 4306              		.loc 1 775 0
 4307 250c 14301BE5 		ldr	r3, [fp, #-20]
 4308 2510 5120A0E3 		mov	r2, #81
 4309 2514 0020C3E5 		strb	r2, [r3, #0]
 4310 2518 070000EA 		b	.L236
 4311              	.L240:
 776:../sintesisVoz.c **** 			case 'o': *id = ro; break;
 4312              		.loc 1 776 0
 4313 251c 14301BE5 		ldr	r3, [fp, #-20]
 4314 2520 5220A0E3 		mov	r2, #82
 4315 2524 0020C3E5 		strb	r2, [r3, #0]
 4316 2528 030000EA 		b	.L236
 4317              	.L241:
 777:../sintesisVoz.c **** 			case 'u': *id = ru; break;
 4318              		.loc 1 777 0
 4319 252c 14301BE5 		ldr	r3, [fp, #-20]
 4320 2530 5320A0E3 		mov	r2, #83
 4321 2534 0020C3E5 		strb	r2, [r3, #0]
 4322 2538 0000A0E1 		mov	r0, r0	@ nop
 4323              	.L236:
 778:../sintesisVoz.c **** 			}
 779:../sintesisVoz.c **** 			break;
 4324              		.loc 1 779 0
 4325 253c 7B0100EA 		b	.L138
 4326              	.L141:
 780:../sintesisVoz.c **** 		case 'R':
 781:../sintesisVoz.c **** 			switch( txt[1] ) {
 4327              		.loc 1 781 0
 4328 2540 10301BE5 		ldr	r3, [fp, #-16]
 4329 2544 013083E2 		add	r3, r3, #1
 4330 2548 0030D3E5 		ldrb	r3, [r3, #0]	@ zero_extendqisi2
 4331 254c 613043E2 		sub	r3, r3, #97
 4332 2550 140053E3 		cmp	r3, #20
 4333 2554 03F19F97 		ldrls	pc, [pc, r3, asl #2]
 4334 2558 670100EA 		b	.L427
 4335              	.L249:
 4336 255c B0250000 		.word	.L244
 4337 2560 FC2A0000 		.word	.L427
 4338 2564 FC2A0000 		.word	.L427
 4339 2568 FC2A0000 		.word	.L427
 4340 256c C0250000 		.word	.L245
 4341 2570 FC2A0000 		.word	.L427
 4342 2574 FC2A0000 		.word	.L427
 4343 2578 FC2A0000 		.word	.L427
 4344 257c D0250000 		.word	.L246
 4345 2580 FC2A0000 		.word	.L427
 4346 2584 FC2A0000 		.word	.L427
 4347 2588 FC2A0000 		.word	.L427
 4348 258c FC2A0000 		.word	.L427
 4349 2590 FC2A0000 		.word	.L427
 4350 2594 E0250000 		.word	.L247
 4351 2598 FC2A0000 		.word	.L427
 4352 259c FC2A0000 		.word	.L427
 4353 25a0 FC2A0000 		.word	.L427
 4354 25a4 FC2A0000 		.word	.L427
 4355 25a8 FC2A0000 		.word	.L427
 4356 25ac F0250000 		.word	.L248
 4357              	.L244:
 782:../sintesisVoz.c **** 			case 'a': *id = Ra; break;
 4358              		.loc 1 782 0
 4359 25b0 14301BE5 		ldr	r3, [fp, #-20]
 4360 25b4 5420A0E3 		mov	r2, #84
 4361 25b8 0020C3E5 		strb	r2, [r3, #0]
 4362 25bc 0F0000EA 		b	.L243
 4363              	.L245:
 783:../sintesisVoz.c **** 			case 'e': *id = Re; break;
 4364              		.loc 1 783 0
 4365 25c0 14301BE5 		ldr	r3, [fp, #-20]
 4366 25c4 5520A0E3 		mov	r2, #85
 4367 25c8 0020C3E5 		strb	r2, [r3, #0]
 4368 25cc 0B0000EA 		b	.L243
 4369              	.L246:
 784:../sintesisVoz.c **** 			case 'i': *id = Ri; break;
 4370              		.loc 1 784 0
 4371 25d0 14301BE5 		ldr	r3, [fp, #-20]
 4372 25d4 5620A0E3 		mov	r2, #86
 4373 25d8 0020C3E5 		strb	r2, [r3, #0]
 4374 25dc 070000EA 		b	.L243
 4375              	.L247:
 785:../sintesisVoz.c **** 			case 'o': *id = Ro; break;
 4376              		.loc 1 785 0
 4377 25e0 14301BE5 		ldr	r3, [fp, #-20]
 4378 25e4 5720A0E3 		mov	r2, #87
 4379 25e8 0020C3E5 		strb	r2, [r3, #0]
 4380 25ec 030000EA 		b	.L243
 4381              	.L248:
 786:../sintesisVoz.c **** 			case 'u': *id = Ru; break;
 4382              		.loc 1 786 0
 4383 25f0 14301BE5 		ldr	r3, [fp, #-20]
 4384 25f4 5820A0E3 		mov	r2, #88
 4385 25f8 0020C3E5 		strb	r2, [r3, #0]
 4386 25fc 0000A0E1 		mov	r0, r0	@ nop
 4387              	.L243:
 787:../sintesisVoz.c **** 			}
 788:../sintesisVoz.c **** 			break;
 4388              		.loc 1 788 0
 4389 2600 4A0100EA 		b	.L138
 4390              	.L153:
 789:../sintesisVoz.c **** 		case 's':
 790:../sintesisVoz.c **** 			switch( txt[1] ) {
 4391              		.loc 1 790 0
 4392 2604 10301BE5 		ldr	r3, [fp, #-16]
 4393 2608 013083E2 		add	r3, r3, #1
 4394 260c 0030D3E5 		ldrb	r3, [r3, #0]	@ zero_extendqisi2
 4395 2610 613043E2 		sub	r3, r3, #97
 4396 2614 140053E3 		cmp	r3, #20
 4397 2618 03F19F97 		ldrls	pc, [pc, r3, asl #2]
 4398 261c 380100EA 		b	.L428
 4399              	.L256:
 4400 2620 74260000 		.word	.L251
 4401 2624 042B0000 		.word	.L428
 4402 2628 042B0000 		.word	.L428
 4403 262c 042B0000 		.word	.L428
 4404 2630 84260000 		.word	.L252
 4405 2634 042B0000 		.word	.L428
 4406 2638 042B0000 		.word	.L428
 4407 263c 042B0000 		.word	.L428
 4408 2640 94260000 		.word	.L253
 4409 2644 042B0000 		.word	.L428
 4410 2648 042B0000 		.word	.L428
 4411 264c 042B0000 		.word	.L428
 4412 2650 042B0000 		.word	.L428
 4413 2654 042B0000 		.word	.L428
 4414 2658 A4260000 		.word	.L254
 4415 265c 042B0000 		.word	.L428
 4416 2660 042B0000 		.word	.L428
 4417 2664 042B0000 		.word	.L428
 4418 2668 042B0000 		.word	.L428
 4419 266c 042B0000 		.word	.L428
 4420 2670 B4260000 		.word	.L255
 4421              	.L251:
 791:../sintesisVoz.c **** 			case 'a': *id = sa; break;
 4422              		.loc 1 791 0
 4423 2674 14301BE5 		ldr	r3, [fp, #-20]
 4424 2678 5920A0E3 		mov	r2, #89
 4425 267c 0020C3E5 		strb	r2, [r3, #0]
 4426 2680 0F0000EA 		b	.L250
 4427              	.L252:
 792:../sintesisVoz.c **** 			case 'e': *id = se; break;
 4428              		.loc 1 792 0
 4429 2684 14301BE5 		ldr	r3, [fp, #-20]
 4430 2688 5A20A0E3 		mov	r2, #90
 4431 268c 0020C3E5 		strb	r2, [r3, #0]
 4432 2690 0B0000EA 		b	.L250
 4433              	.L253:
 793:../sintesisVoz.c **** 			case 'i': *id = si; break;
 4434              		.loc 1 793 0
 4435 2694 14301BE5 		ldr	r3, [fp, #-20]
 4436 2698 5B20A0E3 		mov	r2, #91
 4437 269c 0020C3E5 		strb	r2, [r3, #0]
 4438 26a0 070000EA 		b	.L250
 4439              	.L254:
 794:../sintesisVoz.c **** 			case 'o': *id = so; break;
 4440              		.loc 1 794 0
 4441 26a4 14301BE5 		ldr	r3, [fp, #-20]
 4442 26a8 5C20A0E3 		mov	r2, #92
 4443 26ac 0020C3E5 		strb	r2, [r3, #0]
 4444 26b0 030000EA 		b	.L250
 4445              	.L255:
 795:../sintesisVoz.c **** 			case 'u': *id = su; break;
 4446              		.loc 1 795 0
 4447 26b4 14301BE5 		ldr	r3, [fp, #-20]
 4448 26b8 5D20A0E3 		mov	r2, #93
 4449 26bc 0020C3E5 		strb	r2, [r3, #0]
 4450 26c0 0000A0E1 		mov	r0, r0	@ nop
 4451              	.L250:
 796:../sintesisVoz.c **** 			}
 797:../sintesisVoz.c **** 			break;
 4452              		.loc 1 797 0
 4453 26c4 190100EA 		b	.L138
 4454              	.L154:
 798:../sintesisVoz.c **** 		case 't':
 799:../sintesisVoz.c **** 			switch( txt[1] ) {
 4455              		.loc 1 799 0
 4456 26c8 10301BE5 		ldr	r3, [fp, #-16]
 4457 26cc 013083E2 		add	r3, r3, #1
 4458 26d0 0030D3E5 		ldrb	r3, [r3, #0]	@ zero_extendqisi2
 4459 26d4 613043E2 		sub	r3, r3, #97
 4460 26d8 140053E3 		cmp	r3, #20
 4461 26dc 03F19F97 		ldrls	pc, [pc, r3, asl #2]
 4462 26e0 090100EA 		b	.L429
 4463              	.L263:
 4464 26e4 38270000 		.word	.L258
 4465 26e8 0C2B0000 		.word	.L429
 4466 26ec 0C2B0000 		.word	.L429
 4467 26f0 0C2B0000 		.word	.L429
 4468 26f4 48270000 		.word	.L259
 4469 26f8 0C2B0000 		.word	.L429
 4470 26fc 0C2B0000 		.word	.L429
 4471 2700 0C2B0000 		.word	.L429
 4472 2704 58270000 		.word	.L260
 4473 2708 0C2B0000 		.word	.L429
 4474 270c 0C2B0000 		.word	.L429
 4475 2710 0C2B0000 		.word	.L429
 4476 2714 0C2B0000 		.word	.L429
 4477 2718 0C2B0000 		.word	.L429
 4478 271c 68270000 		.word	.L261
 4479 2720 0C2B0000 		.word	.L429
 4480 2724 0C2B0000 		.word	.L429
 4481 2728 0C2B0000 		.word	.L429
 4482 272c 0C2B0000 		.word	.L429
 4483 2730 0C2B0000 		.word	.L429
 4484 2734 78270000 		.word	.L262
 4485              	.L258:
 800:../sintesisVoz.c **** 			case 'a': *id = ta; break;
 4486              		.loc 1 800 0
 4487 2738 14301BE5 		ldr	r3, [fp, #-20]
 4488 273c 5E20A0E3 		mov	r2, #94
 4489 2740 0020C3E5 		strb	r2, [r3, #0]
 4490 2744 0F0000EA 		b	.L257
 4491              	.L259:
 801:../sintesisVoz.c **** 			case 'e': *id = te; break;
 4492              		.loc 1 801 0
 4493 2748 14301BE5 		ldr	r3, [fp, #-20]
 4494 274c 5F20A0E3 		mov	r2, #95
 4495 2750 0020C3E5 		strb	r2, [r3, #0]
 4496 2754 0B0000EA 		b	.L257
 4497              	.L260:
 802:../sintesisVoz.c **** 			case 'i': *id = ti; break;
 4498              		.loc 1 802 0
 4499 2758 14301BE5 		ldr	r3, [fp, #-20]
 4500 275c 6020A0E3 		mov	r2, #96
 4501 2760 0020C3E5 		strb	r2, [r3, #0]
 4502 2764 070000EA 		b	.L257
 4503              	.L261:
 803:../sintesisVoz.c **** 			case 'o': *id = to; break;
 4504              		.loc 1 803 0
 4505 2768 14301BE5 		ldr	r3, [fp, #-20]
 4506 276c 6120A0E3 		mov	r2, #97
 4507 2770 0020C3E5 		strb	r2, [r3, #0]
 4508 2774 030000EA 		b	.L257
 4509              	.L262:
 804:../sintesisVoz.c **** 			case 'u': *id = tu; break;
 4510              		.loc 1 804 0
 4511 2778 14301BE5 		ldr	r3, [fp, #-20]
 4512 277c 6220A0E3 		mov	r2, #98
 4513 2780 0020C3E5 		strb	r2, [r3, #0]
 4514 2784 0000A0E1 		mov	r0, r0	@ nop
 4515              	.L257:
 805:../sintesisVoz.c **** 			}
 806:../sintesisVoz.c **** 			break;
 4516              		.loc 1 806 0
 4517 2788 E80000EA 		b	.L138
 4518              	.L155:
 807:../sintesisVoz.c **** 		case 'x':
 808:../sintesisVoz.c **** 			switch( txt[1] ) {
 4519              		.loc 1 808 0
 4520 278c 10301BE5 		ldr	r3, [fp, #-16]
 4521 2790 013083E2 		add	r3, r3, #1
 4522 2794 0030D3E5 		ldrb	r3, [r3, #0]	@ zero_extendqisi2
 4523 2798 613043E2 		sub	r3, r3, #97
 4524 279c 140053E3 		cmp	r3, #20
 4525 27a0 03F19F97 		ldrls	pc, [pc, r3, asl #2]
 4526 27a4 DA0000EA 		b	.L430
 4527              	.L270:
 4528 27a8 FC270000 		.word	.L265
 4529 27ac 142B0000 		.word	.L430
 4530 27b0 142B0000 		.word	.L430
 4531 27b4 142B0000 		.word	.L430
 4532 27b8 0C280000 		.word	.L266
 4533 27bc 142B0000 		.word	.L430
 4534 27c0 142B0000 		.word	.L430
 4535 27c4 142B0000 		.word	.L430
 4536 27c8 1C280000 		.word	.L267
 4537 27cc 142B0000 		.word	.L430
 4538 27d0 142B0000 		.word	.L430
 4539 27d4 142B0000 		.word	.L430
 4540 27d8 142B0000 		.word	.L430
 4541 27dc 142B0000 		.word	.L430
 4542 27e0 2C280000 		.word	.L268
 4543 27e4 142B0000 		.word	.L430
 4544 27e8 142B0000 		.word	.L430
 4545 27ec 142B0000 		.word	.L430
 4546 27f0 142B0000 		.word	.L430
 4547 27f4 142B0000 		.word	.L430
 4548 27f8 3C280000 		.word	.L269
 4549              	.L265:
 809:../sintesisVoz.c **** 			case 'a': *id = xa; break;
 4550              		.loc 1 809 0
 4551 27fc 14301BE5 		ldr	r3, [fp, #-20]
 4552 2800 6320A0E3 		mov	r2, #99
 4553 2804 0020C3E5 		strb	r2, [r3, #0]
 4554 2808 0F0000EA 		b	.L264
 4555              	.L266:
 810:../sintesisVoz.c **** 			case 'e': *id = xe; break;
 4556              		.loc 1 810 0
 4557 280c 14301BE5 		ldr	r3, [fp, #-20]
 4558 2810 6420A0E3 		mov	r2, #100
 4559 2814 0020C3E5 		strb	r2, [r3, #0]
 4560 2818 0B0000EA 		b	.L264
 4561              	.L267:
 811:../sintesisVoz.c **** 			case 'i': *id = xi; break;
 4562              		.loc 1 811 0
 4563 281c 14301BE5 		ldr	r3, [fp, #-20]
 4564 2820 6520A0E3 		mov	r2, #101
 4565 2824 0020C3E5 		strb	r2, [r3, #0]
 4566 2828 070000EA 		b	.L264
 4567              	.L268:
 812:../sintesisVoz.c **** 			case 'o': *id = xo; break;
 4568              		.loc 1 812 0
 4569 282c 14301BE5 		ldr	r3, [fp, #-20]
 4570 2830 6620A0E3 		mov	r2, #102
 4571 2834 0020C3E5 		strb	r2, [r3, #0]
 4572 2838 030000EA 		b	.L264
 4573              	.L269:
 813:../sintesisVoz.c **** 			case 'u': *id = xu; break;
 4574              		.loc 1 813 0
 4575 283c 14301BE5 		ldr	r3, [fp, #-20]
 4576 2840 6720A0E3 		mov	r2, #103
 4577 2844 0020C3E5 		strb	r2, [r3, #0]
 4578 2848 0000A0E1 		mov	r0, r0	@ nop
 4579              	.L264:
 814:../sintesisVoz.c **** 			}
 815:../sintesisVoz.c **** 			break;
 4580              		.loc 1 815 0
 4581 284c B70000EA 		b	.L138
 4582              	.L156:
 816:../sintesisVoz.c **** 		case 'y':
 817:../sintesisVoz.c **** 			switch( txt[1] ) {
 4583              		.loc 1 817 0
 4584 2850 10301BE5 		ldr	r3, [fp, #-16]
 4585 2854 013083E2 		add	r3, r3, #1
 4586 2858 0030D3E5 		ldrb	r3, [r3, #0]	@ zero_extendqisi2
 4587 285c 613043E2 		sub	r3, r3, #97
 4588 2860 140053E3 		cmp	r3, #20
 4589 2864 03F19F97 		ldrls	pc, [pc, r3, asl #2]
 4590 2868 AB0000EA 		b	.L431
 4591              	.L277:
 4592 286c C0280000 		.word	.L272
 4593 2870 1C2B0000 		.word	.L431
 4594 2874 1C2B0000 		.word	.L431
 4595 2878 1C2B0000 		.word	.L431
 4596 287c D0280000 		.word	.L273
 4597 2880 1C2B0000 		.word	.L431
 4598 2884 1C2B0000 		.word	.L431
 4599 2888 1C2B0000 		.word	.L431
 4600 288c E0280000 		.word	.L274
 4601 2890 1C2B0000 		.word	.L431
 4602 2894 1C2B0000 		.word	.L431
 4603 2898 1C2B0000 		.word	.L431
 4604 289c 1C2B0000 		.word	.L431
 4605 28a0 1C2B0000 		.word	.L431
 4606 28a4 F0280000 		.word	.L275
 4607 28a8 1C2B0000 		.word	.L431
 4608 28ac 1C2B0000 		.word	.L431
 4609 28b0 1C2B0000 		.word	.L431
 4610 28b4 1C2B0000 		.word	.L431
 4611 28b8 1C2B0000 		.word	.L431
 4612 28bc 00290000 		.word	.L276
 4613              	.L272:
 818:../sintesisVoz.c **** 			case 'a': *id = ya; break;
 4614              		.loc 1 818 0
 4615 28c0 14301BE5 		ldr	r3, [fp, #-20]
 4616 28c4 6820A0E3 		mov	r2, #104
 4617 28c8 0020C3E5 		strb	r2, [r3, #0]
 4618 28cc 0F0000EA 		b	.L271
 4619              	.L273:
 819:../sintesisVoz.c **** 			case 'e': *id = ye; break;
 4620              		.loc 1 819 0
 4621 28d0 14301BE5 		ldr	r3, [fp, #-20]
 4622 28d4 6920A0E3 		mov	r2, #105
 4623 28d8 0020C3E5 		strb	r2, [r3, #0]
 4624 28dc 0B0000EA 		b	.L271
 4625              	.L274:
 820:../sintesisVoz.c **** 			case 'i': *id = yi; break;
 4626              		.loc 1 820 0
 4627 28e0 14301BE5 		ldr	r3, [fp, #-20]
 4628 28e4 6A20A0E3 		mov	r2, #106
 4629 28e8 0020C3E5 		strb	r2, [r3, #0]
 4630 28ec 070000EA 		b	.L271
 4631              	.L275:
 821:../sintesisVoz.c **** 			case 'o': *id = yo; break;
 4632              		.loc 1 821 0
 4633 28f0 14301BE5 		ldr	r3, [fp, #-20]
 4634 28f4 6B20A0E3 		mov	r2, #107
 4635 28f8 0020C3E5 		strb	r2, [r3, #0]
 4636 28fc 030000EA 		b	.L271
 4637              	.L276:
 822:../sintesisVoz.c **** 			case 'u': *id = yu; break;
 4638              		.loc 1 822 0
 4639 2900 14301BE5 		ldr	r3, [fp, #-20]
 4640 2904 6C20A0E3 		mov	r2, #108
 4641 2908 0020C3E5 		strb	r2, [r3, #0]
 4642 290c 0000A0E1 		mov	r0, r0	@ nop
 4643              	.L271:
 823:../sintesisVoz.c **** 			}
 824:../sintesisVoz.c **** 			break;
 4644              		.loc 1 824 0
 4645 2910 860000EA 		b	.L138
 4646              	.L157:
 825:../sintesisVoz.c **** 		case 'z':
 826:../sintesisVoz.c **** 			switch( txt[1] ) {
 4647              		.loc 1 826 0
 4648 2914 10301BE5 		ldr	r3, [fp, #-16]
 4649 2918 013083E2 		add	r3, r3, #1
 4650 291c 0030D3E5 		ldrb	r3, [r3, #0]	@ zero_extendqisi2
 4651 2920 613043E2 		sub	r3, r3, #97
 4652 2924 140053E3 		cmp	r3, #20
 4653 2928 03F19F97 		ldrls	pc, [pc, r3, asl #2]
 4654 292c 7C0000EA 		b	.L432
 4655              	.L284:
 4656 2930 84290000 		.word	.L279
 4657 2934 242B0000 		.word	.L432
 4658 2938 242B0000 		.word	.L432
 4659 293c 242B0000 		.word	.L432
 4660 2940 94290000 		.word	.L280
 4661 2944 242B0000 		.word	.L432
 4662 2948 242B0000 		.word	.L432
 4663 294c 242B0000 		.word	.L432
 4664 2950 A4290000 		.word	.L281
 4665 2954 242B0000 		.word	.L432
 4666 2958 242B0000 		.word	.L432
 4667 295c 242B0000 		.word	.L432
 4668 2960 242B0000 		.word	.L432
 4669 2964 242B0000 		.word	.L432
 4670 2968 B4290000 		.word	.L282
 4671 296c 242B0000 		.word	.L432
 4672 2970 242B0000 		.word	.L432
 4673 2974 242B0000 		.word	.L432
 4674 2978 242B0000 		.word	.L432
 4675 297c 242B0000 		.word	.L432
 4676 2980 C4290000 		.word	.L283
 4677              	.L279:
 827:../sintesisVoz.c **** 			case 'a': *id = za; break;
 4678              		.loc 1 827 0
 4679 2984 14301BE5 		ldr	r3, [fp, #-20]
 4680 2988 6D20A0E3 		mov	r2, #109
 4681 298c 0020C3E5 		strb	r2, [r3, #0]
 4682 2990 0F0000EA 		b	.L278
 4683              	.L280:
 828:../sintesisVoz.c **** 			case 'e': *id = ze; break;
 4684              		.loc 1 828 0
 4685 2994 14301BE5 		ldr	r3, [fp, #-20]
 4686 2998 6E20A0E3 		mov	r2, #110
 4687 299c 0020C3E5 		strb	r2, [r3, #0]
 4688 29a0 0B0000EA 		b	.L278
 4689              	.L281:
 829:../sintesisVoz.c **** 			case 'i': *id = zi; break;
 4690              		.loc 1 829 0
 4691 29a4 14301BE5 		ldr	r3, [fp, #-20]
 4692 29a8 6F20A0E3 		mov	r2, #111
 4693 29ac 0020C3E5 		strb	r2, [r3, #0]
 4694 29b0 070000EA 		b	.L278
 4695              	.L282:
 830:../sintesisVoz.c **** 			case 'o': *id = zo; break;
 4696              		.loc 1 830 0
 4697 29b4 14301BE5 		ldr	r3, [fp, #-20]
 4698 29b8 7020A0E3 		mov	r2, #112
 4699 29bc 0020C3E5 		strb	r2, [r3, #0]
 4700 29c0 030000EA 		b	.L278
 4701              	.L283:
 831:../sintesisVoz.c **** 			case 'u': *id = zu; break;
 4702              		.loc 1 831 0
 4703 29c4 14301BE5 		ldr	r3, [fp, #-20]
 4704 29c8 7120A0E3 		mov	r2, #113
 4705 29cc 0020C3E5 		strb	r2, [r3, #0]
 4706 29d0 0000A0E1 		mov	r0, r0	@ nop
 4707              	.L278:
 832:../sintesisVoz.c **** 			}
 833:../sintesisVoz.c **** 			break;
 4708              		.loc 1 833 0
 4709 29d4 550000EA 		b	.L138
 4710              	.L139:
 834:../sintesisVoz.c **** 		case 'H':
 835:../sintesisVoz.c **** 			switch( txt[1] ) {
 4711              		.loc 1 835 0
 4712 29d8 10301BE5 		ldr	r3, [fp, #-16]
 4713 29dc 013083E2 		add	r3, r3, #1
 4714 29e0 0030D3E5 		ldrb	r3, [r3, #0]	@ zero_extendqisi2
 4715 29e4 613043E2 		sub	r3, r3, #97
 4716 29e8 140053E3 		cmp	r3, #20
 4717 29ec 03F19F97 		ldrls	pc, [pc, r3, asl #2]
 4718 29f0 4D0000EA 		b	.L433
 4719              	.L291:
 4720 29f4 482A0000 		.word	.L286
 4721 29f8 2C2B0000 		.word	.L433
 4722 29fc 2C2B0000 		.word	.L433
 4723 2a00 2C2B0000 		.word	.L433
 4724 2a04 582A0000 		.word	.L287
 4725 2a08 2C2B0000 		.word	.L433
 4726 2a0c 2C2B0000 		.word	.L433
 4727 2a10 2C2B0000 		.word	.L433
 4728 2a14 682A0000 		.word	.L288
 4729 2a18 2C2B0000 		.word	.L433
 4730 2a1c 2C2B0000 		.word	.L433
 4731 2a20 2C2B0000 		.word	.L433
 4732 2a24 2C2B0000 		.word	.L433
 4733 2a28 2C2B0000 		.word	.L433
 4734 2a2c 782A0000 		.word	.L289
 4735 2a30 2C2B0000 		.word	.L433
 4736 2a34 2C2B0000 		.word	.L433
 4737 2a38 2C2B0000 		.word	.L433
 4738 2a3c 2C2B0000 		.word	.L433
 4739 2a40 2C2B0000 		.word	.L433
 4740 2a44 882A0000 		.word	.L290
 4741              	.L286:
 836:../sintesisVoz.c **** 			case 'a': *id = Ha; break;
 4742              		.loc 1 836 0
 4743 2a48 14301BE5 		ldr	r3, [fp, #-20]
 4744 2a4c 7220A0E3 		mov	r2, #114
 4745 2a50 0020C3E5 		strb	r2, [r3, #0]
 4746 2a54 0F0000EA 		b	.L285
 4747              	.L287:
 837:../sintesisVoz.c **** 			case 'e': *id = He; break;
 4748              		.loc 1 837 0
 4749 2a58 14301BE5 		ldr	r3, [fp, #-20]
 4750 2a5c 7320A0E3 		mov	r2, #115
 4751 2a60 0020C3E5 		strb	r2, [r3, #0]
 4752 2a64 0B0000EA 		b	.L285
 4753              	.L288:
 838:../sintesisVoz.c **** 			case 'i': *id = Hi; break;
 4754              		.loc 1 838 0
 4755 2a68 14301BE5 		ldr	r3, [fp, #-20]
 4756 2a6c 7420A0E3 		mov	r2, #116
 4757 2a70 0020C3E5 		strb	r2, [r3, #0]
 4758 2a74 070000EA 		b	.L285
 4759              	.L289:
 839:../sintesisVoz.c **** 			case 'o': *id = Ho; break;
 4760              		.loc 1 839 0
 4761 2a78 14301BE5 		ldr	r3, [fp, #-20]
 4762 2a7c 7520A0E3 		mov	r2, #117
 4763 2a80 0020C3E5 		strb	r2, [r3, #0]
 4764 2a84 030000EA 		b	.L285
 4765              	.L290:
 840:../sintesisVoz.c **** 			case 'u': *id = Hu; break;
 4766              		.loc 1 840 0
 4767 2a88 14301BE5 		ldr	r3, [fp, #-20]
 4768 2a8c 7620A0E3 		mov	r2, #118
 4769 2a90 0020C3E5 		strb	r2, [r3, #0]
 4770 2a94 0000A0E1 		mov	r0, r0	@ nop
 4771              	.L285:
 841:../sintesisVoz.c **** 			}
 842:../sintesisVoz.c **** 			break;
 4772              		.loc 1 842 0
 4773 2a98 240000EA 		b	.L138
 4774              	.L415:
 680:../sintesisVoz.c ****             break;
 4775              		.loc 1 680 0
 4776 2a9c 0000A0E1 		mov	r0, r0	@ nop
 4777 2aa0 220000EA 		b	.L138
 4778              	.L416:
 689:../sintesisVoz.c **** 			break;
 4779              		.loc 1 689 0
 4780 2aa4 0000A0E1 		mov	r0, r0	@ nop
 4781 2aa8 200000EA 		b	.L138
 4782              	.L417:
 698:../sintesisVoz.c **** 			break;
 4783              		.loc 1 698 0
 4784 2aac 0000A0E1 		mov	r0, r0	@ nop
 4785 2ab0 1E0000EA 		b	.L138
 4786              	.L418:
 707:../sintesisVoz.c **** 			break;
 4787              		.loc 1 707 0
 4788 2ab4 0000A0E1 		mov	r0, r0	@ nop
 4789 2ab8 1C0000EA 		b	.L138
 4790              	.L419:
 716:../sintesisVoz.c **** 			break;
 4791              		.loc 1 716 0
 4792 2abc 0000A0E1 		mov	r0, r0	@ nop
 4793 2ac0 1A0000EA 		b	.L138
 4794              	.L420:
 725:../sintesisVoz.c **** 			break;
 4795              		.loc 1 725 0
 4796 2ac4 0000A0E1 		mov	r0, r0	@ nop
 4797 2ac8 180000EA 		b	.L138
 4798              	.L421:
 734:../sintesisVoz.c **** 			break;
 4799              		.loc 1 734 0
 4800 2acc 0000A0E1 		mov	r0, r0	@ nop
 4801 2ad0 160000EA 		b	.L138
 4802              	.L422:
 743:../sintesisVoz.c **** 			break;
 4803              		.loc 1 743 0
 4804 2ad4 0000A0E1 		mov	r0, r0	@ nop
 4805 2ad8 140000EA 		b	.L138
 4806              	.L423:
 752:../sintesisVoz.c **** 			break;
 4807              		.loc 1 752 0
 4808 2adc 0000A0E1 		mov	r0, r0	@ nop
 4809 2ae0 120000EA 		b	.L138
 4810              	.L424:
 761:../sintesisVoz.c **** 			break;
 4811              		.loc 1 761 0
 4812 2ae4 0000A0E1 		mov	r0, r0	@ nop
 4813 2ae8 100000EA 		b	.L138
 4814              	.L425:
 770:../sintesisVoz.c **** 			break;
 4815              		.loc 1 770 0
 4816 2aec 0000A0E1 		mov	r0, r0	@ nop
 4817 2af0 0E0000EA 		b	.L138
 4818              	.L426:
 779:../sintesisVoz.c **** 			break;
 4819              		.loc 1 779 0
 4820 2af4 0000A0E1 		mov	r0, r0	@ nop
 4821 2af8 0C0000EA 		b	.L138
 4822              	.L427:
 788:../sintesisVoz.c **** 			break;
 4823              		.loc 1 788 0
 4824 2afc 0000A0E1 		mov	r0, r0	@ nop
 4825 2b00 0A0000EA 		b	.L138
 4826              	.L428:
 797:../sintesisVoz.c **** 			break;
 4827              		.loc 1 797 0
 4828 2b04 0000A0E1 		mov	r0, r0	@ nop
 4829 2b08 080000EA 		b	.L138
 4830              	.L429:
 806:../sintesisVoz.c **** 			break;
 4831              		.loc 1 806 0
 4832 2b0c 0000A0E1 		mov	r0, r0	@ nop
 4833 2b10 060000EA 		b	.L138
 4834              	.L430:
 815:../sintesisVoz.c **** 			break;
 4835              		.loc 1 815 0
 4836 2b14 0000A0E1 		mov	r0, r0	@ nop
 4837 2b18 040000EA 		b	.L138
 4838              	.L431:
 824:../sintesisVoz.c **** 			break;
 4839              		.loc 1 824 0
 4840 2b1c 0000A0E1 		mov	r0, r0	@ nop
 4841 2b20 020000EA 		b	.L138
 4842              	.L432:
 833:../sintesisVoz.c **** 			break;
 4843              		.loc 1 833 0
 4844 2b24 0000A0E1 		mov	r0, r0	@ nop
 4845 2b28 000000EA 		b	.L138
 4846              	.L433:
 4847              		.loc 1 842 0
 4848 2b2c 0000A0E1 		mov	r0, r0	@ nop
 4849              	.L138:
 843:../sintesisVoz.c ****         }
 844:../sintesisVoz.c ****         return txt+2;
 4850              		.loc 1 844 0
 4851 2b30 10301BE5 		ldr	r3, [fp, #-16]
 4852 2b34 023083E2 		add	r3, r3, #2
 4853 2b38 440300EA 		b	.L123
 4854              	.L137:
 845:../sintesisVoz.c ****     } else if( esBFGKP( txt[0] ) && txt[1] == 'l' && esVocal( txt[2] ) ) {               // trabada
 4855              		.loc 1 845 0
 4856 2b3c 10301BE5 		ldr	r3, [fp, #-16]
 4857 2b40 0030D3E5 		ldrb	r3, [r3, #0]	@ zero_extendqisi2
 4858 2b44 0300A0E1 		mov	r0, r3
 4859 2b48 B00300EB 		bl	esBFGKP
 4860 2b4c 0030A0E1 		mov	r3, r0
 4861 2b50 000053E3 		cmp	r3, #0
 4862 2b54 2201000A 		beq	.L292
 4863              		.loc 1 845 0 is_stmt 0 discriminator 1
 4864 2b58 10301BE5 		ldr	r3, [fp, #-16]
 4865 2b5c 013083E2 		add	r3, r3, #1
 4866 2b60 0030D3E5 		ldrb	r3, [r3, #0]	@ zero_extendqisi2
 4867 2b64 6C0053E3 		cmp	r3, #108
 4868 2b68 1D01001A 		bne	.L292
 4869 2b6c 10301BE5 		ldr	r3, [fp, #-16]
 4870 2b70 023083E2 		add	r3, r3, #2
 4871 2b74 0030D3E5 		ldrb	r3, [r3, #0]	@ zero_extendqisi2
 4872 2b78 0300A0E1 		mov	r0, r3
 4873 2b7c 480300EB 		bl	esVocal
 4874 2b80 0030A0E1 		mov	r3, r0
 4875 2b84 000053E3 		cmp	r3, #0
 4876 2b88 1501000A 		beq	.L292
 846:../sintesisVoz.c **** 		switch( txt[0] ) {
 4877              		.loc 1 846 0 is_stmt 1
 4878 2b8c 10301BE5 		ldr	r3, [fp, #-16]
 4879 2b90 0030D3E5 		ldrb	r3, [r3, #0]	@ zero_extendqisi2
 4880 2b94 623043E2 		sub	r3, r3, #98
 4881 2b98 0E0053E3 		cmp	r3, #14
 4882 2b9c 03F19F97 		ldrls	pc, [pc, r3, asl #2]
 4883 2ba0 0C0100EA 		b	.L293
 4884              	.L299:
 4885 2ba4 E02B0000 		.word	.L294
 4886 2ba8 D82F0000 		.word	.L293
 4887 2bac D82F0000 		.word	.L293
 4888 2bb0 D82F0000 		.word	.L293
 4889 2bb4 A42C0000 		.word	.L295
 4890 2bb8 682D0000 		.word	.L296
 4891 2bbc D82F0000 		.word	.L293
 4892 2bc0 D82F0000 		.word	.L293
 4893 2bc4 D82F0000 		.word	.L293
 4894 2bc8 2C2E0000 		.word	.L297
 4895 2bcc D82F0000 		.word	.L293
 4896 2bd0 D82F0000 		.word	.L293
 4897 2bd4 D82F0000 		.word	.L293
 4898 2bd8 D82F0000 		.word	.L293
 4899 2bdc F02E0000 		.word	.L298
 4900              	.L294:
 847:../sintesisVoz.c **** 			case 'b':
 848:../sintesisVoz.c **** 	    		switch( txt[2] ) {
 4901              		.loc 1 848 0
 4902 2be0 10301BE5 		ldr	r3, [fp, #-16]
 4903 2be4 023083E2 		add	r3, r3, #2
 4904 2be8 0030D3E5 		ldrb	r3, [r3, #0]	@ zero_extendqisi2
 4905 2bec 613043E2 		sub	r3, r3, #97
 4906 2bf0 140053E3 		cmp	r3, #20
 4907 2bf4 03F19F97 		ldrls	pc, [pc, r3, asl #2]
 4908 2bf8 ED0000EA 		b	.L434
 4909              	.L306:
 4910 2bfc 502C0000 		.word	.L301
 4911 2c00 B42F0000 		.word	.L434
 4912 2c04 B42F0000 		.word	.L434
 4913 2c08 B42F0000 		.word	.L434
 4914 2c0c 602C0000 		.word	.L302
 4915 2c10 B42F0000 		.word	.L434
 4916 2c14 B42F0000 		.word	.L434
 4917 2c18 B42F0000 		.word	.L434
 4918 2c1c 702C0000 		.word	.L303
 4919 2c20 B42F0000 		.word	.L434
 4920 2c24 B42F0000 		.word	.L434
 4921 2c28 B42F0000 		.word	.L434
 4922 2c2c B42F0000 		.word	.L434
 4923 2c30 B42F0000 		.word	.L434
 4924 2c34 802C0000 		.word	.L304
 4925 2c38 B42F0000 		.word	.L434
 4926 2c3c B42F0000 		.word	.L434
 4927 2c40 B42F0000 		.word	.L434
 4928 2c44 B42F0000 		.word	.L434
 4929 2c48 B42F0000 		.word	.L434
 4930 2c4c 902C0000 		.word	.L305
 4931              	.L301:
 849:../sintesisVoz.c **** 					case 'a': *id = bla; break;
 4932              		.loc 1 849 0
 4933 2c50 14301BE5 		ldr	r3, [fp, #-20]
 4934 2c54 7720A0E3 		mov	r2, #119
 4935 2c58 0020C3E5 		strb	r2, [r3, #0]
 4936 2c5c 0F0000EA 		b	.L300
 4937              	.L302:
 850:../sintesisVoz.c **** 					case 'e': *id = ble; break;
 4938              		.loc 1 850 0
 4939 2c60 14301BE5 		ldr	r3, [fp, #-20]
 4940 2c64 7820A0E3 		mov	r2, #120
 4941 2c68 0020C3E5 		strb	r2, [r3, #0]
 4942 2c6c 0B0000EA 		b	.L300
 4943              	.L303:
 851:../sintesisVoz.c **** 					case 'i': *id = bli; break;
 4944              		.loc 1 851 0
 4945 2c70 14301BE5 		ldr	r3, [fp, #-20]
 4946 2c74 7920A0E3 		mov	r2, #121
 4947 2c78 0020C3E5 		strb	r2, [r3, #0]
 4948 2c7c 070000EA 		b	.L300
 4949              	.L304:
 852:../sintesisVoz.c **** 					case 'o': *id = blo; break;
 4950              		.loc 1 852 0
 4951 2c80 14301BE5 		ldr	r3, [fp, #-20]
 4952 2c84 7A20A0E3 		mov	r2, #122
 4953 2c88 0020C3E5 		strb	r2, [r3, #0]
 4954 2c8c 030000EA 		b	.L300
 4955              	.L305:
 853:../sintesisVoz.c **** 					case 'u': *id = blu; break;
 4956              		.loc 1 853 0
 4957 2c90 14301BE5 		ldr	r3, [fp, #-20]
 4958 2c94 7B20A0E3 		mov	r2, #123
 4959 2c98 0020C3E5 		strb	r2, [r3, #0]
 4960 2c9c 0000A0E1 		mov	r0, r0	@ nop
 4961              	.L300:
 854:../sintesisVoz.c **** 				}
 855:../sintesisVoz.c **** 	    		break;
 4962              		.loc 1 855 0
 4963 2ca0 CC0000EA 		b	.L293
 4964              	.L295:
 856:../sintesisVoz.c **** 			case 'f':
 857:../sintesisVoz.c **** 				switch( txt[2] ) {
 4965              		.loc 1 857 0
 4966 2ca4 10301BE5 		ldr	r3, [fp, #-16]
 4967 2ca8 023083E2 		add	r3, r3, #2
 4968 2cac 0030D3E5 		ldrb	r3, [r3, #0]	@ zero_extendqisi2
 4969 2cb0 613043E2 		sub	r3, r3, #97
 4970 2cb4 140053E3 		cmp	r3, #20
 4971 2cb8 03F19F97 		ldrls	pc, [pc, r3, asl #2]
 4972 2cbc BE0000EA 		b	.L435
 4973              	.L313:
 4974 2cc0 142D0000 		.word	.L308
 4975 2cc4 BC2F0000 		.word	.L435
 4976 2cc8 BC2F0000 		.word	.L435
 4977 2ccc BC2F0000 		.word	.L435
 4978 2cd0 242D0000 		.word	.L309
 4979 2cd4 BC2F0000 		.word	.L435
 4980 2cd8 BC2F0000 		.word	.L435
 4981 2cdc BC2F0000 		.word	.L435
 4982 2ce0 342D0000 		.word	.L310
 4983 2ce4 BC2F0000 		.word	.L435
 4984 2ce8 BC2F0000 		.word	.L435
 4985 2cec BC2F0000 		.word	.L435
 4986 2cf0 BC2F0000 		.word	.L435
 4987 2cf4 BC2F0000 		.word	.L435
 4988 2cf8 442D0000 		.word	.L311
 4989 2cfc BC2F0000 		.word	.L435
 4990 2d00 BC2F0000 		.word	.L435
 4991 2d04 BC2F0000 		.word	.L435
 4992 2d08 BC2F0000 		.word	.L435
 4993 2d0c BC2F0000 		.word	.L435
 4994 2d10 542D0000 		.word	.L312
 4995              	.L308:
 858:../sintesisVoz.c **** 					case 'a': *id = fla; break;
 4996              		.loc 1 858 0
 4997 2d14 14301BE5 		ldr	r3, [fp, #-20]
 4998 2d18 7E20E0E3 		mvn	r2, #126
 4999 2d1c 0020C3E5 		strb	r2, [r3, #0]
 5000 2d20 0F0000EA 		b	.L307
 5001              	.L309:
 859:../sintesisVoz.c **** 					case 'e': *id = fle; break;
 5002              		.loc 1 859 0
 5003 2d24 14301BE5 		ldr	r3, [fp, #-20]
 5004 2d28 7D20E0E3 		mvn	r2, #125
 5005 2d2c 0020C3E5 		strb	r2, [r3, #0]
 5006 2d30 0B0000EA 		b	.L307
 5007              	.L310:
 860:../sintesisVoz.c **** 					case 'i': *id = fli; break;
 5008              		.loc 1 860 0
 5009 2d34 14301BE5 		ldr	r3, [fp, #-20]
 5010 2d38 7C20E0E3 		mvn	r2, #124
 5011 2d3c 0020C3E5 		strb	r2, [r3, #0]
 5012 2d40 070000EA 		b	.L307
 5013              	.L311:
 861:../sintesisVoz.c **** 					case 'o': *id = flo; break;
 5014              		.loc 1 861 0
 5015 2d44 14301BE5 		ldr	r3, [fp, #-20]
 5016 2d48 7B20E0E3 		mvn	r2, #123
 5017 2d4c 0020C3E5 		strb	r2, [r3, #0]
 5018 2d50 030000EA 		b	.L307
 5019              	.L312:
 862:../sintesisVoz.c **** 					case 'u': *id = flu; break;
 5020              		.loc 1 862 0
 5021 2d54 14301BE5 		ldr	r3, [fp, #-20]
 5022 2d58 7A20E0E3 		mvn	r2, #122
 5023 2d5c 0020C3E5 		strb	r2, [r3, #0]
 5024 2d60 0000A0E1 		mov	r0, r0	@ nop
 5025              	.L307:
 863:../sintesisVoz.c **** 				}
 864:../sintesisVoz.c **** 				break;
 5026              		.loc 1 864 0
 5027 2d64 9B0000EA 		b	.L293
 5028              	.L296:
 865:../sintesisVoz.c **** 			case 'g':
 866:../sintesisVoz.c **** 				switch( txt[2] ) {
 5029              		.loc 1 866 0
 5030 2d68 10301BE5 		ldr	r3, [fp, #-16]
 5031 2d6c 023083E2 		add	r3, r3, #2
 5032 2d70 0030D3E5 		ldrb	r3, [r3, #0]	@ zero_extendqisi2
 5033 2d74 613043E2 		sub	r3, r3, #97
 5034 2d78 140053E3 		cmp	r3, #20
 5035 2d7c 03F19F97 		ldrls	pc, [pc, r3, asl #2]
 5036 2d80 8F0000EA 		b	.L436
 5037              	.L320:
 5038 2d84 D82D0000 		.word	.L315
 5039 2d88 C42F0000 		.word	.L436
 5040 2d8c C42F0000 		.word	.L436
 5041 2d90 C42F0000 		.word	.L436
 5042 2d94 E82D0000 		.word	.L316
 5043 2d98 C42F0000 		.word	.L436
 5044 2d9c C42F0000 		.word	.L436
 5045 2da0 C42F0000 		.word	.L436
 5046 2da4 F82D0000 		.word	.L317
 5047 2da8 C42F0000 		.word	.L436
 5048 2dac C42F0000 		.word	.L436
 5049 2db0 C42F0000 		.word	.L436
 5050 2db4 C42F0000 		.word	.L436
 5051 2db8 C42F0000 		.word	.L436
 5052 2dbc 082E0000 		.word	.L318
 5053 2dc0 C42F0000 		.word	.L436
 5054 2dc4 C42F0000 		.word	.L436
 5055 2dc8 C42F0000 		.word	.L436
 5056 2dcc C42F0000 		.word	.L436
 5057 2dd0 C42F0000 		.word	.L436
 5058 2dd4 182E0000 		.word	.L319
 5059              	.L315:
 867:../sintesisVoz.c **** 					case 'a': *id = gla; break;
 5060              		.loc 1 867 0
 5061 2dd8 14301BE5 		ldr	r3, [fp, #-20]
 5062 2ddc 7420E0E3 		mvn	r2, #116
 5063 2de0 0020C3E5 		strb	r2, [r3, #0]
 5064 2de4 0F0000EA 		b	.L314
 5065              	.L316:
 868:../sintesisVoz.c **** 					case 'e': *id = gle; break;
 5066              		.loc 1 868 0
 5067 2de8 14301BE5 		ldr	r3, [fp, #-20]
 5068 2dec 7320E0E3 		mvn	r2, #115
 5069 2df0 0020C3E5 		strb	r2, [r3, #0]
 5070 2df4 0B0000EA 		b	.L314
 5071              	.L317:
 869:../sintesisVoz.c **** 					case 'i': *id = gli; break;
 5072              		.loc 1 869 0
 5073 2df8 14301BE5 		ldr	r3, [fp, #-20]
 5074 2dfc 7220E0E3 		mvn	r2, #114
 5075 2e00 0020C3E5 		strb	r2, [r3, #0]
 5076 2e04 070000EA 		b	.L314
 5077              	.L318:
 870:../sintesisVoz.c **** 					case 'o': *id = glo; break;
 5078              		.loc 1 870 0
 5079 2e08 14301BE5 		ldr	r3, [fp, #-20]
 5080 2e0c 7120E0E3 		mvn	r2, #113
 5081 2e10 0020C3E5 		strb	r2, [r3, #0]
 5082 2e14 030000EA 		b	.L314
 5083              	.L319:
 871:../sintesisVoz.c **** 					case 'u': *id = glu; break;
 5084              		.loc 1 871 0
 5085 2e18 14301BE5 		ldr	r3, [fp, #-20]
 5086 2e1c 7020E0E3 		mvn	r2, #112
 5087 2e20 0020C3E5 		strb	r2, [r3, #0]
 5088 2e24 0000A0E1 		mov	r0, r0	@ nop
 5089              	.L314:
 872:../sintesisVoz.c **** 				}
 873:../sintesisVoz.c **** 				break;
 5090              		.loc 1 873 0
 5091 2e28 6A0000EA 		b	.L293
 5092              	.L297:
 874:../sintesisVoz.c **** 			case 'k':
 875:../sintesisVoz.c **** 				switch( txt[2] ) {
 5093              		.loc 1 875 0
 5094 2e2c 10301BE5 		ldr	r3, [fp, #-16]
 5095 2e30 023083E2 		add	r3, r3, #2
 5096 2e34 0030D3E5 		ldrb	r3, [r3, #0]	@ zero_extendqisi2
 5097 2e38 613043E2 		sub	r3, r3, #97
 5098 2e3c 140053E3 		cmp	r3, #20
 5099 2e40 03F19F97 		ldrls	pc, [pc, r3, asl #2]
 5100 2e44 600000EA 		b	.L437
 5101              	.L327:
 5102 2e48 9C2E0000 		.word	.L322
 5103 2e4c CC2F0000 		.word	.L437
 5104 2e50 CC2F0000 		.word	.L437
 5105 2e54 CC2F0000 		.word	.L437
 5106 2e58 AC2E0000 		.word	.L323
 5107 2e5c CC2F0000 		.word	.L437
 5108 2e60 CC2F0000 		.word	.L437
 5109 2e64 CC2F0000 		.word	.L437
 5110 2e68 BC2E0000 		.word	.L324
 5111 2e6c CC2F0000 		.word	.L437
 5112 2e70 CC2F0000 		.word	.L437
 5113 2e74 CC2F0000 		.word	.L437
 5114 2e78 CC2F0000 		.word	.L437
 5115 2e7c CC2F0000 		.word	.L437
 5116 2e80 CC2E0000 		.word	.L325
 5117 2e84 CC2F0000 		.word	.L437
 5118 2e88 CC2F0000 		.word	.L437
 5119 2e8c CC2F0000 		.word	.L437
 5120 2e90 CC2F0000 		.word	.L437
 5121 2e94 CC2F0000 		.word	.L437
 5122 2e98 DC2E0000 		.word	.L326
 5123              	.L322:
 876:../sintesisVoz.c **** 					case 'a': *id = kla; break;
 5124              		.loc 1 876 0
 5125 2e9c 14301BE5 		ldr	r3, [fp, #-20]
 5126 2ea0 6A20E0E3 		mvn	r2, #106
 5127 2ea4 0020C3E5 		strb	r2, [r3, #0]
 5128 2ea8 0F0000EA 		b	.L321
 5129              	.L323:
 877:../sintesisVoz.c **** 					case 'e': *id = kle; break;
 5130              		.loc 1 877 0
 5131 2eac 14301BE5 		ldr	r3, [fp, #-20]
 5132 2eb0 6920E0E3 		mvn	r2, #105
 5133 2eb4 0020C3E5 		strb	r2, [r3, #0]
 5134 2eb8 0B0000EA 		b	.L321
 5135              	.L324:
 878:../sintesisVoz.c **** 					case 'i': *id = kli; break;
 5136              		.loc 1 878 0
 5137 2ebc 14301BE5 		ldr	r3, [fp, #-20]
 5138 2ec0 6820E0E3 		mvn	r2, #104
 5139 2ec4 0020C3E5 		strb	r2, [r3, #0]
 5140 2ec8 070000EA 		b	.L321
 5141              	.L325:
 879:../sintesisVoz.c **** 					case 'o': *id = klo; break;
 5142              		.loc 1 879 0
 5143 2ecc 14301BE5 		ldr	r3, [fp, #-20]
 5144 2ed0 6720E0E3 		mvn	r2, #103
 5145 2ed4 0020C3E5 		strb	r2, [r3, #0]
 5146 2ed8 030000EA 		b	.L321
 5147              	.L326:
 880:../sintesisVoz.c **** 					case 'u': *id = klu; break;
 5148              		.loc 1 880 0
 5149 2edc 14301BE5 		ldr	r3, [fp, #-20]
 5150 2ee0 6620E0E3 		mvn	r2, #102
 5151 2ee4 0020C3E5 		strb	r2, [r3, #0]
 5152 2ee8 0000A0E1 		mov	r0, r0	@ nop
 5153              	.L321:
 881:../sintesisVoz.c **** 				}
 882:../sintesisVoz.c **** 				break;
 5154              		.loc 1 882 0
 5155 2eec 390000EA 		b	.L293
 5156              	.L298:
 883:../sintesisVoz.c **** 			case 'p':
 884:../sintesisVoz.c **** 				switch( txt[2] ) {
 5157              		.loc 1 884 0
 5158 2ef0 10301BE5 		ldr	r3, [fp, #-16]
 5159 2ef4 023083E2 		add	r3, r3, #2
 5160 2ef8 0030D3E5 		ldrb	r3, [r3, #0]	@ zero_extendqisi2
 5161 2efc 613043E2 		sub	r3, r3, #97
 5162 2f00 140053E3 		cmp	r3, #20
 5163 2f04 03F19F97 		ldrls	pc, [pc, r3, asl #2]
 5164 2f08 310000EA 		b	.L438
 5165              	.L334:
 5166 2f0c 602F0000 		.word	.L329
 5167 2f10 D42F0000 		.word	.L438
 5168 2f14 D42F0000 		.word	.L438
 5169 2f18 D42F0000 		.word	.L438
 5170 2f1c 702F0000 		.word	.L330
 5171 2f20 D42F0000 		.word	.L438
 5172 2f24 D42F0000 		.word	.L438
 5173 2f28 D42F0000 		.word	.L438
 5174 2f2c 802F0000 		.word	.L331
 5175 2f30 D42F0000 		.word	.L438
 5176 2f34 D42F0000 		.word	.L438
 5177 2f38 D42F0000 		.word	.L438
 5178 2f3c D42F0000 		.word	.L438
 5179 2f40 D42F0000 		.word	.L438
 5180 2f44 902F0000 		.word	.L332
 5181 2f48 D42F0000 		.word	.L438
 5182 2f4c D42F0000 		.word	.L438
 5183 2f50 D42F0000 		.word	.L438
 5184 2f54 D42F0000 		.word	.L438
 5185 2f58 D42F0000 		.word	.L438
 5186 2f5c A02F0000 		.word	.L333
 5187              	.L329:
 885:../sintesisVoz.c **** 					case 'a': *id = pla; break;
 5188              		.loc 1 885 0
 5189 2f60 14301BE5 		ldr	r3, [fp, #-20]
 5190 2f64 6020E0E3 		mvn	r2, #96
 5191 2f68 0020C3E5 		strb	r2, [r3, #0]
 5192 2f6c 0F0000EA 		b	.L328
 5193              	.L330:
 886:../sintesisVoz.c **** 					case 'e': *id = ple; break;
 5194              		.loc 1 886 0
 5195 2f70 14301BE5 		ldr	r3, [fp, #-20]
 5196 2f74 5F20E0E3 		mvn	r2, #95
 5197 2f78 0020C3E5 		strb	r2, [r3, #0]
 5198 2f7c 0B0000EA 		b	.L328
 5199              	.L331:
 887:../sintesisVoz.c **** 					case 'i': *id = pli; break;
 5200              		.loc 1 887 0
 5201 2f80 14301BE5 		ldr	r3, [fp, #-20]
 5202 2f84 5E20E0E3 		mvn	r2, #94
 5203 2f88 0020C3E5 		strb	r2, [r3, #0]
 5204 2f8c 070000EA 		b	.L328
 5205              	.L332:
 888:../sintesisVoz.c **** 					case 'o': *id = plo; break;
 5206              		.loc 1 888 0
 5207 2f90 14301BE5 		ldr	r3, [fp, #-20]
 5208 2f94 5D20E0E3 		mvn	r2, #93
 5209 2f98 0020C3E5 		strb	r2, [r3, #0]
 5210 2f9c 030000EA 		b	.L328
 5211              	.L333:
 889:../sintesisVoz.c **** 					case 'u': *id = plu; break;
 5212              		.loc 1 889 0
 5213 2fa0 14301BE5 		ldr	r3, [fp, #-20]
 5214 2fa4 5C20E0E3 		mvn	r2, #92
 5215 2fa8 0020C3E5 		strb	r2, [r3, #0]
 5216 2fac 0000A0E1 		mov	r0, r0	@ nop
 5217              	.L328:
 890:../sintesisVoz.c **** 				}
 891:../sintesisVoz.c **** 				break;
 5218              		.loc 1 891 0
 5219 2fb0 080000EA 		b	.L293
 5220              	.L434:
 855:../sintesisVoz.c **** 	    		break;
 5221              		.loc 1 855 0
 5222 2fb4 0000A0E1 		mov	r0, r0	@ nop
 5223 2fb8 060000EA 		b	.L293
 5224              	.L435:
 864:../sintesisVoz.c **** 				break;
 5225              		.loc 1 864 0
 5226 2fbc 0000A0E1 		mov	r0, r0	@ nop
 5227 2fc0 040000EA 		b	.L293
 5228              	.L436:
 873:../sintesisVoz.c **** 				break;
 5229              		.loc 1 873 0
 5230 2fc4 0000A0E1 		mov	r0, r0	@ nop
 5231 2fc8 020000EA 		b	.L293
 5232              	.L437:
 882:../sintesisVoz.c **** 				break;
 5233              		.loc 1 882 0
 5234 2fcc 0000A0E1 		mov	r0, r0	@ nop
 5235 2fd0 000000EA 		b	.L293
 5236              	.L438:
 5237              		.loc 1 891 0
 5238 2fd4 0000A0E1 		mov	r0, r0	@ nop
 5239              	.L293:
 892:../sintesisVoz.c **** 		}
 893:../sintesisVoz.c ****         return txt+3;
 5240              		.loc 1 893 0
 5241 2fd8 10301BE5 		ldr	r3, [fp, #-16]
 5242 2fdc 033083E2 		add	r3, r3, #3
 5243 2fe0 1A0200EA 		b	.L123
 5244              	.L292:
 894:../sintesisVoz.c ****     } else if( esBDFGKPT( txt[0] ) && txt[1] == 'r' && esVocal( txt[2] ) ) {            // trabadas
 5245              		.loc 1 894 0
 5246 2fe4 10301BE5 		ldr	r3, [fp, #-16]
 5247 2fe8 0030D3E5 		ldrb	r3, [r3, #0]	@ zero_extendqisi2
 5248 2fec 0300A0E1 		mov	r0, r3
 5249 2ff0 9C0200EB 		bl	esBDFGKPT
 5250 2ff4 0030A0E1 		mov	r3, r0
 5251 2ff8 000053E3 		cmp	r3, #0
 5252 2ffc 8C01000A 		beq	.L335
 5253              		.loc 1 894 0 is_stmt 0 discriminator 1
 5254 3000 10301BE5 		ldr	r3, [fp, #-16]
 5255 3004 013083E2 		add	r3, r3, #1
 5256 3008 0030D3E5 		ldrb	r3, [r3, #0]	@ zero_extendqisi2
 5257 300c 720053E3 		cmp	r3, #114
 5258 3010 8701001A 		bne	.L335
 5259 3014 10301BE5 		ldr	r3, [fp, #-16]
 5260 3018 023083E2 		add	r3, r3, #2
 5261 301c 0030D3E5 		ldrb	r3, [r3, #0]	@ zero_extendqisi2
 5262 3020 0300A0E1 		mov	r0, r3
 5263 3024 1E0200EB 		bl	esVocal
 5264 3028 0030A0E1 		mov	r3, r0
 5265 302c 000053E3 		cmp	r3, #0
 5266 3030 7F01000A 		beq	.L335
 895:../sintesisVoz.c **** 		switch( txt[0] ) {
 5267              		.loc 1 895 0 is_stmt 1
 5268 3034 10301BE5 		ldr	r3, [fp, #-16]
 5269 3038 0030D3E5 		ldrb	r3, [r3, #0]	@ zero_extendqisi2
 5270 303c 623043E2 		sub	r3, r3, #98
 5271 3040 120053E3 		cmp	r3, #18
 5272 3044 03F19F97 		ldrls	pc, [pc, r3, asl #2]
 5273 3048 760100EA 		b	.L336
 5274              	.L344:
 5275 304c 98300000 		.word	.L337
 5276 3050 28360000 		.word	.L336
 5277 3054 30350000 		.word	.L338
 5278 3058 28360000 		.word	.L336
 5279 305c 5C310000 		.word	.L339
 5280 3060 20320000 		.word	.L340
 5281 3064 28360000 		.word	.L336
 5282 3068 28360000 		.word	.L336
 5283 306c 28360000 		.word	.L336
 5284 3070 E4320000 		.word	.L341
 5285 3074 28360000 		.word	.L336
 5286 3078 28360000 		.word	.L336
 5287 307c 28360000 		.word	.L336
 5288 3080 28360000 		.word	.L336
 5289 3084 A8330000 		.word	.L342
 5290 3088 28360000 		.word	.L336
 5291 308c 28360000 		.word	.L336
 5292 3090 28360000 		.word	.L336
 5293 3094 6C340000 		.word	.L343
 5294              	.L337:
 896:../sintesisVoz.c **** 			case 'b':
 897:../sintesisVoz.c **** 	    		switch( txt[2] ) {
 5295              		.loc 1 897 0
 5296 3098 10301BE5 		ldr	r3, [fp, #-16]
 5297 309c 023083E2 		add	r3, r3, #2
 5298 30a0 0030D3E5 		ldrb	r3, [r3, #0]	@ zero_extendqisi2
 5299 30a4 613043E2 		sub	r3, r3, #97
 5300 30a8 140053E3 		cmp	r3, #20
 5301 30ac 03F19F97 		ldrls	pc, [pc, r3, asl #2]
 5302 30b0 4F0100EA 		b	.L439
 5303              	.L351:
 5304 30b4 08310000 		.word	.L346
 5305 30b8 F4350000 		.word	.L439
 5306 30bc F4350000 		.word	.L439
 5307 30c0 F4350000 		.word	.L439
 5308 30c4 18310000 		.word	.L347
 5309 30c8 F4350000 		.word	.L439
 5310 30cc F4350000 		.word	.L439
 5311 30d0 F4350000 		.word	.L439
 5312 30d4 28310000 		.word	.L348
 5313 30d8 F4350000 		.word	.L439
 5314 30dc F4350000 		.word	.L439
 5315 30e0 F4350000 		.word	.L439
 5316 30e4 F4350000 		.word	.L439
 5317 30e8 F4350000 		.word	.L439
 5318 30ec 38310000 		.word	.L349
 5319 30f0 F4350000 		.word	.L439
 5320 30f4 F4350000 		.word	.L439
 5321 30f8 F4350000 		.word	.L439
 5322 30fc F4350000 		.word	.L439
 5323 3100 F4350000 		.word	.L439
 5324 3104 48310000 		.word	.L350
 5325              	.L346:
 898:../sintesisVoz.c **** 					case 'a': *id = bra; break;
 5326              		.loc 1 898 0
 5327 3108 14301BE5 		ldr	r3, [fp, #-20]
 5328 310c 7C20A0E3 		mov	r2, #124
 5329 3110 0020C3E5 		strb	r2, [r3, #0]
 5330 3114 0F0000EA 		b	.L345
 5331              	.L347:
 899:../sintesisVoz.c **** 					case 'e': *id = bre; break;
 5332              		.loc 1 899 0
 5333 3118 14301BE5 		ldr	r3, [fp, #-20]
 5334 311c 7D20A0E3 		mov	r2, #125
 5335 3120 0020C3E5 		strb	r2, [r3, #0]
 5336 3124 0B0000EA 		b	.L345
 5337              	.L348:
 900:../sintesisVoz.c **** 					case 'i': *id = bri; break;
 5338              		.loc 1 900 0
 5339 3128 14301BE5 		ldr	r3, [fp, #-20]
 5340 312c 7E20A0E3 		mov	r2, #126
 5341 3130 0020C3E5 		strb	r2, [r3, #0]
 5342 3134 070000EA 		b	.L345
 5343              	.L349:
 901:../sintesisVoz.c **** 					case 'o': *id = bro; break;
 5344              		.loc 1 901 0
 5345 3138 14301BE5 		ldr	r3, [fp, #-20]
 5346 313c 7F20A0E3 		mov	r2, #127
 5347 3140 0020C3E5 		strb	r2, [r3, #0]
 5348 3144 030000EA 		b	.L345
 5349              	.L350:
 902:../sintesisVoz.c **** 					case 'u': *id = bru; break;
 5350              		.loc 1 902 0
 5351 3148 14301BE5 		ldr	r3, [fp, #-20]
 5352 314c 7F20E0E3 		mvn	r2, #127
 5353 3150 0020C3E5 		strb	r2, [r3, #0]
 5354 3154 0000A0E1 		mov	r0, r0	@ nop
 5355              	.L345:
 903:../sintesisVoz.c **** 				}
 904:../sintesisVoz.c **** 	    		break;
 5356              		.loc 1 904 0
 5357 3158 320100EA 		b	.L336
 5358              	.L339:
 905:../sintesisVoz.c **** 			case 'f':
 906:../sintesisVoz.c **** 				switch( txt[2] ) {
 5359              		.loc 1 906 0
 5360 315c 10301BE5 		ldr	r3, [fp, #-16]
 5361 3160 023083E2 		add	r3, r3, #2
 5362 3164 0030D3E5 		ldrb	r3, [r3, #0]	@ zero_extendqisi2
 5363 3168 613043E2 		sub	r3, r3, #97
 5364 316c 140053E3 		cmp	r3, #20
 5365 3170 03F19F97 		ldrls	pc, [pc, r3, asl #2]
 5366 3174 200100EA 		b	.L440
 5367              	.L358:
 5368 3178 CC310000 		.word	.L353
 5369 317c FC350000 		.word	.L440
 5370 3180 FC350000 		.word	.L440
 5371 3184 FC350000 		.word	.L440
 5372 3188 DC310000 		.word	.L354
 5373 318c FC350000 		.word	.L440
 5374 3190 FC350000 		.word	.L440
 5375 3194 FC350000 		.word	.L440
 5376 3198 EC310000 		.word	.L355
 5377 319c FC350000 		.word	.L440
 5378 31a0 FC350000 		.word	.L440
 5379 31a4 FC350000 		.word	.L440
 5380 31a8 FC350000 		.word	.L440
 5381 31ac FC350000 		.word	.L440
 5382 31b0 FC310000 		.word	.L356
 5383 31b4 FC350000 		.word	.L440
 5384 31b8 FC350000 		.word	.L440
 5385 31bc FC350000 		.word	.L440
 5386 31c0 FC350000 		.word	.L440
 5387 31c4 FC350000 		.word	.L440
 5388 31c8 0C320000 		.word	.L357
 5389              	.L353:
 907:../sintesisVoz.c **** 					case 'a': *id = fra; break;
 5390              		.loc 1 907 0
 5391 31cc 14301BE5 		ldr	r3, [fp, #-20]
 5392 31d0 7920E0E3 		mvn	r2, #121
 5393 31d4 0020C3E5 		strb	r2, [r3, #0]
 5394 31d8 0F0000EA 		b	.L352
 5395              	.L354:
 908:../sintesisVoz.c **** 					case 'e': *id = fre; break;
 5396              		.loc 1 908 0
 5397 31dc 14301BE5 		ldr	r3, [fp, #-20]
 5398 31e0 7820E0E3 		mvn	r2, #120
 5399 31e4 0020C3E5 		strb	r2, [r3, #0]
 5400 31e8 0B0000EA 		b	.L352
 5401              	.L355:
 909:../sintesisVoz.c **** 					case 'i': *id = fri; break;
 5402              		.loc 1 909 0
 5403 31ec 14301BE5 		ldr	r3, [fp, #-20]
 5404 31f0 7720E0E3 		mvn	r2, #119
 5405 31f4 0020C3E5 		strb	r2, [r3, #0]
 5406 31f8 070000EA 		b	.L352
 5407              	.L356:
 910:../sintesisVoz.c **** 					case 'o': *id = fro; break;
 5408              		.loc 1 910 0
 5409 31fc 14301BE5 		ldr	r3, [fp, #-20]
 5410 3200 7620E0E3 		mvn	r2, #118
 5411 3204 0020C3E5 		strb	r2, [r3, #0]
 5412 3208 030000EA 		b	.L352
 5413              	.L357:
 911:../sintesisVoz.c **** 					case 'u': *id = fru; break;
 5414              		.loc 1 911 0
 5415 320c 14301BE5 		ldr	r3, [fp, #-20]
 5416 3210 7520E0E3 		mvn	r2, #117
 5417 3214 0020C3E5 		strb	r2, [r3, #0]
 5418 3218 0000A0E1 		mov	r0, r0	@ nop
 5419              	.L352:
 912:../sintesisVoz.c **** 				}
 913:../sintesisVoz.c **** 				break;
 5420              		.loc 1 913 0
 5421 321c 010100EA 		b	.L336
 5422              	.L340:
 914:../sintesisVoz.c **** 			case 'g':
 915:../sintesisVoz.c **** 				switch( txt[2] ) {
 5423              		.loc 1 915 0
 5424 3220 10301BE5 		ldr	r3, [fp, #-16]
 5425 3224 023083E2 		add	r3, r3, #2
 5426 3228 0030D3E5 		ldrb	r3, [r3, #0]	@ zero_extendqisi2
 5427 322c 613043E2 		sub	r3, r3, #97
 5428 3230 140053E3 		cmp	r3, #20
 5429 3234 03F19F97 		ldrls	pc, [pc, r3, asl #2]
 5430 3238 F10000EA 		b	.L441
 5431              	.L365:
 5432 323c 90320000 		.word	.L360
 5433 3240 04360000 		.word	.L441
 5434 3244 04360000 		.word	.L441
 5435 3248 04360000 		.word	.L441
 5436 324c A0320000 		.word	.L361
 5437 3250 04360000 		.word	.L441
 5438 3254 04360000 		.word	.L441
 5439 3258 04360000 		.word	.L441
 5440 325c B0320000 		.word	.L362
 5441 3260 04360000 		.word	.L441
 5442 3264 04360000 		.word	.L441
 5443 3268 04360000 		.word	.L441
 5444 326c 04360000 		.word	.L441
 5445 3270 04360000 		.word	.L441
 5446 3274 C0320000 		.word	.L363
 5447 3278 04360000 		.word	.L441
 5448 327c 04360000 		.word	.L441
 5449 3280 04360000 		.word	.L441
 5450 3284 04360000 		.word	.L441
 5451 3288 04360000 		.word	.L441
 5452 328c D0320000 		.word	.L364
 5453              	.L360:
 916:../sintesisVoz.c **** 					case 'a': *id = gra; break;
 5454              		.loc 1 916 0
 5455 3290 14301BE5 		ldr	r3, [fp, #-20]
 5456 3294 6F20E0E3 		mvn	r2, #111
 5457 3298 0020C3E5 		strb	r2, [r3, #0]
 5458 329c 0F0000EA 		b	.L359
 5459              	.L361:
 917:../sintesisVoz.c **** 					case 'e': *id = gre; break;
 5460              		.loc 1 917 0
 5461 32a0 14301BE5 		ldr	r3, [fp, #-20]
 5462 32a4 6E20E0E3 		mvn	r2, #110
 5463 32a8 0020C3E5 		strb	r2, [r3, #0]
 5464 32ac 0B0000EA 		b	.L359
 5465              	.L362:
 918:../sintesisVoz.c **** 					case 'i': *id = gri; break;
 5466              		.loc 1 918 0
 5467 32b0 14301BE5 		ldr	r3, [fp, #-20]
 5468 32b4 6D20E0E3 		mvn	r2, #109
 5469 32b8 0020C3E5 		strb	r2, [r3, #0]
 5470 32bc 070000EA 		b	.L359
 5471              	.L363:
 919:../sintesisVoz.c **** 					case 'o': *id = gro; break;
 5472              		.loc 1 919 0
 5473 32c0 14301BE5 		ldr	r3, [fp, #-20]
 5474 32c4 6C20E0E3 		mvn	r2, #108
 5475 32c8 0020C3E5 		strb	r2, [r3, #0]
 5476 32cc 030000EA 		b	.L359
 5477              	.L364:
 920:../sintesisVoz.c **** 					case 'u': *id = gru; break;
 5478              		.loc 1 920 0
 5479 32d0 14301BE5 		ldr	r3, [fp, #-20]
 5480 32d4 6B20E0E3 		mvn	r2, #107
 5481 32d8 0020C3E5 		strb	r2, [r3, #0]
 5482 32dc 0000A0E1 		mov	r0, r0	@ nop
 5483              	.L359:
 921:../sintesisVoz.c **** 				}
 922:../sintesisVoz.c **** 				break;
 5484              		.loc 1 922 0
 5485 32e0 D00000EA 		b	.L336
 5486              	.L341:
 923:../sintesisVoz.c **** 			case 'k':
 924:../sintesisVoz.c **** 				switch( txt[2] ) {
 5487              		.loc 1 924 0
 5488 32e4 10301BE5 		ldr	r3, [fp, #-16]
 5489 32e8 023083E2 		add	r3, r3, #2
 5490 32ec 0030D3E5 		ldrb	r3, [r3, #0]	@ zero_extendqisi2
 5491 32f0 613043E2 		sub	r3, r3, #97
 5492 32f4 140053E3 		cmp	r3, #20
 5493 32f8 03F19F97 		ldrls	pc, [pc, r3, asl #2]
 5494 32fc C20000EA 		b	.L442
 5495              	.L372:
 5496 3300 54330000 		.word	.L367
 5497 3304 0C360000 		.word	.L442
 5498 3308 0C360000 		.word	.L442
 5499 330c 0C360000 		.word	.L442
 5500 3310 64330000 		.word	.L368
 5501 3314 0C360000 		.word	.L442
 5502 3318 0C360000 		.word	.L442
 5503 331c 0C360000 		.word	.L442
 5504 3320 74330000 		.word	.L369
 5505 3324 0C360000 		.word	.L442
 5506 3328 0C360000 		.word	.L442
 5507 332c 0C360000 		.word	.L442
 5508 3330 0C360000 		.word	.L442
 5509 3334 0C360000 		.word	.L442
 5510 3338 84330000 		.word	.L370
 5511 333c 0C360000 		.word	.L442
 5512 3340 0C360000 		.word	.L442
 5513 3344 0C360000 		.word	.L442
 5514 3348 0C360000 		.word	.L442
 5515 334c 0C360000 		.word	.L442
 5516 3350 94330000 		.word	.L371
 5517              	.L367:
 925:../sintesisVoz.c **** 					case 'a': *id = kra; break;
 5518              		.loc 1 925 0
 5519 3354 14301BE5 		ldr	r3, [fp, #-20]
 5520 3358 6520E0E3 		mvn	r2, #101
 5521 335c 0020C3E5 		strb	r2, [r3, #0]
 5522 3360 0F0000EA 		b	.L366
 5523              	.L368:
 926:../sintesisVoz.c **** 					case 'e': *id = kre; break;
 5524              		.loc 1 926 0
 5525 3364 14301BE5 		ldr	r3, [fp, #-20]
 5526 3368 6420E0E3 		mvn	r2, #100
 5527 336c 0020C3E5 		strb	r2, [r3, #0]
 5528 3370 0B0000EA 		b	.L366
 5529              	.L369:
 927:../sintesisVoz.c **** 					case 'i': *id = kri; break;
 5530              		.loc 1 927 0
 5531 3374 14301BE5 		ldr	r3, [fp, #-20]
 5532 3378 6320E0E3 		mvn	r2, #99
 5533 337c 0020C3E5 		strb	r2, [r3, #0]
 5534 3380 070000EA 		b	.L366
 5535              	.L370:
 928:../sintesisVoz.c **** 					case 'o': *id = kro; break;
 5536              		.loc 1 928 0
 5537 3384 14301BE5 		ldr	r3, [fp, #-20]
 5538 3388 6220E0E3 		mvn	r2, #98
 5539 338c 0020C3E5 		strb	r2, [r3, #0]
 5540 3390 030000EA 		b	.L366
 5541              	.L371:
 929:../sintesisVoz.c **** 					case 'u': *id = kru; break;
 5542              		.loc 1 929 0
 5543 3394 14301BE5 		ldr	r3, [fp, #-20]
 5544 3398 6120E0E3 		mvn	r2, #97
 5545 339c 0020C3E5 		strb	r2, [r3, #0]
 5546 33a0 0000A0E1 		mov	r0, r0	@ nop
 5547              	.L366:
 930:../sintesisVoz.c **** 				}
 931:../sintesisVoz.c **** 				break;
 5548              		.loc 1 931 0
 5549 33a4 9F0000EA 		b	.L336
 5550              	.L342:
 932:../sintesisVoz.c **** 			case 'p':
 933:../sintesisVoz.c **** 				switch( txt[2] ) {
 5551              		.loc 1 933 0
 5552 33a8 10301BE5 		ldr	r3, [fp, #-16]
 5553 33ac 023083E2 		add	r3, r3, #2
 5554 33b0 0030D3E5 		ldrb	r3, [r3, #0]	@ zero_extendqisi2
 5555 33b4 613043E2 		sub	r3, r3, #97
 5556 33b8 140053E3 		cmp	r3, #20
 5557 33bc 03F19F97 		ldrls	pc, [pc, r3, asl #2]
 5558 33c0 930000EA 		b	.L443
 5559              	.L379:
 5560 33c4 18340000 		.word	.L374
 5561 33c8 14360000 		.word	.L443
 5562 33cc 14360000 		.word	.L443
 5563 33d0 14360000 		.word	.L443
 5564 33d4 28340000 		.word	.L375
 5565 33d8 14360000 		.word	.L443
 5566 33dc 14360000 		.word	.L443
 5567 33e0 14360000 		.word	.L443
 5568 33e4 38340000 		.word	.L376
 5569 33e8 14360000 		.word	.L443
 5570 33ec 14360000 		.word	.L443
 5571 33f0 14360000 		.word	.L443
 5572 33f4 14360000 		.word	.L443
 5573 33f8 14360000 		.word	.L443
 5574 33fc 48340000 		.word	.L377
 5575 3400 14360000 		.word	.L443
 5576 3404 14360000 		.word	.L443
 5577 3408 14360000 		.word	.L443
 5578 340c 14360000 		.word	.L443
 5579 3410 14360000 		.word	.L443
 5580 3414 58340000 		.word	.L378
 5581              	.L374:
 934:../sintesisVoz.c **** 					case 'a': *id = pra; break;
 5582              		.loc 1 934 0
 5583 3418 14301BE5 		ldr	r3, [fp, #-20]
 5584 341c 5B20E0E3 		mvn	r2, #91
 5585 3420 0020C3E5 		strb	r2, [r3, #0]
 5586 3424 0F0000EA 		b	.L373
 5587              	.L375:
 935:../sintesisVoz.c **** 					case 'e': *id = pre; break;
 5588              		.loc 1 935 0
 5589 3428 14301BE5 		ldr	r3, [fp, #-20]
 5590 342c 5A20E0E3 		mvn	r2, #90
 5591 3430 0020C3E5 		strb	r2, [r3, #0]
 5592 3434 0B0000EA 		b	.L373
 5593              	.L376:
 936:../sintesisVoz.c **** 					case 'i': *id = pri; break;
 5594              		.loc 1 936 0
 5595 3438 14301BE5 		ldr	r3, [fp, #-20]
 5596 343c 5920E0E3 		mvn	r2, #89
 5597 3440 0020C3E5 		strb	r2, [r3, #0]
 5598 3444 070000EA 		b	.L373
 5599              	.L377:
 937:../sintesisVoz.c **** 					case 'o': *id = pro; break;
 5600              		.loc 1 937 0
 5601 3448 14301BE5 		ldr	r3, [fp, #-20]
 5602 344c 5820E0E3 		mvn	r2, #88
 5603 3450 0020C3E5 		strb	r2, [r3, #0]
 5604 3454 030000EA 		b	.L373
 5605              	.L378:
 938:../sintesisVoz.c **** 					case 'u': *id = pru; break;
 5606              		.loc 1 938 0
 5607 3458 14301BE5 		ldr	r3, [fp, #-20]
 5608 345c 5720E0E3 		mvn	r2, #87
 5609 3460 0020C3E5 		strb	r2, [r3, #0]
 5610 3464 0000A0E1 		mov	r0, r0	@ nop
 5611              	.L373:
 939:../sintesisVoz.c **** 				}
 940:../sintesisVoz.c **** 				break;
 5612              		.loc 1 940 0
 5613 3468 6E0000EA 		b	.L336
 5614              	.L343:
 941:../sintesisVoz.c **** 			case 't':
 942:../sintesisVoz.c **** 				switch( txt[2] ) {
 5615              		.loc 1 942 0
 5616 346c 10301BE5 		ldr	r3, [fp, #-16]
 5617 3470 023083E2 		add	r3, r3, #2
 5618 3474 0030D3E5 		ldrb	r3, [r3, #0]	@ zero_extendqisi2
 5619 3478 613043E2 		sub	r3, r3, #97
 5620 347c 140053E3 		cmp	r3, #20
 5621 3480 03F19F97 		ldrls	pc, [pc, r3, asl #2]
 5622 3484 640000EA 		b	.L444
 5623              	.L386:
 5624 3488 DC340000 		.word	.L381
 5625 348c 1C360000 		.word	.L444
 5626 3490 1C360000 		.word	.L444
 5627 3494 1C360000 		.word	.L444
 5628 3498 EC340000 		.word	.L382
 5629 349c 1C360000 		.word	.L444
 5630 34a0 1C360000 		.word	.L444
 5631 34a4 1C360000 		.word	.L444
 5632 34a8 FC340000 		.word	.L383
 5633 34ac 1C360000 		.word	.L444
 5634 34b0 1C360000 		.word	.L444
 5635 34b4 1C360000 		.word	.L444
 5636 34b8 1C360000 		.word	.L444
 5637 34bc 1C360000 		.word	.L444
 5638 34c0 0C350000 		.word	.L384
 5639 34c4 1C360000 		.word	.L444
 5640 34c8 1C360000 		.word	.L444
 5641 34cc 1C360000 		.word	.L444
 5642 34d0 1C360000 		.word	.L444
 5643 34d4 1C360000 		.word	.L444
 5644 34d8 1C350000 		.word	.L385
 5645              	.L381:
 943:../sintesisVoz.c **** 					case 'a': *id = tra; break;
 5646              		.loc 1 943 0
 5647 34dc 14301BE5 		ldr	r3, [fp, #-20]
 5648 34e0 5620E0E3 		mvn	r2, #86
 5649 34e4 0020C3E5 		strb	r2, [r3, #0]
 5650 34e8 0F0000EA 		b	.L380
 5651              	.L382:
 944:../sintesisVoz.c **** 					case 'e': *id = tre; break;
 5652              		.loc 1 944 0
 5653 34ec 14301BE5 		ldr	r3, [fp, #-20]
 5654 34f0 5520E0E3 		mvn	r2, #85
 5655 34f4 0020C3E5 		strb	r2, [r3, #0]
 5656 34f8 0B0000EA 		b	.L380
 5657              	.L383:
 945:../sintesisVoz.c **** 					case 'i': *id = tri; break;
 5658              		.loc 1 945 0
 5659 34fc 14301BE5 		ldr	r3, [fp, #-20]
 5660 3500 5420E0E3 		mvn	r2, #84
 5661 3504 0020C3E5 		strb	r2, [r3, #0]
 5662 3508 070000EA 		b	.L380
 5663              	.L384:
 946:../sintesisVoz.c **** 					case 'o': *id = tro; break;
 5664              		.loc 1 946 0
 5665 350c 14301BE5 		ldr	r3, [fp, #-20]
 5666 3510 5320E0E3 		mvn	r2, #83
 5667 3514 0020C3E5 		strb	r2, [r3, #0]
 5668 3518 030000EA 		b	.L380
 5669              	.L385:
 947:../sintesisVoz.c **** 					case 'u': *id = tru; break;
 5670              		.loc 1 947 0
 5671 351c 14301BE5 		ldr	r3, [fp, #-20]
 5672 3520 5220E0E3 		mvn	r2, #82
 5673 3524 0020C3E5 		strb	r2, [r3, #0]
 5674 3528 0000A0E1 		mov	r0, r0	@ nop
 5675              	.L380:
 948:../sintesisVoz.c **** 				}
 949:../sintesisVoz.c **** 				break;
 5676              		.loc 1 949 0
 5677 352c 3D0000EA 		b	.L336
 5678              	.L338:
 950:../sintesisVoz.c **** 			case 'd':
 951:../sintesisVoz.c **** 				switch( txt[2] ) {
 5679              		.loc 1 951 0
 5680 3530 10301BE5 		ldr	r3, [fp, #-16]
 5681 3534 023083E2 		add	r3, r3, #2
 5682 3538 0030D3E5 		ldrb	r3, [r3, #0]	@ zero_extendqisi2
 5683 353c 613043E2 		sub	r3, r3, #97
 5684 3540 140053E3 		cmp	r3, #20
 5685 3544 03F19F97 		ldrls	pc, [pc, r3, asl #2]
 5686 3548 350000EA 		b	.L445
 5687              	.L393:
 5688 354c A0350000 		.word	.L388
 5689 3550 24360000 		.word	.L445
 5690 3554 24360000 		.word	.L445
 5691 3558 24360000 		.word	.L445
 5692 355c B0350000 		.word	.L389
 5693 3560 24360000 		.word	.L445
 5694 3564 24360000 		.word	.L445
 5695 3568 24360000 		.word	.L445
 5696 356c C0350000 		.word	.L390
 5697 3570 24360000 		.word	.L445
 5698 3574 24360000 		.word	.L445
 5699 3578 24360000 		.word	.L445
 5700 357c 24360000 		.word	.L445
 5701 3580 24360000 		.word	.L445
 5702 3584 D0350000 		.word	.L391
 5703 3588 24360000 		.word	.L445
 5704 358c 24360000 		.word	.L445
 5705 3590 24360000 		.word	.L445
 5706 3594 24360000 		.word	.L445
 5707 3598 24360000 		.word	.L445
 5708 359c E0350000 		.word	.L392
 5709              	.L388:
 952:../sintesisVoz.c **** 					case 'a': *id = dra; break;
 5710              		.loc 1 952 0
 5711 35a0 14301BE5 		ldr	r3, [fp, #-20]
 5712 35a4 5120E0E3 		mvn	r2, #81
 5713 35a8 0020C3E5 		strb	r2, [r3, #0]
 5714 35ac 0F0000EA 		b	.L387
 5715              	.L389:
 953:../sintesisVoz.c **** 					case 'e': *id = dre; break;
 5716              		.loc 1 953 0
 5717 35b0 14301BE5 		ldr	r3, [fp, #-20]
 5718 35b4 5020E0E3 		mvn	r2, #80
 5719 35b8 0020C3E5 		strb	r2, [r3, #0]
 5720 35bc 0B0000EA 		b	.L387
 5721              	.L390:
 954:../sintesisVoz.c **** 					case 'i': *id = dri; break;
 5722              		.loc 1 954 0
 5723 35c0 14301BE5 		ldr	r3, [fp, #-20]
 5724 35c4 4F20E0E3 		mvn	r2, #79
 5725 35c8 0020C3E5 		strb	r2, [r3, #0]
 5726 35cc 070000EA 		b	.L387
 5727              	.L391:
 955:../sintesisVoz.c **** 					case 'o': *id = dro; break;
 5728              		.loc 1 955 0
 5729 35d0 14301BE5 		ldr	r3, [fp, #-20]
 5730 35d4 4E20E0E3 		mvn	r2, #78
 5731 35d8 0020C3E5 		strb	r2, [r3, #0]
 5732 35dc 030000EA 		b	.L387
 5733              	.L392:
 956:../sintesisVoz.c **** 					case 'u': *id = dru; break;
 5734              		.loc 1 956 0
 5735 35e0 14301BE5 		ldr	r3, [fp, #-20]
 5736 35e4 4D20E0E3 		mvn	r2, #77
 5737 35e8 0020C3E5 		strb	r2, [r3, #0]
 5738 35ec 0000A0E1 		mov	r0, r0	@ nop
 5739              	.L387:
 957:../sintesisVoz.c **** 				}
 958:../sintesisVoz.c **** 				break;
 5740              		.loc 1 958 0
 5741 35f0 0C0000EA 		b	.L336
 5742              	.L439:
 904:../sintesisVoz.c **** 	    		break;
 5743              		.loc 1 904 0
 5744 35f4 0000A0E1 		mov	r0, r0	@ nop
 5745 35f8 0A0000EA 		b	.L336
 5746              	.L440:
 913:../sintesisVoz.c **** 				break;
 5747              		.loc 1 913 0
 5748 35fc 0000A0E1 		mov	r0, r0	@ nop
 5749 3600 080000EA 		b	.L336
 5750              	.L441:
 922:../sintesisVoz.c **** 				break;
 5751              		.loc 1 922 0
 5752 3604 0000A0E1 		mov	r0, r0	@ nop
 5753 3608 060000EA 		b	.L336
 5754              	.L442:
 931:../sintesisVoz.c **** 				break;
 5755              		.loc 1 931 0
 5756 360c 0000A0E1 		mov	r0, r0	@ nop
 5757 3610 040000EA 		b	.L336
 5758              	.L443:
 940:../sintesisVoz.c **** 				break;
 5759              		.loc 1 940 0
 5760 3614 0000A0E1 		mov	r0, r0	@ nop
 5761 3618 020000EA 		b	.L336
 5762              	.L444:
 949:../sintesisVoz.c **** 				break;
 5763              		.loc 1 949 0
 5764 361c 0000A0E1 		mov	r0, r0	@ nop
 5765 3620 000000EA 		b	.L336
 5766              	.L445:
 5767              		.loc 1 958 0
 5768 3624 0000A0E1 		mov	r0, r0	@ nop
 5769              	.L336:
 959:../sintesisVoz.c **** 		}
 960:../sintesisVoz.c ****         return txt+3;
 5770              		.loc 1 960 0
 5771 3628 10301BE5 		ldr	r3, [fp, #-16]
 5772 362c 033083E2 		add	r3, r3, #3
 5773 3630 860000EA 		b	.L123
 5774              	.L335:
 961:../sintesisVoz.c ****     } else {                                                                             // consona
 962:../sintesisVoz.c ****         switch( txt[0] ) {
 5775              		.loc 1 962 0
 5776 3634 10301BE5 		ldr	r3, [fp, #-16]
 5777 3638 0030D3E5 		ldrb	r3, [r3, #0]	@ zero_extendqisi2
 5778 363c 483043E2 		sub	r3, r3, #72
 5779 3640 320053E3 		cmp	r3, #50
 5780 3644 03F19F97 		ldrls	pc, [pc, r3, asl #2]
 5781 3648 7E0000EA 		b	.L394
 5782              	.L414:
 5783 364c 38380000 		.word	.L395
 5784 3650 48380000 		.word	.L394
 5785 3654 48380000 		.word	.L394
 5786 3658 48380000 		.word	.L394
 5787 365c 48380000 		.word	.L394
 5788 3660 48380000 		.word	.L394
 5789 3664 A8370000 		.word	.L396
 5790 3668 48380000 		.word	.L394
 5791 366c 48380000 		.word	.L394
 5792 3670 48380000 		.word	.L394
 5793 3674 D8370000 		.word	.L397
 5794 3678 48380000 		.word	.L394
 5795 367c 48380000 		.word	.L394
 5796 3680 48380000 		.word	.L394
 5797 3684 48380000 		.word	.L394
 5798 3688 48380000 		.word	.L394
 5799 368c 48380000 		.word	.L394
 5800 3690 48380000 		.word	.L394
 5801 3694 48380000 		.word	.L394
 5802 3698 48380000 		.word	.L394
 5803 369c 48380000 		.word	.L394
 5804 36a0 48380000 		.word	.L394
 5805 36a4 48380000 		.word	.L394
 5806 36a8 48380000 		.word	.L394
 5807 36ac 48380000 		.word	.L394
 5808 36b0 48380000 		.word	.L394
 5809 36b4 18370000 		.word	.L398
 5810 36b8 48380000 		.word	.L394
 5811 36bc 28370000 		.word	.L399
 5812 36c0 48380000 		.word	.L394
 5813 36c4 38370000 		.word	.L400
 5814 36c8 48370000 		.word	.L401
 5815 36cc 48380000 		.word	.L394
 5816 36d0 48380000 		.word	.L394
 5817 36d4 58370000 		.word	.L402
 5818 36d8 68370000 		.word	.L403
 5819 36dc 78370000 		.word	.L404
 5820 36e0 88370000 		.word	.L405
 5821 36e4 98370000 		.word	.L406
 5822 36e8 48380000 		.word	.L394
 5823 36ec B8370000 		.word	.L407
 5824 36f0 48380000 		.word	.L394
 5825 36f4 C8370000 		.word	.L408
 5826 36f8 E8370000 		.word	.L409
 5827 36fc F8370000 		.word	.L410
 5828 3700 48380000 		.word	.L394
 5829 3704 48380000 		.word	.L394
 5830 3708 48380000 		.word	.L394
 5831 370c 08380000 		.word	.L411
 5832 3710 18380000 		.word	.L412
 5833 3714 28380000 		.word	.L413
 5834              	.L398:
 963:../sintesisVoz.c ****         case 'b': *id = b; break;
 5835              		.loc 1 963 0
 5836 3718 14301BE5 		ldr	r3, [fp, #-20]
 5837 371c 0520A0E3 		mov	r2, #5
 5838 3720 0020C3E5 		strb	r2, [r3, #0]
 5839 3724 470000EA 		b	.L394
 5840              	.L399:
 964:../sintesisVoz.c ****         case 'd': *id = d; break;
 5841              		.loc 1 964 0
 5842 3728 14301BE5 		ldr	r3, [fp, #-20]
 5843 372c 0620A0E3 		mov	r2, #6
 5844 3730 0020C3E5 		strb	r2, [r3, #0]
 5845 3734 430000EA 		b	.L394
 5846              	.L400:
 965:../sintesisVoz.c ****         case 'f': *id = f; break;
 5847              		.loc 1 965 0
 5848 3738 14301BE5 		ldr	r3, [fp, #-20]
 5849 373c 0720A0E3 		mov	r2, #7
 5850 3740 0020C3E5 		strb	r2, [r3, #0]
 5851 3744 3F0000EA 		b	.L394
 5852              	.L401:
 966:../sintesisVoz.c ****         case 'g': *id = g; break;
 5853              		.loc 1 966 0
 5854 3748 14301BE5 		ldr	r3, [fp, #-20]
 5855 374c 0820A0E3 		mov	r2, #8
 5856 3750 0020C3E5 		strb	r2, [r3, #0]
 5857 3754 3B0000EA 		b	.L394
 5858              	.L402:
 967:../sintesisVoz.c ****         case 'j': *id = j; break;
 5859              		.loc 1 967 0
 5860 3758 14301BE5 		ldr	r3, [fp, #-20]
 5861 375c 0920A0E3 		mov	r2, #9
 5862 3760 0020C3E5 		strb	r2, [r3, #0]
 5863 3764 370000EA 		b	.L394
 5864              	.L403:
 968:../sintesisVoz.c ****         case 'k': *id = k; break;
 5865              		.loc 1 968 0
 5866 3768 14301BE5 		ldr	r3, [fp, #-20]
 5867 376c 0A20A0E3 		mov	r2, #10
 5868 3770 0020C3E5 		strb	r2, [r3, #0]
 5869 3774 330000EA 		b	.L394
 5870              	.L404:
 969:../sintesisVoz.c ****         case 'l': *id = l; break;
 5871              		.loc 1 969 0
 5872 3778 14301BE5 		ldr	r3, [fp, #-20]
 5873 377c 0B20A0E3 		mov	r2, #11
 5874 3780 0020C3E5 		strb	r2, [r3, #0]
 5875 3784 2F0000EA 		b	.L394
 5876              	.L405:
 970:../sintesisVoz.c ****         case 'm': *id = m; break;
 5877              		.loc 1 970 0
 5878 3788 14301BE5 		ldr	r3, [fp, #-20]
 5879 378c 0C20A0E3 		mov	r2, #12
 5880 3790 0020C3E5 		strb	r2, [r3, #0]
 5881 3794 2B0000EA 		b	.L394
 5882              	.L406:
 971:../sintesisVoz.c ****         case 'n': *id = n; break;
 5883              		.loc 1 971 0
 5884 3798 14301BE5 		ldr	r3, [fp, #-20]
 5885 379c 0D20A0E3 		mov	r2, #13
 5886 37a0 0020C3E5 		strb	r2, [r3, #0]
 5887 37a4 270000EA 		b	.L394
 5888              	.L396:
 972:../sintesisVoz.c ****         case 'N': *id = N; break;
 5889              		.loc 1 972 0
 5890 37a8 14301BE5 		ldr	r3, [fp, #-20]
 5891 37ac 0E20A0E3 		mov	r2, #14
 5892 37b0 0020C3E5 		strb	r2, [r3, #0]
 5893 37b4 230000EA 		b	.L394
 5894              	.L407:
 973:../sintesisVoz.c ****         case 'p': *id = p; break;
 5895              		.loc 1 973 0
 5896 37b8 14301BE5 		ldr	r3, [fp, #-20]
 5897 37bc 0F20A0E3 		mov	r2, #15
 5898 37c0 0020C3E5 		strb	r2, [r3, #0]
 5899 37c4 1F0000EA 		b	.L394
 5900              	.L408:
 974:../sintesisVoz.c ****         case 'r': *id = r; break;
 5901              		.loc 1 974 0
 5902 37c8 14301BE5 		ldr	r3, [fp, #-20]
 5903 37cc 1020A0E3 		mov	r2, #16
 5904 37d0 0020C3E5 		strb	r2, [r3, #0]
 5905 37d4 1B0000EA 		b	.L394
 5906              	.L397:
 975:../sintesisVoz.c ****         case 'R': *id = R; break;
 5907              		.loc 1 975 0
 5908 37d8 14301BE5 		ldr	r3, [fp, #-20]
 5909 37dc 1120A0E3 		mov	r2, #17
 5910 37e0 0020C3E5 		strb	r2, [r3, #0]
 5911 37e4 170000EA 		b	.L394
 5912              	.L409:
 976:../sintesisVoz.c ****         case 's': *id = s; break;
 5913              		.loc 1 976 0
 5914 37e8 14301BE5 		ldr	r3, [fp, #-20]
 5915 37ec 1220A0E3 		mov	r2, #18
 5916 37f0 0020C3E5 		strb	r2, [r3, #0]
 5917 37f4 130000EA 		b	.L394
 5918              	.L410:
 977:../sintesisVoz.c ****         case 't': *id = t; break;
 5919              		.loc 1 977 0
 5920 37f8 14301BE5 		ldr	r3, [fp, #-20]
 5921 37fc 1320A0E3 		mov	r2, #19
 5922 3800 0020C3E5 		strb	r2, [r3, #0]
 5923 3804 0F0000EA 		b	.L394
 5924              	.L411:
 978:../sintesisVoz.c ****         case 'x': *id = x; break;
 5925              		.loc 1 978 0
 5926 3808 14301BE5 		ldr	r3, [fp, #-20]
 5927 380c 1420A0E3 		mov	r2, #20
 5928 3810 0020C3E5 		strb	r2, [r3, #0]
 5929 3814 0B0000EA 		b	.L394
 5930              	.L412:
 979:../sintesisVoz.c ****         case 'y': *id = y; break;
 5931              		.loc 1 979 0
 5932 3818 14301BE5 		ldr	r3, [fp, #-20]
 5933 381c 1520A0E3 		mov	r2, #21
 5934 3820 0020C3E5 		strb	r2, [r3, #0]
 5935 3824 070000EA 		b	.L394
 5936              	.L413:
 980:../sintesisVoz.c ****         case 'z': *id = z; break;
 5937              		.loc 1 980 0
 5938 3828 14301BE5 		ldr	r3, [fp, #-20]
 5939 382c 1620A0E3 		mov	r2, #22
 5940 3830 0020C3E5 		strb	r2, [r3, #0]
 5941 3834 030000EA 		b	.L394
 5942              	.L395:
 981:../sintesisVoz.c ****         case 'H': *id = H; break;
 5943              		.loc 1 981 0
 5944 3838 14301BE5 		ldr	r3, [fp, #-20]
 5945 383c 1720A0E3 		mov	r2, #23
 5946 3840 0020C3E5 		strb	r2, [r3, #0]
 5947 3844 0000A0E1 		mov	r0, r0	@ nop
 5948              	.L394:
 982:../sintesisVoz.c ****         }
 983:../sintesisVoz.c ****         return txt+1;
 5949              		.loc 1 983 0
 5950 3848 10301BE5 		ldr	r3, [fp, #-16]
 5951 384c 013083E2 		add	r3, r3, #1
 5952              	.L123:
 984:../sintesisVoz.c ****     }
 985:../sintesisVoz.c **** }
 5953              		.loc 1 985 0
 5954 3850 0300A0E1 		mov	r0, r3
 5955 3854 0CD04BE2 		sub	sp, fp, #12
 5956 3858 00689DE8 		ldmfd	sp, {fp, sp, lr}
 5957 385c 1EFF2FE1 		bx	lr
 5958              		.cfi_endproc
 5959              	.LFE3:
 5961              		.align	2
 5963              	esPuntuacion:
 5964              	.LFB4:
 986:../sintesisVoz.c **** 
 987:../sintesisVoz.c **** static boolean esPuntuacion( char ch )
 988:../sintesisVoz.c **** {
 5965              		.loc 1 988 0
 5966              		.cfi_startproc
 5967              		@ Function supports interworking.
 5968              		@ args = 0, pretend = 0, frame = 8
 5969              		@ frame_needed = 1, uses_anonymous_args = 0
 5970 3860 0DC0A0E1 		mov	ip, sp
 5971              	.LCFI8:
 5972              		.cfi_def_cfa_register 12
 5973 3864 00D82DE9 		stmfd	sp!, {fp, ip, lr, pc}
 5974 3868 04B04CE2 		sub	fp, ip, #4
 5975              		.cfi_offset 14, -8
 5976              		.cfi_offset 13, -12
 5977              		.cfi_offset 11, -16
 5978              	.LCFI9:
 5979              		.cfi_def_cfa 11, 4
 5980 386c 08D04DE2 		sub	sp, sp, #8
 5981 3870 0030A0E1 		mov	r3, r0
 5982 3874 0D304BE5 		strb	r3, [fp, #-13]
 989:../sintesisVoz.c ****     switch( ch ) {
 5983              		.loc 1 989 0
 5984 3878 0D305BE5 		ldrb	r3, [fp, #-13]	@ zero_extendqisi2
 5985 387c 2C3043E2 		sub	r3, r3, #44
 5986 3880 020053E3 		cmp	r3, #2
 5987 3884 0100008A 		bhi	.L447
 990:../sintesisVoz.c ****     case '-':
 991:../sintesisVoz.c ****     case ',':
 992:../sintesisVoz.c ****     case '.':
 993:../sintesisVoz.c ****         return TRUE;
 5988              		.loc 1 993 0
 5989 3888 0130A0E3 		mov	r3, #1
 5990 388c 000000EA 		b	.L449
 5991              	.L447:
 994:../sintesisVoz.c ****     default:
 995:../sintesisVoz.c ****         return FALSE;
 5992              		.loc 1 995 0
 5993 3890 0030A0E3 		mov	r3, #0
 5994              	.L449:
 996:../sintesisVoz.c ****     }
 997:../sintesisVoz.c **** }
 5995              		.loc 1 997 0
 5996 3894 0300A0E1 		mov	r0, r3
 5997 3898 0CD04BE2 		sub	sp, fp, #12
 5998 389c 00689DE8 		ldmfd	sp, {fp, sp, lr}
 5999 38a0 1EFF2FE1 		bx	lr
 6000              		.cfi_endproc
 6001              	.LFE4:
 6003              		.align	2
 6005              	esVocal:
 6006              	.LFB5:
 998:../sintesisVoz.c **** 
 999:../sintesisVoz.c **** static boolean esVocal( char ch )
1000:../sintesisVoz.c **** {
 6007              		.loc 1 1000 0
 6008              		.cfi_startproc
 6009              		@ Function supports interworking.
 6010              		@ args = 0, pretend = 0, frame = 8
 6011              		@ frame_needed = 1, uses_anonymous_args = 0
 6012 38a4 0DC0A0E1 		mov	ip, sp
 6013              	.LCFI10:
 6014              		.cfi_def_cfa_register 12
 6015 38a8 00D82DE9 		stmfd	sp!, {fp, ip, lr, pc}
 6016 38ac 04B04CE2 		sub	fp, ip, #4
 6017              		.cfi_offset 14, -8
 6018              		.cfi_offset 13, -12
 6019              		.cfi_offset 11, -16
 6020              	.LCFI11:
 6021              		.cfi_def_cfa 11, 4
 6022 38b0 08D04DE2 		sub	sp, sp, #8
 6023 38b4 0030A0E1 		mov	r3, r0
 6024 38b8 0D304BE5 		strb	r3, [fp, #-13]
1001:../sintesisVoz.c ****     switch( ch ) {
 6025              		.loc 1 1001 0
 6026 38bc 0D305BE5 		ldrb	r3, [fp, #-13]	@ zero_extendqisi2
 6027 38c0 613043E2 		sub	r3, r3, #97
 6028 38c4 140053E3 		cmp	r3, #20
 6029 38c8 0500008A 		bhi	.L451
 6030 38cc 24209FE5 		ldr	r2, .L454
 6031 38d0 1233A0E1 		mov	r3, r2, asl r3
 6032 38d4 000053E3 		cmp	r3, #0
 6033 38d8 010000AA 		bge	.L451
 6034              	.L452:
1002:../sintesisVoz.c ****     case 'a':
1003:../sintesisVoz.c ****     case 'e':
1004:../sintesisVoz.c ****     case 'i':
1005:../sintesisVoz.c ****     case 'o':
1006:../sintesisVoz.c ****     case 'u':
1007:../sintesisVoz.c ****         return TRUE;
 6035              		.loc 1 1007 0
 6036 38dc 0130A0E3 		mov	r3, #1
 6037 38e0 000000EA 		b	.L453
 6038              	.L451:
1008:../sintesisVoz.c ****     default:
1009:../sintesisVoz.c ****         return FALSE;
 6039              		.loc 1 1009 0
 6040 38e4 0030A0E3 		mov	r3, #0
 6041              	.L453:
1010:../sintesisVoz.c ****     }
1011:../sintesisVoz.c **** }
 6042              		.loc 1 1011 0
 6043 38e8 0300A0E1 		mov	r0, r3
 6044 38ec 0CD04BE2 		sub	sp, fp, #12
 6045 38f0 00689DE8 		ldmfd	sp, {fp, sp, lr}
 6046 38f4 1EFF2FE1 		bx	lr
 6047              	.L455:
 6048              		.align	2
 6049              	.L454:
 6050 38f8 00088288 		.word	-2004744192
 6051              		.cfi_endproc
 6052              	.LFE5:
 6054              		.align	2
 6056              	esConsonante:
 6057              	.LFB6:
1012:../sintesisVoz.c **** 
1013:../sintesisVoz.c **** static boolean esConsonante( char ch )
1014:../sintesisVoz.c **** {
 6058              		.loc 1 1014 0
 6059              		.cfi_startproc
 6060              		@ Function supports interworking.
 6061              		@ args = 0, pretend = 0, frame = 8
 6062              		@ frame_needed = 1, uses_anonymous_args = 0
 6063 38fc 0DC0A0E1 		mov	ip, sp
 6064              	.LCFI12:
 6065              		.cfi_def_cfa_register 12
 6066 3900 00D82DE9 		stmfd	sp!, {fp, ip, lr, pc}
 6067 3904 04B04CE2 		sub	fp, ip, #4
 6068              		.cfi_offset 14, -8
 6069              		.cfi_offset 13, -12
 6070              		.cfi_offset 11, -16
 6071              	.LCFI13:
 6072              		.cfi_def_cfa 11, 4
 6073 3908 08D04DE2 		sub	sp, sp, #8
 6074 390c 0030A0E1 		mov	r3, r0
 6075 3910 0D304BE5 		strb	r3, [fp, #-13]
1015:../sintesisVoz.c ****     switch( ch ) {
 6076              		.loc 1 1015 0
 6077 3914 0D305BE5 		ldrb	r3, [fp, #-13]	@ zero_extendqisi2
 6078 3918 483043E2 		sub	r3, r3, #72
 6079 391c 320053E3 		cmp	r3, #50
 6080 3920 03F19F97 		ldrls	pc, [pc, r3, asl #2]
 6081 3924 340000EA 		b	.L457
 6082              	.L459:
 6083 3928 F4390000 		.word	.L458
 6084 392c FC390000 		.word	.L457
 6085 3930 FC390000 		.word	.L457
 6086 3934 FC390000 		.word	.L457
 6087 3938 FC390000 		.word	.L457
 6088 393c FC390000 		.word	.L457
 6089 3940 F4390000 		.word	.L458
 6090 3944 FC390000 		.word	.L457
 6091 3948 FC390000 		.word	.L457
 6092 394c FC390000 		.word	.L457
 6093 3950 F4390000 		.word	.L458
 6094 3954 FC390000 		.word	.L457
 6095 3958 FC390000 		.word	.L457
 6096 395c FC390000 		.word	.L457
 6097 3960 FC390000 		.word	.L457
 6098 3964 FC390000 		.word	.L457
 6099 3968 FC390000 		.word	.L457
 6100 396c FC390000 		.word	.L457
 6101 3970 FC390000 		.word	.L457
 6102 3974 FC390000 		.word	.L457
 6103 3978 FC390000 		.word	.L457
 6104 397c FC390000 		.word	.L457
 6105 3980 FC390000 		.word	.L457
 6106 3984 FC390000 		.word	.L457
 6107 3988 FC390000 		.word	.L457
 6108 398c FC390000 		.word	.L457
 6109 3990 F4390000 		.word	.L458
 6110 3994 FC390000 		.word	.L457
 6111 3998 F4390000 		.word	.L458
 6112 399c FC390000 		.word	.L457
 6113 39a0 F4390000 		.word	.L458
 6114 39a4 F4390000 		.word	.L458
 6115 39a8 FC390000 		.word	.L457
 6116 39ac FC390000 		.word	.L457
 6117 39b0 F4390000 		.word	.L458
 6118 39b4 F4390000 		.word	.L458
 6119 39b8 F4390000 		.word	.L458
 6120 39bc F4390000 		.word	.L458
 6121 39c0 F4390000 		.word	.L458
 6122 39c4 FC390000 		.word	.L457
 6123 39c8 F4390000 		.word	.L458
 6124 39cc FC390000 		.word	.L457
 6125 39d0 F4390000 		.word	.L458
 6126 39d4 F4390000 		.word	.L458
 6127 39d8 F4390000 		.word	.L458
 6128 39dc FC390000 		.word	.L457
 6129 39e0 FC390000 		.word	.L457
 6130 39e4 FC390000 		.word	.L457
 6131 39e8 F4390000 		.word	.L458
 6132 39ec F4390000 		.word	.L458
 6133 39f0 F4390000 		.word	.L458
 6134              	.L458:
1016:../sintesisVoz.c ****     case 'b':
1017:../sintesisVoz.c ****     case 'd':
1018:../sintesisVoz.c ****     case 'f':
1019:../sintesisVoz.c ****     case 'g':
1020:../sintesisVoz.c ****     case 'j':
1021:../sintesisVoz.c ****     case 'k':
1022:../sintesisVoz.c ****     case 'l':
1023:../sintesisVoz.c ****     case 'm':
1024:../sintesisVoz.c ****     case 'n':
1025:../sintesisVoz.c ****     case 'N':
1026:../sintesisVoz.c ****     case 'p':
1027:../sintesisVoz.c ****     case 'r':
1028:../sintesisVoz.c ****     case 'R':
1029:../sintesisVoz.c ****     case 's':
1030:../sintesisVoz.c ****     case 't':
1031:../sintesisVoz.c ****     case 'x':
1032:../sintesisVoz.c ****     case 'y':
1033:../sintesisVoz.c ****     case 'z':
1034:../sintesisVoz.c ****     case 'H':
1035:../sintesisVoz.c ****         return TRUE;
 6135              		.loc 1 1035 0
 6136 39f4 0130A0E3 		mov	r3, #1
 6137 39f8 000000EA 		b	.L460
 6138              	.L457:
1036:../sintesisVoz.c ****     default:
1037:../sintesisVoz.c ****         return FALSE;
 6139              		.loc 1 1037 0
 6140 39fc 0030A0E3 		mov	r3, #0
 6141              	.L460:
1038:../sintesisVoz.c ****     }
1039:../sintesisVoz.c **** }
 6142              		.loc 1 1039 0
 6143 3a00 0300A0E1 		mov	r0, r3
 6144 3a04 0CD04BE2 		sub	sp, fp, #12
 6145 3a08 00689DE8 		ldmfd	sp, {fp, sp, lr}
 6146 3a0c 1EFF2FE1 		bx	lr
 6147              		.cfi_endproc
 6148              	.LFE6:
 6150              		.align	2
 6152              	esBFGKP:
 6153              	.LFB7:
1040:../sintesisVoz.c **** 
1041:../sintesisVoz.c **** static boolean esBFGKP( char ch )
1042:../sintesisVoz.c **** {
 6154              		.loc 1 1042 0
 6155              		.cfi_startproc
 6156              		@ Function supports interworking.
 6157              		@ args = 0, pretend = 0, frame = 8
 6158              		@ frame_needed = 1, uses_anonymous_args = 0
 6159 3a10 0DC0A0E1 		mov	ip, sp
 6160              	.LCFI14:
 6161              		.cfi_def_cfa_register 12
 6162 3a14 00D82DE9 		stmfd	sp!, {fp, ip, lr, pc}
 6163 3a18 04B04CE2 		sub	fp, ip, #4
 6164              		.cfi_offset 14, -8
 6165              		.cfi_offset 13, -12
 6166              		.cfi_offset 11, -16
 6167              	.LCFI15:
 6168              		.cfi_def_cfa 11, 4
 6169 3a1c 08D04DE2 		sub	sp, sp, #8
 6170 3a20 0030A0E1 		mov	r3, r0
 6171 3a24 0D304BE5 		strb	r3, [fp, #-13]
1043:../sintesisVoz.c ****     switch( ch ) {
 6172              		.loc 1 1043 0
 6173 3a28 0D305BE5 		ldrb	r3, [fp, #-13]	@ zero_extendqisi2
 6174 3a2c 623043E2 		sub	r3, r3, #98
 6175 3a30 0E0053E3 		cmp	r3, #14
 6176 3a34 0500008A 		bhi	.L462
 6177 3a38 24209FE5 		ldr	r2, .L465
 6178 3a3c 1233A0E1 		mov	r3, r2, asl r3
 6179 3a40 000053E3 		cmp	r3, #0
 6180 3a44 010000AA 		bge	.L462
 6181              	.L463:
1044:../sintesisVoz.c ****     case 'b':
1045:../sintesisVoz.c ****     case 'f':
1046:../sintesisVoz.c ****     case 'g':
1047:../sintesisVoz.c ****     case 'k':
1048:../sintesisVoz.c ****     case 'p':
1049:../sintesisVoz.c ****         return TRUE;
 6182              		.loc 1 1049 0
 6183 3a48 0130A0E3 		mov	r3, #1
 6184 3a4c 000000EA 		b	.L464
 6185              	.L462:
1050:../sintesisVoz.c ****     default:
1051:../sintesisVoz.c ****         return FALSE;
 6186              		.loc 1 1051 0
 6187 3a50 0030A0E3 		mov	r3, #0
 6188              	.L464:
1052:../sintesisVoz.c ****     }
1053:../sintesisVoz.c **** }
 6189              		.loc 1 1053 0
 6190 3a54 0300A0E1 		mov	r0, r3
 6191 3a58 0CD04BE2 		sub	sp, fp, #12
 6192 3a5c 00689DE8 		ldmfd	sp, {fp, sp, lr}
 6193 3a60 1EFF2FE1 		bx	lr
 6194              	.L466:
 6195              		.align	2
 6196              	.L465:
 6197 3a64 0000428C 		.word	-1941831680
 6198              		.cfi_endproc
 6199              	.LFE7:
 6201              		.align	2
 6203              	esBDFGKPT:
 6204              	.LFB8:
1054:../sintesisVoz.c **** 
1055:../sintesisVoz.c **** static boolean esBDFGKPT( char ch )
1056:../sintesisVoz.c **** {
 6205              		.loc 1 1056 0
 6206              		.cfi_startproc
 6207              		@ Function supports interworking.
 6208              		@ args = 0, pretend = 0, frame = 8
 6209              		@ frame_needed = 1, uses_anonymous_args = 0
 6210 3a68 0DC0A0E1 		mov	ip, sp
 6211              	.LCFI16:
 6212              		.cfi_def_cfa_register 12
 6213 3a6c 00D82DE9 		stmfd	sp!, {fp, ip, lr, pc}
 6214 3a70 04B04CE2 		sub	fp, ip, #4
 6215              		.cfi_offset 14, -8
 6216              		.cfi_offset 13, -12
 6217              		.cfi_offset 11, -16
 6218              	.LCFI17:
 6219              		.cfi_def_cfa 11, 4
 6220 3a74 08D04DE2 		sub	sp, sp, #8
 6221 3a78 0030A0E1 		mov	r3, r0
 6222 3a7c 0D304BE5 		strb	r3, [fp, #-13]
1057:../sintesisVoz.c ****     switch( ch ) {
 6223              		.loc 1 1057 0
 6224 3a80 0D305BE5 		ldrb	r3, [fp, #-13]	@ zero_extendqisi2
 6225 3a84 623043E2 		sub	r3, r3, #98
 6226 3a88 120053E3 		cmp	r3, #18
 6227 3a8c 0500008A 		bhi	.L468
 6228 3a90 24209FE5 		ldr	r2, .L471
 6229 3a94 1233A0E1 		mov	r3, r2, asl r3
 6230 3a98 000053E3 		cmp	r3, #0
 6231 3a9c 010000AA 		bge	.L468
 6232              	.L469:
1058:../sintesisVoz.c ****     case 'b':
1059:../sintesisVoz.c ****     case 'd':
1060:../sintesisVoz.c ****     case 'f':
1061:../sintesisVoz.c ****     case 'g':
1062:../sintesisVoz.c ****     case 'k':
1063:../sintesisVoz.c ****     case 'p':
1064:../sintesisVoz.c ****     case 't':
1065:../sintesisVoz.c ****         return TRUE;
 6233              		.loc 1 1065 0
 6234 3aa0 0130A0E3 		mov	r3, #1
 6235 3aa4 000000EA 		b	.L470
 6236              	.L468:
1066:../sintesisVoz.c ****     default:
1067:../sintesisVoz.c ****         return FALSE;
 6237              		.loc 1 1067 0
 6238 3aa8 0030A0E3 		mov	r3, #0
 6239              	.L470:
